
xinu.elf:     file format elf32-littlearm


Disassembly of section .text:

08010000 <_vectors>:
 8010000:	00 f4 01 20 87 52 01 08 f5 52 01 08 f5 52 01 08     ... .R...R...R..
 8010010:	f5 52 01 08 f5 52 01 08 f5 52 01 08 00 00 00 00     .R...R...R......
	...
 801002c:	7d 52 01 08 f5 52 01 08 00 00 00 00 e9 14 01 08     }R...R..........
 801003c:	39 15 01 08 f5 52 01 08 f5 52 01 08 f5 52 01 08     9....R...R...R..
 801004c:	f5 52 01 08 f5 52 01 08 f5 52 01 08 f5 52 01 08     .R...R...R...R..
 801005c:	f5 52 01 08 f5 52 01 08 f5 52 01 08 f5 52 01 08     .R...R...R...R..
 801006c:	f5 52 01 08 f5 52 01 08 f5 52 01 08 f5 52 01 08     .R...R...R...R..
 801007c:	f5 52 01 08 f5 52 01 08 f5 52 01 08 f5 52 01 08     .R...R...R...R..
	...
 801009c:	f5 52 01 08 f5 52 01 08 f5 52 01 08 f5 52 01 08     .R...R...R...R..
 80100ac:	f5 52 01 08 f5 52 01 08 f5 52 01 08 f5 52 01 08     .R...R...R...R..
 80100bc:	f5 52 01 08 f5 52 01 08 f5 52 01 08 f5 52 01 08     .R...R...R...R..
 80100cc:	f5 52 01 08 f5 52 01 08 f5 52 01 08 f5 52 01 08     .R...R...R...R..
 80100dc:	00 00 00 00 f5 52 01 08 f5 52 01 08 f5 52 01 08     .....R...R...R..
	...
 80100fc:	f5 52 01 08 00 00 00 00 f5 52 01 08 f5 52 01 08     .R.......R...R..
 801010c:	f5 52 01 08 00 00 00 00 00 00 00 00 00 00 00 00     .R..............
 801011c:	00 00 00 00 f5 52 01 08 f5 52 01 08 f5 52 01 08     .....R...R...R..
 801012c:	f5 52 01 08 f5 52 01 08 00 00 00 00 00 00 00 00     .R...R..........
	...
 801014c:	f5 52 01 08 f5 52 01 08 f5 52 01 08 f5 52 01 08     .R...R...R...R..
 801015c:	fd 11 01 08 f5 52 01 08 f5 52 01 08 00 00 00 00     .....R...R......
	...
 8010184:	f5 52 01 08 00 00 00 00 00 00 00 00 f5 52 01 08     .R...........R..

08010194 <panic>:
 8010194:	b508      	push	{r3, lr}
 8010196:	4604      	mov	r4, r0
 8010198:	f005 f904 	bl	80153a4 <disable>
 801019c:	4621      	mov	r1, r4
 801019e:	4802      	ldr	r0, [pc, #8]	; (80101a8 <panic+0x14>)
 80101a0:	f000 febc 	bl	8010f1c <kprintf>
 80101a4:	e7fe      	b.n	80101a4 <panic+0x10>
 80101a6:	bf00      	nop
 80101a8:	080191b4 	.word	0x080191b4

080101ac <syscall_putc>:
 80101ac:	b508      	push	{r3, lr}
 80101ae:	4601      	mov	r1, r0
 80101b0:	2001      	movs	r0, #1
 80101b2:	f005 f903 	bl	80153bc <__syscall>
 80101b6:	2001      	movs	r0, #1
 80101b8:	bd08      	pop	{r3, pc}

080101ba <syscall_getc>:
 80101ba:	b508      	push	{r3, lr}
 80101bc:	2002      	movs	r0, #2
 80101be:	f005 f8fd 	bl	80153bc <__syscall>
 80101c2:	bd08      	pop	{r3, pc}

080101c4 <syscall_sema_init>:
 80101c4:	b508      	push	{r3, lr}
 80101c6:	460a      	mov	r2, r1
 80101c8:	4601      	mov	r1, r0
 80101ca:	200e      	movs	r0, #14
 80101cc:	f005 f8f6 	bl	80153bc <__syscall>
 80101d0:	bd08      	pop	{r3, pc}

080101d2 <syscall_sema_signal>:
 80101d2:	b508      	push	{r3, lr}
 80101d4:	4601      	mov	r1, r0
 80101d6:	200f      	movs	r0, #15
 80101d8:	f005 f8f0 	bl	80153bc <__syscall>
 80101dc:	bd08      	pop	{r3, pc}

080101de <syscall_sema_wait>:
 80101de:	b508      	push	{r3, lr}
 80101e0:	4601      	mov	r1, r0
 80101e2:	2010      	movs	r0, #16
 80101e4:	f005 f8ea 	bl	80153bc <__syscall>
 80101e8:	bd08      	pop	{r3, pc}

080101ea <syscall_ready>:
 80101ea:	b508      	push	{r3, lr}
 80101ec:	4601      	mov	r1, r0
 80101ee:	2009      	movs	r0, #9
 80101f0:	f005 f8e4 	bl	80153bc <__syscall>
 80101f4:	bd08      	pop	{r3, pc}

080101f6 <syscall_malloc>:
 80101f6:	b508      	push	{r3, lr}
 80101f8:	4601      	mov	r1, r0
 80101fa:	200c      	movs	r0, #12
 80101fc:	f005 f8de 	bl	80153bc <__syscall>
 8010200:	bd08      	pop	{r3, pc}

08010202 <syscall_free>:
 8010202:	b508      	push	{r3, lr}
 8010204:	4601      	mov	r1, r0
 8010206:	200b      	movs	r0, #11
 8010208:	f005 f8d8 	bl	80153bc <__syscall>
 801020c:	bd08      	pop	{r3, pc}

0801020e <syscall_pin_mode>:
 801020e:	b508      	push	{r3, lr}
 8010210:	4613      	mov	r3, r2
 8010212:	460a      	mov	r2, r1
 8010214:	4601      	mov	r1, r0
 8010216:	2011      	movs	r0, #17
 8010218:	f005 f8d0 	bl	80153bc <__syscall>
 801021c:	bd08      	pop	{r3, pc}

0801021e <syscall_pin_set>:
 801021e:	b508      	push	{r3, lr}
 8010220:	4613      	mov	r3, r2
 8010222:	460a      	mov	r2, r1
 8010224:	4601      	mov	r1, r0
 8010226:	2012      	movs	r0, #18
 8010228:	f005 f8c8 	bl	80153bc <__syscall>
 801022c:	bd08      	pop	{r3, pc}

0801022e <syscall_pin_get>:
 801022e:	b508      	push	{r3, lr}
 8010230:	460a      	mov	r2, r1
 8010232:	4601      	mov	r1, r0
 8010234:	2013      	movs	r0, #19
 8010236:	f005 f8c1 	bl	80153bc <__syscall>
 801023a:	bd08      	pop	{r3, pc}

0801023c <syscall_kill>:
 801023c:	b508      	push	{r3, lr}
 801023e:	4601      	mov	r1, r0
 8010240:	2008      	movs	r0, #8
 8010242:	f005 f8bb 	bl	80153bc <__syscall>
 8010246:	bd08      	pop	{r3, pc}

08010248 <syscall_sleep>:
 8010248:	b508      	push	{r3, lr}
 801024a:	4601      	mov	r1, r0
 801024c:	200a      	movs	r0, #10
 801024e:	f005 f8b5 	bl	80153bc <__syscall>
 8010252:	bd08      	pop	{r3, pc}

08010254 <syscall_create>:
 8010254:	b500      	push	{lr}
 8010256:	b083      	sub	sp, #12
 8010258:	9300      	str	r3, [sp, #0]
 801025a:	4613      	mov	r3, r2
 801025c:	460a      	mov	r2, r1
 801025e:	4601      	mov	r1, r0
 8010260:	2007      	movs	r0, #7
 8010262:	f005 f8ab 	bl	80153bc <__syscall>
 8010266:	b003      	add	sp, #12
 8010268:	f85d fb04 	ldr.w	pc, [sp], #4

0801026c <syscall_getpid>:
 801026c:	b508      	push	{r3, lr}
 801026e:	2015      	movs	r0, #21
 8010270:	f005 f8a4 	bl	80153bc <__syscall>
 8010274:	bd08      	pop	{r3, pc}

08010276 <syscall_struct_task>:
 8010276:	b508      	push	{r3, lr}
 8010278:	4601      	mov	r1, r0
 801027a:	202e      	movs	r0, #46	; 0x2e
 801027c:	f005 f89e 	bl	80153bc <__syscall>
 8010280:	bd08      	pop	{r3, pc}

08010282 <syscall_num_task>:
 8010282:	b508      	push	{r3, lr}
 8010284:	202d      	movs	r0, #45	; 0x2d
 8010286:	f005 f899 	bl	80153bc <__syscall>
 801028a:	bd08      	pop	{r3, pc}

0801028c <syscall_sd_init>:
 801028c:	b508      	push	{r3, lr}
 801028e:	2016      	movs	r0, #22
 8010290:	f005 f894 	bl	80153bc <__syscall>
 8010294:	bd08      	pop	{r3, pc}

08010296 <syscall_fs_init>:
 8010296:	b508      	push	{r3, lr}
 8010298:	2017      	movs	r0, #23
 801029a:	f005 f88f 	bl	80153bc <__syscall>
 801029e:	bd08      	pop	{r3, pc}

080102a0 <syscall_attach_media>:
 80102a0:	b508      	push	{r3, lr}
 80102a2:	460a      	mov	r2, r1
 80102a4:	4601      	mov	r1, r0
 80102a6:	2018      	movs	r0, #24
 80102a8:	f005 f888 	bl	80153bc <__syscall>
 80102ac:	bd08      	pop	{r3, pc}

080102ae <syscall_attach_locks>:
 80102ae:	b508      	push	{r3, lr}
 80102b0:	460a      	mov	r2, r1
 80102b2:	4601      	mov	r1, r0
 80102b4:	2019      	movs	r0, #25
 80102b6:	f005 f881 	bl	80153bc <__syscall>
 80102ba:	bd08      	pop	{r3, pc}

080102bc <syscall_fopen>:
 80102bc:	b508      	push	{r3, lr}
 80102be:	460a      	mov	r2, r1
 80102c0:	4601      	mov	r1, r0
 80102c2:	201a      	movs	r0, #26
 80102c4:	f005 f87a 	bl	80153bc <__syscall>
 80102c8:	bd08      	pop	{r3, pc}

080102ca <syscall_fseek>:
 80102ca:	b508      	push	{r3, lr}
 80102cc:	4613      	mov	r3, r2
 80102ce:	460a      	mov	r2, r1
 80102d0:	4601      	mov	r1, r0
 80102d2:	201b      	movs	r0, #27
 80102d4:	f005 f872 	bl	80153bc <__syscall>
 80102d8:	bd08      	pop	{r3, pc}

080102da <syscall_fread>:
 80102da:	b508      	push	{r3, lr}
 80102dc:	460a      	mov	r2, r1
 80102de:	4601      	mov	r1, r0
 80102e0:	201c      	movs	r0, #28
 80102e2:	f005 f86b 	bl	80153bc <__syscall>
 80102e6:	bd08      	pop	{r3, pc}

080102e8 <syscall_fclose>:
 80102e8:	b508      	push	{r3, lr}
 80102ea:	4601      	mov	r1, r0
 80102ec:	201e      	movs	r0, #30
 80102ee:	f005 f865 	bl	80153bc <__syscall>
 80102f2:	bd08      	pop	{r3, pc}

080102f4 <syscall_ftell>:
 80102f4:	b508      	push	{r3, lr}
 80102f6:	4601      	mov	r1, r0
 80102f8:	201f      	movs	r0, #31
 80102fa:	f005 f85f 	bl	80153bc <__syscall>
 80102fe:	bd08      	pop	{r3, pc}

08010300 <syscall_feof>:
 8010300:	b508      	push	{r3, lr}
 8010302:	4601      	mov	r1, r0
 8010304:	2020      	movs	r0, #32
 8010306:	f005 f859 	bl	80153bc <__syscall>
 801030a:	bd08      	pop	{r3, pc}

0801030c <syscall_remove>:
 801030c:	b508      	push	{r3, lr}
 801030e:	4601      	mov	r1, r0
 8010310:	2021      	movs	r0, #33	; 0x21
 8010312:	f005 f853 	bl	80153bc <__syscall>
 8010316:	bd08      	pop	{r3, pc}

08010318 <syscall_opendir>:
 8010318:	b508      	push	{r3, lr}
 801031a:	460a      	mov	r2, r1
 801031c:	4601      	mov	r1, r0
 801031e:	2022      	movs	r0, #34	; 0x22
 8010320:	f005 f84c 	bl	80153bc <__syscall>
 8010324:	bd08      	pop	{r3, pc}

08010326 <syscall_readdir>:
 8010326:	b508      	push	{r3, lr}
 8010328:	460a      	mov	r2, r1
 801032a:	4601      	mov	r1, r0
 801032c:	2023      	movs	r0, #35	; 0x23
 801032e:	f005 f845 	bl	80153bc <__syscall>
 8010332:	bd08      	pop	{r3, pc}

08010334 <syscall_closedir>:
 8010334:	b508      	push	{r3, lr}
 8010336:	4601      	mov	r1, r0
 8010338:	2024      	movs	r0, #36	; 0x24
 801033a:	f005 f83f 	bl	80153bc <__syscall>
 801033e:	bd08      	pop	{r3, pc}

08010340 <syscall_createdirectory>:
 8010340:	b508      	push	{r3, lr}
 8010342:	4601      	mov	r1, r0
 8010344:	2025      	movs	r0, #37	; 0x25
 8010346:	f005 f839 	bl	80153bc <__syscall>
 801034a:	bd08      	pop	{r3, pc}

0801034c <syscall_is_dir>:
 801034c:	b508      	push	{r3, lr}
 801034e:	4601      	mov	r1, r0
 8010350:	2026      	movs	r0, #38	; 0x26
 8010352:	f005 f833 	bl	80153bc <__syscall>
 8010356:	bd08      	pop	{r3, pc}

08010358 <syscall_fflush>:
 8010358:	b508      	push	{r3, lr}
 801035a:	4601      	mov	r1, r0
 801035c:	2027      	movs	r0, #39	; 0x27
 801035e:	f005 f82d 	bl	80153bc <__syscall>
 8010362:	bd08      	pop	{r3, pc}

08010364 <syscall_fgetc>:
 8010364:	b508      	push	{r3, lr}
 8010366:	4601      	mov	r1, r0
 8010368:	2028      	movs	r0, #40	; 0x28
 801036a:	f005 f827 	bl	80153bc <__syscall>
 801036e:	bd08      	pop	{r3, pc}

08010370 <syscall_fgets>:
 8010370:	b508      	push	{r3, lr}
 8010372:	4613      	mov	r3, r2
 8010374:	460a      	mov	r2, r1
 8010376:	4601      	mov	r1, r0
 8010378:	2029      	movs	r0, #41	; 0x29
 801037a:	f005 f81f 	bl	80153bc <__syscall>
 801037e:	bd08      	pop	{r3, pc}

08010380 <syscall_fputc>:
 8010380:	b508      	push	{r3, lr}
 8010382:	460a      	mov	r2, r1
 8010384:	4601      	mov	r1, r0
 8010386:	202a      	movs	r0, #42	; 0x2a
 8010388:	f005 f818 	bl	80153bc <__syscall>
 801038c:	bd08      	pop	{r3, pc}

0801038e <syscall_fputs>:
 801038e:	b508      	push	{r3, lr}
 8010390:	460a      	mov	r2, r1
 8010392:	4601      	mov	r1, r0
 8010394:	202b      	movs	r0, #43	; 0x2b
 8010396:	f005 f811 	bl	80153bc <__syscall>
 801039a:	bd08      	pop	{r3, pc}

0801039c <syscall_fwrite>:
 801039c:	b508      	push	{r3, lr}
 801039e:	460a      	mov	r2, r1
 80103a0:	4601      	mov	r1, r0
 80103a2:	201d      	movs	r0, #29
 80103a4:	f005 f80a 	bl	80153bc <__syscall>
 80103a8:	bd08      	pop	{r3, pc}

080103aa <syscall_fgetpos>:
 80103aa:	b508      	push	{r3, lr}
 80103ac:	460a      	mov	r2, r1
 80103ae:	4601      	mov	r1, r0
 80103b0:	202c      	movs	r0, #44	; 0x2c
 80103b2:	f005 f803 	bl	80153bc <__syscall>
 80103b6:	bd08      	pop	{r3, pc}

080103b8 <svccall_handler_c2>:
 80103b8:	b510      	push	{r4, lr}
 80103ba:	b082      	sub	sp, #8
 80103bc:	4604      	mov	r4, r0
 80103be:	6801      	ldr	r1, [r0, #0]
 80103c0:	292e      	cmp	r1, #46	; 0x2e
 80103c2:	d836      	bhi.n	8010432 <svccall_handler_c2+0x7a>
 80103c4:	2900      	cmp	r1, #0
 80103c6:	f000 8117 	beq.w	80105f8 <svccall_handler_c2+0x240>
 80103ca:	1e4b      	subs	r3, r1, #1
 80103cc:	2b2d      	cmp	r3, #45	; 0x2d
 80103ce:	f200 8113 	bhi.w	80105f8 <svccall_handler_c2+0x240>
 80103d2:	e8df f013 	tbh	[pc, r3, lsl #1]
 80103d6:	0100      	.short	0x0100
 80103d8:	011100fc 	.word	0x011100fc
 80103dc:	01110111 	.word	0x01110111
 80103e0:	00cd0111 	.word	0x00cd0111
 80103e4:	00c900d7 	.word	0x00c900d7
 80103e8:	00dd00f8 	.word	0x00dd00f8
 80103ec:	011100e1 	.word	0x011100e1
 80103f0:	01090104 	.word	0x01090104
 80103f4:	00e6010d 	.word	0x00e6010d
 80103f8:	00f200ec 	.word	0x00f200ec
 80103fc:	00c100c5 	.word	0x00c100c5
 8010400:	00b500b1 	.word	0x00b500b1
 8010404:	00a600ab 	.word	0x00a600ab
 8010408:	003e0037 	.word	0x003e0037
 801040c:	00980045 	.word	0x00980045
 8010410:	0051004d 	.word	0x0051004d
 8010414:	005b0056 	.word	0x005b0056
 8010418:	00660060 	.word	0x00660060
 801041c:	006c0076 	.word	0x006c0076
 8010420:	007b0071 	.word	0x007b0071
 8010424:	00850080 	.word	0x00850080
 8010428:	0092008c 	.word	0x0092008c
 801042c:	00be00a0 	.word	0x00be00a0
 8010430:	00b8      	.short	0x00b8
 8010432:	f5b1 6ffa 	cmp.w	r1, #2000	; 0x7d0
 8010436:	f040 80df 	bne.w	80105f8 <svccall_handler_c2+0x240>
 801043a:	6843      	ldr	r3, [r0, #4]
 801043c:	6882      	ldr	r2, [r0, #8]
 801043e:	4413      	add	r3, r2
 8010440:	6003      	str	r3, [r0, #0]
 8010442:	e004      	b.n	801044e <svccall_handler_c2+0x96>
 8010444:	6881      	ldr	r1, [r0, #8]
 8010446:	6840      	ldr	r0, [r0, #4]
 8010448:	f007 fc4c 	bl	8017ce4 <fl_fopen>
 801044c:	6020      	str	r0, [r4, #0]
 801044e:	b002      	add	sp, #8
 8010450:	bd10      	pop	{r4, pc}
 8010452:	68c2      	ldr	r2, [r0, #12]
 8010454:	6881      	ldr	r1, [r0, #8]
 8010456:	6840      	ldr	r0, [r0, #4]
 8010458:	f007 ff23 	bl	80182a2 <fl_fseek>
 801045c:	6020      	str	r0, [r4, #0]
 801045e:	e7f6      	b.n	801044e <svccall_handler_c2+0x96>
 8010460:	68c3      	ldr	r3, [r0, #12]
 8010462:	2201      	movs	r2, #1
 8010464:	6881      	ldr	r1, [r0, #8]
 8010466:	6840      	ldr	r0, [r0, #4]
 8010468:	f007 fe5c 	bl	8018124 <fl_fread>
 801046c:	6020      	str	r0, [r4, #0]
 801046e:	e7ee      	b.n	801044e <svccall_handler_c2+0x96>
 8010470:	6840      	ldr	r0, [r0, #4]
 8010472:	f007 fe21 	bl	80180b8 <fl_fclose>
 8010476:	e7ea      	b.n	801044e <svccall_handler_c2+0x96>
 8010478:	6840      	ldr	r0, [r0, #4]
 801047a:	f007 ff89 	bl	8018390 <fl_ftell>
 801047e:	6020      	str	r0, [r4, #0]
 8010480:	e7e5      	b.n	801044e <svccall_handler_c2+0x96>
 8010482:	6840      	ldr	r0, [r0, #4]
 8010484:	f007 ff8f 	bl	80183a6 <fl_feof>
 8010488:	6020      	str	r0, [r4, #0]
 801048a:	e7e0      	b.n	801044e <svccall_handler_c2+0x96>
 801048c:	6840      	ldr	r0, [r0, #4]
 801048e:	f008 f884 	bl	801859a <fl_remove>
 8010492:	6020      	str	r0, [r4, #0]
 8010494:	e7db      	b.n	801044e <svccall_handler_c2+0x96>
 8010496:	6881      	ldr	r1, [r0, #8]
 8010498:	6840      	ldr	r0, [r0, #4]
 801049a:	f008 f9af 	bl	80187fc <fl_opendir>
 801049e:	6020      	str	r0, [r4, #0]
 80104a0:	e7d5      	b.n	801044e <svccall_handler_c2+0x96>
 80104a2:	6881      	ldr	r1, [r0, #8]
 80104a4:	6840      	ldr	r0, [r0, #4]
 80104a6:	f008 f9e1 	bl	801886c <fl_readdir>
 80104aa:	6020      	str	r0, [r4, #0]
 80104ac:	e7cf      	b.n	801044e <svccall_handler_c2+0x96>
 80104ae:	6840      	ldr	r0, [r0, #4]
 80104b0:	f008 f8a4 	bl	80185fc <fl_createdirectory>
 80104b4:	6020      	str	r0, [r4, #0]
 80104b6:	e7ca      	b.n	801044e <svccall_handler_c2+0x96>
 80104b8:	6840      	ldr	r0, [r0, #4]
 80104ba:	f008 fa35 	bl	8018928 <fl_is_dir>
 80104be:	6020      	str	r0, [r4, #0]
 80104c0:	e7c5      	b.n	801044e <svccall_handler_c2+0x96>
 80104c2:	6840      	ldr	r0, [r0, #4]
 80104c4:	f008 fa2e 	bl	8018924 <fl_closedir>
 80104c8:	6020      	str	r0, [r4, #0]
 80104ca:	e7c0      	b.n	801044e <svccall_handler_c2+0x96>
 80104cc:	6840      	ldr	r0, [r0, #4]
 80104ce:	f007 fdcb 	bl	8018068 <fl_fflush>
 80104d2:	6020      	str	r0, [r4, #0]
 80104d4:	e7bb      	b.n	801044e <svccall_handler_c2+0x96>
 80104d6:	6840      	ldr	r0, [r0, #4]
 80104d8:	f007 feac 	bl	8018234 <fl_fgetc>
 80104dc:	6020      	str	r0, [r4, #0]
 80104de:	e7b6      	b.n	801044e <svccall_handler_c2+0x96>
 80104e0:	68c2      	ldr	r2, [r0, #12]
 80104e2:	6881      	ldr	r1, [r0, #8]
 80104e4:	6840      	ldr	r0, [r0, #4]
 80104e6:	f007 feb8 	bl	801825a <fl_fgets>
 80104ea:	6020      	str	r0, [r4, #0]
 80104ec:	e7af      	b.n	801044e <svccall_handler_c2+0x96>
 80104ee:	6881      	ldr	r1, [r0, #8]
 80104f0:	6840      	ldr	r0, [r0, #4]
 80104f2:	f008 f835 	bl	8018560 <fl_fputc>
 80104f6:	6020      	str	r0, [r4, #0]
 80104f8:	e7a9      	b.n	801044e <svccall_handler_c2+0x96>
 80104fa:	6881      	ldr	r1, [r0, #8]
 80104fc:	6840      	ldr	r0, [r0, #4]
 80104fe:	f008 f840 	bl	8018582 <fl_fputs>
 8010502:	6020      	str	r0, [r4, #0]
 8010504:	e7a3      	b.n	801044e <svccall_handler_c2+0x96>
 8010506:	68c3      	ldr	r3, [r0, #12]
 8010508:	2201      	movs	r2, #1
 801050a:	6881      	ldr	r1, [r0, #8]
 801050c:	6840      	ldr	r0, [r0, #4]
 801050e:	f007 ff63 	bl	80183d8 <fl_fwrite>
 8010512:	6020      	str	r0, [r4, #0]
 8010514:	e79b      	b.n	801044e <svccall_handler_c2+0x96>
 8010516:	6881      	ldr	r1, [r0, #8]
 8010518:	6840      	ldr	r0, [r0, #4]
 801051a:	f007 ff21 	bl	8018360 <fl_fgetpos>
 801051e:	6020      	str	r0, [r4, #0]
 8010520:	e795      	b.n	801044e <svccall_handler_c2+0x96>
 8010522:	6881      	ldr	r1, [r0, #8]
 8010524:	6840      	ldr	r0, [r0, #4]
 8010526:	f007 fb9d 	bl	8017c64 <fl_attach_locks>
 801052a:	e790      	b.n	801044e <svccall_handler_c2+0x96>
 801052c:	6881      	ldr	r1, [r0, #8]
 801052e:	6840      	ldr	r0, [r0, #4]
 8010530:	f007 fb9e 	bl	8017c70 <fl_attach_media>
 8010534:	6020      	str	r0, [r4, #0]
 8010536:	e78a      	b.n	801044e <svccall_handler_c2+0x96>
 8010538:	f004 fd10 	bl	8014f5c <sd_init>
 801053c:	6020      	str	r0, [r4, #0]
 801053e:	e786      	b.n	801044e <svccall_handler_c2+0x96>
 8010540:	f007 fb74 	bl	8017c2c <fl_init>
 8010544:	e783      	b.n	801044e <svccall_handler_c2+0x96>
 8010546:	6842      	ldr	r2, [r0, #4]
 8010548:	4b2d      	ldr	r3, [pc, #180]	; (8010600 <svccall_handler_c2+0x248>)
 801054a:	eb03 1382 	add.w	r3, r3, r2, lsl #6
 801054e:	6003      	str	r3, [r0, #0]
 8010550:	e77d      	b.n	801044e <svccall_handler_c2+0x96>
 8010552:	230c      	movs	r3, #12
 8010554:	6003      	str	r3, [r0, #0]
 8010556:	e77a      	b.n	801044e <svccall_handler_c2+0x96>
 8010558:	f000 ff1c 	bl	8011394 <getpid>
 801055c:	6020      	str	r0, [r4, #0]
 801055e:	e776      	b.n	801044e <svccall_handler_c2+0x96>
 8010560:	4b28      	ldr	r3, [pc, #160]	; (8010604 <svccall_handler_c2+0x24c>)
 8010562:	681b      	ldr	r3, [r3, #0]
 8010564:	6003      	str	r3, [r0, #0]
 8010566:	e772      	b.n	801044e <svccall_handler_c2+0x96>
 8010568:	6840      	ldr	r0, [r0, #4]
 801056a:	f000 ff19 	bl	80113a0 <ready>
 801056e:	e76e      	b.n	801044e <svccall_handler_c2+0x96>
 8010570:	2300      	movs	r3, #0
 8010572:	9300      	str	r3, [sp, #0]
 8010574:	6903      	ldr	r3, [r0, #16]
 8010576:	68c2      	ldr	r2, [r0, #12]
 8010578:	6881      	ldr	r1, [r0, #8]
 801057a:	6840      	ldr	r0, [r0, #4]
 801057c:	f001 f80e 	bl	801159c <create>
 8010580:	6020      	str	r0, [r4, #0]
 8010582:	e764      	b.n	801044e <svccall_handler_c2+0x96>
 8010584:	6840      	ldr	r0, [r0, #4]
 8010586:	f000 ff3f 	bl	8011408 <kill>
 801058a:	2300      	movs	r3, #0
 801058c:	6023      	str	r3, [r4, #0]
 801058e:	e75e      	b.n	801044e <svccall_handler_c2+0x96>
 8010590:	6840      	ldr	r0, [r0, #4]
 8010592:	f005 fd85 	bl	80160a0 <free>
 8010596:	e75a      	b.n	801044e <svccall_handler_c2+0x96>
 8010598:	6840      	ldr	r0, [r0, #4]
 801059a:	f005 fd35 	bl	8016008 <malloc>
 801059e:	6020      	str	r0, [r4, #0]
 80105a0:	e755      	b.n	801044e <svccall_handler_c2+0x96>
 80105a2:	8982      	ldrh	r2, [r0, #12]
 80105a4:	7a01      	ldrb	r1, [r0, #8]
 80105a6:	6840      	ldr	r0, [r0, #4]
 80105a8:	f001 fd64 	bl	8012074 <hw_cfg_pin>
 80105ac:	e74f      	b.n	801044e <svccall_handler_c2+0x96>
 80105ae:	7b02      	ldrb	r2, [r0, #12]
 80105b0:	7a01      	ldrb	r1, [r0, #8]
 80105b2:	6840      	ldr	r0, [r0, #4]
 80105b4:	f001 fda4 	bl	8012100 <hw_set_pin>
 80105b8:	e749      	b.n	801044e <svccall_handler_c2+0x96>
 80105ba:	7a01      	ldrb	r1, [r0, #8]
 80105bc:	6840      	ldr	r0, [r0, #4]
 80105be:	f001 fdb9 	bl	8012134 <hw_get_pin>
 80105c2:	6020      	str	r0, [r4, #0]
 80105c4:	e743      	b.n	801044e <svccall_handler_c2+0x96>
 80105c6:	6840      	ldr	r0, [r0, #4]
 80105c8:	f000 fef8 	bl	80113bc <sleep>
 80105cc:	e73f      	b.n	801044e <svccall_handler_c2+0x96>
 80105ce:	f000 fe55 	bl	801127c <kgetch>
 80105d2:	6020      	str	r0, [r4, #0]
 80105d4:	e73b      	b.n	801044e <svccall_handler_c2+0x96>
 80105d6:	6840      	ldr	r0, [r0, #4]
 80105d8:	f000 fe2c 	bl	8011234 <kputch>
 80105dc:	e737      	b.n	801044e <svccall_handler_c2+0x96>
 80105de:	210e      	movs	r1, #14
 80105e0:	6840      	ldr	r0, [r0, #4]
 80105e2:	f000 fc37 	bl	8010e54 <sem_init>
 80105e6:	e732      	b.n	801044e <svccall_handler_c2+0x96>
 80105e8:	6840      	ldr	r0, [r0, #4]
 80105ea:	f000 fc59 	bl	8010ea0 <sem_signal>
 80105ee:	e72e      	b.n	801044e <svccall_handler_c2+0x96>
 80105f0:	6840      	ldr	r0, [r0, #4]
 80105f2:	f000 fc38 	bl	8010e66 <sem_wait>
 80105f6:	e72a      	b.n	801044e <svccall_handler_c2+0x96>
 80105f8:	4803      	ldr	r0, [pc, #12]	; (8010608 <svccall_handler_c2+0x250>)
 80105fa:	f000 fc8f 	bl	8010f1c <kprintf>
 80105fe:	e726      	b.n	801044e <svccall_handler_c2+0x96>
 8010600:	20000db4 	.word	0x20000db4
 8010604:	200000a8 	.word	0x200000a8
 8010608:	080191c4 	.word	0x080191c4

0801060c <uartinit>:
 801060c:	b510      	push	{r4, lr}
 801060e:	4b50      	ldr	r3, [pc, #320]	; (8010750 <uartinit+0x144>)
 8010610:	2205      	movs	r2, #5
 8010612:	631a      	str	r2, [r3, #48]	; 0x30
 8010614:	2200      	movs	r2, #0
 8010616:	635a      	str	r2, [r3, #52]	; 0x34
 8010618:	f04f 5280 	mov.w	r2, #268435456	; 0x10000000
 801061c:	641a      	str	r2, [r3, #64]	; 0x40
 801061e:	f44f 5281 	mov.w	r2, #4128	; 0x1020
 8010622:	645a      	str	r2, [r3, #68]	; 0x44
 8010624:	f502 0280 	add.w	r2, r2, #4194304	; 0x400000
 8010628:	f602 52ef 	addw	r2, r2, #3567	; 0xdef
 801062c:	605a      	str	r2, [r3, #4]
 801062e:	4a49      	ldr	r2, [pc, #292]	; (8010754 <uartinit+0x148>)
 8010630:	601a      	str	r2, [r3, #0]
 8010632:	4a49      	ldr	r2, [pc, #292]	; (8010758 <uartinit+0x14c>)
 8010634:	f44f 4101 	mov.w	r1, #33024	; 0x8100
 8010638:	6011      	str	r1, [r2, #0]
 801063a:	f248 1201 	movw	r2, #33025	; 0x8101
 801063e:	671a      	str	r2, [r3, #112]	; 0x70
 8010640:	f5a3 3304 	sub.w	r3, r3, #135168	; 0x21000
 8010644:	22ca      	movs	r2, #202	; 0xca
 8010646:	625a      	str	r2, [r3, #36]	; 0x24
 8010648:	2253      	movs	r2, #83	; 0x53
 801064a:	625a      	str	r2, [r3, #36]	; 0x24
 801064c:	f46f 6280 	mvn.w	r2, #1024	; 0x400
 8010650:	60da      	str	r2, [r3, #12]
 8010652:	68da      	ldr	r2, [r3, #12]
 8010654:	f012 0f40 	tst.w	r2, #64	; 0x40
 8010658:	d0fb      	beq.n	8010652 <uartinit+0x46>
 801065a:	4b40      	ldr	r3, [pc, #256]	; (801075c <uartinit+0x150>)
 801065c:	22ff      	movs	r2, #255	; 0xff
 801065e:	611a      	str	r2, [r3, #16]
 8010660:	f502 02fe 	add.w	r2, r2, #8323072	; 0x7f0000
 8010664:	611a      	str	r2, [r3, #16]
 8010666:	68db      	ldr	r3, [r3, #12]
 8010668:	f013 0f10 	tst.w	r3, #16
 801066c:	d106      	bne.n	801067c <uartinit+0x70>
 801066e:	4b3b      	ldr	r3, [pc, #236]	; (801075c <uartinit+0x150>)
 8010670:	4a3b      	ldr	r2, [pc, #236]	; (8010760 <uartinit+0x154>)
 8010672:	601a      	str	r2, [r3, #0]
 8010674:	f502 12b6 	add.w	r2, r2, #1490944	; 0x16c000
 8010678:	32f0      	adds	r2, #240	; 0xf0
 801067a:	605a      	str	r2, [r3, #4]
 801067c:	4b37      	ldr	r3, [pc, #220]	; (801075c <uartinit+0x150>)
 801067e:	2200      	movs	r2, #0
 8010680:	609a      	str	r2, [r3, #8]
 8010682:	68da      	ldr	r2, [r3, #12]
 8010684:	f012 0f04 	tst.w	r2, #4
 8010688:	d0fb      	beq.n	8010682 <uartinit+0x76>
 801068a:	4b34      	ldr	r3, [pc, #208]	; (801075c <uartinit+0x150>)
 801068c:	f240 72ff 	movw	r2, #2047	; 0x7ff
 8010690:	615a      	str	r2, [r3, #20]
 8010692:	4a34      	ldr	r2, [pc, #208]	; (8010764 <uartinit+0x158>)
 8010694:	609a      	str	r2, [r3, #8]
 8010696:	f06f 0280 	mvn.w	r2, #128	; 0x80
 801069a:	60da      	str	r2, [r3, #12]
 801069c:	22ff      	movs	r2, #255	; 0xff
 801069e:	625a      	str	r2, [r3, #36]	; 0x24
 80106a0:	f503 3305 	add.w	r3, r3, #136192	; 0x21400
 80106a4:	f240 7202 	movw	r2, #1794	; 0x702
 80106a8:	601a      	str	r2, [r3, #0]
 80106aa:	f5a3 6380 	sub.w	r3, r3, #1024	; 0x400
 80106ae:	681a      	ldr	r2, [r3, #0]
 80106b0:	f412 3f00 	tst.w	r2, #131072	; 0x20000
 80106b4:	d0fb      	beq.n	80106ae <uartinit+0xa2>
 80106b6:	4b26      	ldr	r3, [pc, #152]	; (8010750 <uartinit+0x144>)
 80106b8:	681a      	ldr	r2, [r3, #0]
 80106ba:	f012 7f00 	tst.w	r2, #33554432	; 0x2000000
 80106be:	d0fb      	beq.n	80106b8 <uartinit+0xac>
 80106c0:	4b23      	ldr	r3, [pc, #140]	; (8010750 <uartinit+0x144>)
 80106c2:	f241 0202 	movw	r2, #4098	; 0x1002
 80106c6:	609a      	str	r2, [r3, #8]
 80106c8:	461a      	mov	r2, r3
 80106ca:	6893      	ldr	r3, [r2, #8]
 80106cc:	f003 030c 	and.w	r3, r3, #12
 80106d0:	2b08      	cmp	r3, #8
 80106d2:	d1fa      	bne.n	80106ca <uartinit+0xbe>
 80106d4:	2300      	movs	r3, #0
 80106d6:	4a24      	ldr	r2, [pc, #144]	; (8010768 <uartinit+0x15c>)
 80106d8:	6013      	str	r3, [r2, #0]
 80106da:	4a24      	ldr	r2, [pc, #144]	; (801076c <uartinit+0x160>)
 80106dc:	6013      	str	r3, [r2, #0]
 80106de:	2101      	movs	r1, #1
 80106e0:	4823      	ldr	r0, [pc, #140]	; (8010770 <uartinit+0x164>)
 80106e2:	f000 fbb7 	bl	8010e54 <sem_init>
 80106e6:	2101      	movs	r1, #1
 80106e8:	4822      	ldr	r0, [pc, #136]	; (8010774 <uartinit+0x168>)
 80106ea:	f000 fbb3 	bl	8010e54 <sem_init>
 80106ee:	2101      	movs	r1, #1
 80106f0:	4821      	ldr	r0, [pc, #132]	; (8010778 <uartinit+0x16c>)
 80106f2:	f000 fbaf 	bl	8010e54 <sem_init>
 80106f6:	2101      	movs	r1, #1
 80106f8:	4820      	ldr	r0, [pc, #128]	; (801077c <uartinit+0x170>)
 80106fa:	f000 fbab 	bl	8010e54 <sem_init>
 80106fe:	2101      	movs	r1, #1
 8010700:	481f      	ldr	r0, [pc, #124]	; (8010780 <uartinit+0x174>)
 8010702:	f000 fba7 	bl	8010e54 <sem_init>
 8010706:	2101      	movs	r1, #1
 8010708:	481e      	ldr	r0, [pc, #120]	; (8010784 <uartinit+0x178>)
 801070a:	f000 fba3 	bl	8010e54 <sem_init>
 801070e:	4c1e      	ldr	r4, [pc, #120]	; (8010788 <uartinit+0x17c>)
 8010710:	f44f 726a 	mov.w	r2, #936	; 0x3a8
 8010714:	210b      	movs	r1, #11
 8010716:	4620      	mov	r0, r4
 8010718:	f001 fcac 	bl	8012074 <hw_cfg_pin>
 801071c:	f44f 726a 	mov.w	r2, #936	; 0x3a8
 8010720:	210c      	movs	r1, #12
 8010722:	4620      	mov	r0, r4
 8010724:	f001 fca6 	bl	8012074 <hw_cfg_pin>
 8010728:	4b18      	ldr	r3, [pc, #96]	; (801078c <uartinit+0x180>)
 801072a:	68da      	ldr	r2, [r3, #12]
 801072c:	f422 5200 	bic.w	r2, r2, #8192	; 0x2000
 8010730:	60da      	str	r2, [r3, #12]
 8010732:	f44f 7259 	mov.w	r2, #868	; 0x364
 8010736:	609a      	str	r2, [r3, #8]
 8010738:	68da      	ldr	r2, [r3, #12]
 801073a:	f042 022c 	orr.w	r2, r2, #44	; 0x2c
 801073e:	60da      	str	r2, [r3, #12]
 8010740:	68da      	ldr	r2, [r3, #12]
 8010742:	f442 5200 	orr.w	r2, r2, #8192	; 0x2000
 8010746:	60da      	str	r2, [r3, #12]
 8010748:	4b11      	ldr	r3, [pc, #68]	; (8010790 <uartinit+0x184>)
 801074a:	2280      	movs	r2, #128	; 0x80
 801074c:	609a      	str	r2, [r3, #8]
 801074e:	bd10      	pop	{r4, pc}
 8010750:	40023800 	.word	0x40023800
 8010754:	01010000 	.word	0x01010000
 8010758:	40007000 	.word	0x40007000
 801075c:	40002800 	.word	0x40002800
 8010760:	00025034 	.word	0x00025034
 8010764:	00080400 	.word	0x00080400
 8010768:	20000080 	.word	0x20000080
 801076c:	20000084 	.word	0x20000084
 8010770:	20000d80 	.word	0x20000d80
 8010774:	20000d8c 	.word	0x20000d8c
 8010778:	20000d98 	.word	0x20000d98
 801077c:	20000d68 	.word	0x20000d68
 8010780:	20000d74 	.word	0x20000d74
 8010784:	20000d5c 	.word	0x20000d5c
 8010788:	40020000 	.word	0x40020000
 801078c:	40011400 	.word	0x40011400
 8010790:	e000e100 	.word	0xe000e100

08010794 <init_mem>:
 8010794:	b538      	push	{r3, r4, r5, lr}
 8010796:	4812      	ldr	r0, [pc, #72]	; (80107e0 <init_mem+0x4c>)
 8010798:	f000 fbc0 	bl	8010f1c <kprintf>
 801079c:	4811      	ldr	r0, [pc, #68]	; (80107e4 <init_mem+0x50>)
 801079e:	f1c0 5100 	rsb	r1, r0, #536870912	; 0x20000000
 80107a2:	f501 31f2 	add.w	r1, r1, #123904	; 0x1e400
 80107a6:	f005 fc21 	bl	8015fec <malloc_init>
 80107aa:	f005 fca7 	bl	80160fc <malloc_debug>
 80107ae:	f005 fce5 	bl	801617c <testmem>
 80107b2:	4d0d      	ldr	r5, [pc, #52]	; (80107e8 <init_mem+0x54>)
 80107b4:	4c0d      	ldr	r4, [pc, #52]	; (80107ec <init_mem+0x58>)
 80107b6:	1b29      	subs	r1, r5, r4
 80107b8:	480d      	ldr	r0, [pc, #52]	; (80107f0 <init_mem+0x5c>)
 80107ba:	f000 fbaf 	bl	8010f1c <kprintf>
 80107be:	1e6a      	subs	r2, r5, #1
 80107c0:	4621      	mov	r1, r4
 80107c2:	480c      	ldr	r0, [pc, #48]	; (80107f4 <init_mem+0x60>)
 80107c4:	f000 fbaa 	bl	8010f1c <kprintf>
 80107c8:	4d0b      	ldr	r5, [pc, #44]	; (80107f8 <init_mem+0x64>)
 80107ca:	4c0c      	ldr	r4, [pc, #48]	; (80107fc <init_mem+0x68>)
 80107cc:	1b29      	subs	r1, r5, r4
 80107ce:	480c      	ldr	r0, [pc, #48]	; (8010800 <init_mem+0x6c>)
 80107d0:	f000 fba4 	bl	8010f1c <kprintf>
 80107d4:	1e6a      	subs	r2, r5, #1
 80107d6:	4621      	mov	r1, r4
 80107d8:	480a      	ldr	r0, [pc, #40]	; (8010804 <init_mem+0x70>)
 80107da:	f000 fb9f 	bl	8010f1c <kprintf>
 80107de:	bd38      	pop	{r3, r4, r5, pc}
 80107e0:	080191d4 	.word	0x080191d4
 80107e4:	200010d8 	.word	0x200010d8
 80107e8:	08019ae0 	.word	0x08019ae0
 80107ec:	08010194 	.word	0x08010194
 80107f0:	080191e4 	.word	0x080191e4
 80107f4:	08019200 	.word	0x08019200
 80107f8:	200010d5 	.word	0x200010d5
 80107fc:	20000000 	.word	0x20000000
 8010800:	08019220 	.word	0x08019220
 8010804:	08019238 	.word	0x08019238

08010808 <mount_fs>:
 8010808:	b510      	push	{r4, lr}
 801080a:	f5ad 7d34 	sub.w	sp, sp, #720	; 0x2d0
 801080e:	2201      	movs	r2, #1
 8010810:	4915      	ldr	r1, [pc, #84]	; (8010868 <mount_fs+0x60>)
 8010812:	a827      	add	r0, sp, #156	; 0x9c
 8010814:	f002 fc3d 	bl	8013092 <f_mount>
 8010818:	b9d0      	cbnz	r0, 8010850 <mount_fs+0x48>
 801081a:	4814      	ldr	r0, [pc, #80]	; (801086c <mount_fs+0x64>)
 801081c:	f000 fb7e 	bl	8010f1c <kprintf>
 8010820:	4913      	ldr	r1, [pc, #76]	; (8010870 <mount_fs+0x68>)
 8010822:	a801      	add	r0, sp, #4
 8010824:	f004 fea8 	bl	8015578 <strcpy>
 8010828:	a901      	add	r1, sp, #4
 801082a:	a820      	add	r0, sp, #128	; 0x80
 801082c:	f003 f8e9 	bl	8013a02 <f_opendir>
 8010830:	b9a8      	cbnz	r0, 801085e <mount_fs+0x56>
 8010832:	4c10      	ldr	r4, [pc, #64]	; (8010874 <mount_fs+0x6c>)
 8010834:	a91a      	add	r1, sp, #104	; 0x68
 8010836:	a820      	add	r0, sp, #128	; 0x80
 8010838:	f003 f923 	bl	8013a82 <f_readdir>
 801083c:	b960      	cbnz	r0, 8010858 <mount_fs+0x50>
 801083e:	f89d 3071 	ldrb.w	r3, [sp, #113]	; 0x71
 8010842:	b14b      	cbz	r3, 8010858 <mount_fs+0x50>
 8010844:	f10d 0171 	add.w	r1, sp, #113	; 0x71
 8010848:	4620      	mov	r0, r4
 801084a:	f000 fb67 	bl	8010f1c <kprintf>
 801084e:	e7f1      	b.n	8010834 <mount_fs+0x2c>
 8010850:	4601      	mov	r1, r0
 8010852:	4809      	ldr	r0, [pc, #36]	; (8010878 <mount_fs+0x70>)
 8010854:	f000 fb62 	bl	8010f1c <kprintf>
 8010858:	f50d 7d34 	add.w	sp, sp, #720	; 0x2d0
 801085c:	bd10      	pop	{r4, pc}
 801085e:	4807      	ldr	r0, [pc, #28]	; (801087c <mount_fs+0x74>)
 8010860:	f000 fb5c 	bl	8010f1c <kprintf>
 8010864:	e7f8      	b.n	8010858 <mount_fs+0x50>
 8010866:	bf00      	nop
 8010868:	08019aa8 	.word	0x08019aa8
 801086c:	08019270 	.word	0x08019270
 8010870:	08019284 	.word	0x08019284
 8010874:	080193f4 	.word	0x080193f4
 8010878:	08019258 	.word	0x08019258
 801087c:	08019288 	.word	0x08019288

08010880 <is_elf_x>:
 8010880:	6802      	ldr	r2, [r0, #0]
 8010882:	4b06      	ldr	r3, [pc, #24]	; (801089c <is_elf_x+0x1c>)
 8010884:	429a      	cmp	r2, r3
 8010886:	d001      	beq.n	801088c <is_elf_x+0xc>
 8010888:	2000      	movs	r0, #0
 801088a:	4770      	bx	lr
 801088c:	8a00      	ldrh	r0, [r0, #16]
 801088e:	3802      	subs	r0, #2
 8010890:	b280      	uxth	r0, r0
 8010892:	2801      	cmp	r0, #1
 8010894:	bf8c      	ite	hi
 8010896:	2000      	movhi	r0, #0
 8010898:	2001      	movls	r0, #1
 801089a:	4770      	bx	lr
 801089c:	464c457f 	.word	0x464c457f

080108a0 <is_compatible>:
 80108a0:	7903      	ldrb	r3, [r0, #4]
 80108a2:	2b01      	cmp	r3, #1
 80108a4:	d001      	beq.n	80108aa <is_compatible+0xa>
 80108a6:	2000      	movs	r0, #0
 80108a8:	4770      	bx	lr
 80108aa:	6943      	ldr	r3, [r0, #20]
 80108ac:	2b01      	cmp	r3, #1
 80108ae:	d001      	beq.n	80108b4 <is_compatible+0x14>
 80108b0:	2000      	movs	r0, #0
 80108b2:	4770      	bx	lr
 80108b4:	8a40      	ldrh	r0, [r0, #18]
 80108b6:	2828      	cmp	r0, #40	; 0x28
 80108b8:	bf14      	ite	ne
 80108ba:	2000      	movne	r0, #0
 80108bc:	2001      	moveq	r0, #1
 80108be:	4770      	bx	lr

080108c0 <load_elf>:
 80108c0:	e92d 4ff0 	stmdb	sp!, {r4, r5, r6, r7, r8, r9, sl, fp, lr}
 80108c4:	b083      	sub	sp, #12
 80108c6:	4689      	mov	r9, r1
 80108c8:	6806      	ldr	r6, [r0, #0]
 80108ca:	4630      	mov	r0, r6
 80108cc:	f7ff ffd8 	bl	8010880 <is_elf_x>
 80108d0:	2800      	cmp	r0, #0
 80108d2:	f000 8094 	beq.w	80109fe <load_elf+0x13e>
 80108d6:	4630      	mov	r0, r6
 80108d8:	f7ff ffe2 	bl	80108a0 <is_compatible>
 80108dc:	2800      	cmp	r0, #0
 80108de:	f000 8090 	beq.w	8010a02 <load_elf+0x142>
 80108e2:	9601      	str	r6, [sp, #4]
 80108e4:	6a34      	ldr	r4, [r6, #32]
 80108e6:	4434      	add	r4, r6
 80108e8:	8e73      	ldrh	r3, [r6, #50]	; 0x32
 80108ea:	eb03 0383 	add.w	r3, r3, r3, lsl #2
 80108ee:	eb04 03c3 	add.w	r3, r4, r3, lsl #3
 80108f2:	691b      	ldr	r3, [r3, #16]
 80108f4:	18f3      	adds	r3, r6, r3
 80108f6:	9300      	str	r3, [sp, #0]
 80108f8:	8e30      	ldrh	r0, [r6, #48]	; 0x30
 80108fa:	b1f0      	cbz	r0, 801093a <load_elf+0x7a>
 80108fc:	4623      	mov	r3, r4
 80108fe:	2200      	movs	r2, #0
 8010900:	4615      	mov	r5, r2
 8010902:	2701      	movs	r7, #1
 8010904:	e003      	b.n	801090e <load_elf+0x4e>
 8010906:	3201      	adds	r2, #1
 8010908:	3328      	adds	r3, #40	; 0x28
 801090a:	4282      	cmp	r2, r0
 801090c:	d016      	beq.n	801093c <load_elf+0x7c>
 801090e:	6899      	ldr	r1, [r3, #8]
 8010910:	f011 0f02 	tst.w	r1, #2
 8010914:	d0f7      	beq.n	8010906 <load_elf+0x46>
 8010916:	6959      	ldr	r1, [r3, #20]
 8010918:	2900      	cmp	r1, #0
 801091a:	d0f4      	beq.n	8010906 <load_elf+0x46>
 801091c:	f102 0c01 	add.w	ip, r2, #1
 8010920:	4584      	cmp	ip, r0
 8010922:	bfb4      	ite	lt
 8010924:	f8d3 c048 	ldrlt.w	ip, [r3, #72]	; 0x48
 8010928:	46bc      	movge	ip, r7
 801092a:	3901      	subs	r1, #1
 801092c:	4461      	add	r1, ip
 801092e:	f1cc 0c00 	rsb	ip, ip, #0
 8010932:	ea01 010c 	and.w	r1, r1, ip
 8010936:	440d      	add	r5, r1
 8010938:	e7e5      	b.n	8010906 <load_elf+0x46>
 801093a:	2500      	movs	r5, #0
 801093c:	1ce8      	adds	r0, r5, #3
 801093e:	f020 0003 	bic.w	r0, r0, #3
 8010942:	f7ff fc58 	bl	80101f6 <syscall_malloc>
 8010946:	4680      	mov	r8, r0
 8010948:	4683      	mov	fp, r0
 801094a:	b148      	cbz	r0, 8010960 <load_elf+0xa0>
 801094c:	f8c9 8000 	str.w	r8, [r9]
 8010950:	4445      	add	r5, r8
 8010952:	f8c9 5004 	str.w	r5, [r9, #4]
 8010956:	8e33      	ldrh	r3, [r6, #48]	; 0x30
 8010958:	2b00      	cmp	r3, #0
 801095a:	d044      	beq.n	80109e6 <load_elf+0x126>
 801095c:	2500      	movs	r5, #0
 801095e:	e023      	b.n	80109a8 <load_elf+0xe8>
 8010960:	4829      	ldr	r0, [pc, #164]	; (8010a08 <load_elf+0x148>)
 8010962:	f7ff fc17 	bl	8010194 <panic>
 8010966:	e7f1      	b.n	801094c <load_elf+0x8c>
 8010968:	6921      	ldr	r1, [r4, #16]
 801096a:	9b01      	ldr	r3, [sp, #4]
 801096c:	4419      	add	r1, r3
 801096e:	4653      	mov	r3, sl
 8010970:	6962      	ldr	r2, [r4, #20]
 8010972:	4452      	add	r2, sl
 8010974:	4592      	cmp	sl, r2
 8010976:	d212      	bcs.n	801099e <load_elf+0xde>
 8010978:	eba1 010a 	sub.w	r1, r1, sl
 801097c:	585a      	ldr	r2, [r3, r1]
 801097e:	4618      	mov	r0, r3
 8010980:	3304      	adds	r3, #4
 8010982:	445a      	add	r2, fp
 8010984:	6002      	str	r2, [r0, #0]
 8010986:	697a      	ldr	r2, [r7, #20]
 8010988:	4452      	add	r2, sl
 801098a:	4293      	cmp	r3, r2
 801098c:	d3f6      	bcc.n	801097c <load_elf+0xbc>
 801098e:	e006      	b.n	801099e <load_elf+0xde>
 8010990:	6921      	ldr	r1, [r4, #16]
 8010992:	6962      	ldr	r2, [r4, #20]
 8010994:	9b01      	ldr	r3, [sp, #4]
 8010996:	4419      	add	r1, r3
 8010998:	4650      	mov	r0, sl
 801099a:	f004 fdb4 	bl	8015506 <memcpy>
 801099e:	3501      	adds	r5, #1
 80109a0:	3428      	adds	r4, #40	; 0x28
 80109a2:	8e33      	ldrh	r3, [r6, #48]	; 0x30
 80109a4:	42ab      	cmp	r3, r5
 80109a6:	dd1e      	ble.n	80109e6 <load_elf+0x126>
 80109a8:	4627      	mov	r7, r4
 80109aa:	68a3      	ldr	r3, [r4, #8]
 80109ac:	f013 0f02 	tst.w	r3, #2
 80109b0:	d0f5      	beq.n	801099e <load_elf+0xde>
 80109b2:	6963      	ldr	r3, [r4, #20]
 80109b4:	2b00      	cmp	r3, #0
 80109b6:	d0f2      	beq.n	801099e <load_elf+0xde>
 80109b8:	68e3      	ldr	r3, [r4, #12]
 80109ba:	eb0b 0a03 	add.w	sl, fp, r3
 80109be:	6820      	ldr	r0, [r4, #0]
 80109c0:	2204      	movs	r2, #4
 80109c2:	4912      	ldr	r1, [pc, #72]	; (8010a0c <load_elf+0x14c>)
 80109c4:	9b00      	ldr	r3, [sp, #0]
 80109c6:	4418      	add	r0, r3
 80109c8:	f004 fd86 	bl	80154d8 <memcmp>
 80109cc:	2800      	cmp	r0, #0
 80109ce:	d0cb      	beq.n	8010968 <load_elf+0xa8>
 80109d0:	6863      	ldr	r3, [r4, #4]
 80109d2:	2b01      	cmp	r3, #1
 80109d4:	d0dc      	beq.n	8010990 <load_elf+0xd0>
 80109d6:	2b08      	cmp	r3, #8
 80109d8:	d1e1      	bne.n	801099e <load_elf+0xde>
 80109da:	6962      	ldr	r2, [r4, #20]
 80109dc:	2100      	movs	r1, #0
 80109de:	4650      	mov	r0, sl
 80109e0:	f004 fda0 	bl	8015524 <memset>
 80109e4:	e7db      	b.n	801099e <load_elf+0xde>
 80109e6:	69b0      	ldr	r0, [r6, #24]
 80109e8:	f8c9 000c 	str.w	r0, [r9, #12]
 80109ec:	4440      	add	r0, r8
 80109ee:	f040 0001 	orr.w	r0, r0, #1
 80109f2:	f8c9 0008 	str.w	r0, [r9, #8]
 80109f6:	2000      	movs	r0, #0
 80109f8:	b003      	add	sp, #12
 80109fa:	e8bd 8ff0 	ldmia.w	sp!, {r4, r5, r6, r7, r8, r9, sl, fp, pc}
 80109fe:	2001      	movs	r0, #1
 8010a00:	e7fa      	b.n	80109f8 <load_elf+0x138>
 8010a02:	2002      	movs	r0, #2
 8010a04:	e7f8      	b.n	80109f8 <load_elf+0x138>
 8010a06:	bf00      	nop
 8010a08:	08019294 	.word	0x08019294
 8010a0c:	080192ac 	.word	0x080192ac

08010a10 <load_elf2>:
 8010a10:	e92d 4ff0 	stmdb	sp!, {r4, r5, r6, r7, r8, r9, sl, fp, lr}
 8010a14:	b083      	sub	sp, #12
 8010a16:	4606      	mov	r6, r0
 8010a18:	9100      	str	r1, [sp, #0]
 8010a1a:	f7ff ff31 	bl	8010880 <is_elf_x>
 8010a1e:	2800      	cmp	r0, #0
 8010a20:	f000 8099 	beq.w	8010b56 <load_elf2+0x146>
 8010a24:	4630      	mov	r0, r6
 8010a26:	f7ff ff3b 	bl	80108a0 <is_compatible>
 8010a2a:	2800      	cmp	r0, #0
 8010a2c:	f000 8095 	beq.w	8010b5a <load_elf2+0x14a>
 8010a30:	9601      	str	r6, [sp, #4]
 8010a32:	6a34      	ldr	r4, [r6, #32]
 8010a34:	4434      	add	r4, r6
 8010a36:	8e73      	ldrh	r3, [r6, #50]	; 0x32
 8010a38:	eb03 0383 	add.w	r3, r3, r3, lsl #2
 8010a3c:	eb04 03c3 	add.w	r3, r4, r3, lsl #3
 8010a40:	691b      	ldr	r3, [r3, #16]
 8010a42:	eb06 0b03 	add.w	fp, r6, r3
 8010a46:	8e30      	ldrh	r0, [r6, #48]	; 0x30
 8010a48:	b1d0      	cbz	r0, 8010a80 <load_elf2+0x70>
 8010a4a:	4623      	mov	r3, r4
 8010a4c:	2200      	movs	r2, #0
 8010a4e:	4692      	mov	sl, r2
 8010a50:	2501      	movs	r5, #1
 8010a52:	e003      	b.n	8010a5c <load_elf2+0x4c>
 8010a54:	3201      	adds	r2, #1
 8010a56:	3328      	adds	r3, #40	; 0x28
 8010a58:	4282      	cmp	r2, r0
 8010a5a:	d013      	beq.n	8010a84 <load_elf2+0x74>
 8010a5c:	6899      	ldr	r1, [r3, #8]
 8010a5e:	f011 0f02 	tst.w	r1, #2
 8010a62:	d0f7      	beq.n	8010a54 <load_elf2+0x44>
 8010a64:	6959      	ldr	r1, [r3, #20]
 8010a66:	2900      	cmp	r1, #0
 8010a68:	d0f4      	beq.n	8010a54 <load_elf2+0x44>
 8010a6a:	1c57      	adds	r7, r2, #1
 8010a6c:	4287      	cmp	r7, r0
 8010a6e:	bfb4      	ite	lt
 8010a70:	6c9f      	ldrlt	r7, [r3, #72]	; 0x48
 8010a72:	462f      	movge	r7, r5
 8010a74:	3901      	subs	r1, #1
 8010a76:	4439      	add	r1, r7
 8010a78:	427f      	negs	r7, r7
 8010a7a:	4039      	ands	r1, r7
 8010a7c:	448a      	add	sl, r1
 8010a7e:	e7e9      	b.n	8010a54 <load_elf2+0x44>
 8010a80:	f04f 0a00 	mov.w	sl, #0
 8010a84:	f10a 0003 	add.w	r0, sl, #3
 8010a88:	f020 0003 	bic.w	r0, r0, #3
 8010a8c:	f7ff fbb3 	bl	80101f6 <syscall_malloc>
 8010a90:	4681      	mov	r9, r0
 8010a92:	b120      	cbz	r0, 8010a9e <load_elf2+0x8e>
 8010a94:	8e33      	ldrh	r3, [r6, #48]	; 0x30
 8010a96:	2b00      	cmp	r3, #0
 8010a98:	d041      	beq.n	8010b1e <load_elf2+0x10e>
 8010a9a:	2500      	movs	r5, #0
 8010a9c:	e022      	b.n	8010ae4 <load_elf2+0xd4>
 8010a9e:	4830      	ldr	r0, [pc, #192]	; (8010b60 <load_elf2+0x150>)
 8010aa0:	f7ff fb78 	bl	8010194 <panic>
 8010aa4:	e7f6      	b.n	8010a94 <load_elf2+0x84>
 8010aa6:	4639      	mov	r1, r7
 8010aa8:	6922      	ldr	r2, [r4, #16]
 8010aaa:	9b01      	ldr	r3, [sp, #4]
 8010aac:	441a      	add	r2, r3
 8010aae:	6963      	ldr	r3, [r4, #20]
 8010ab0:	443b      	add	r3, r7
 8010ab2:	429f      	cmp	r7, r3
 8010ab4:	d211      	bcs.n	8010ada <load_elf2+0xca>
 8010ab6:	1bd2      	subs	r2, r2, r7
 8010ab8:	58bb      	ldr	r3, [r7, r2]
 8010aba:	444b      	add	r3, r9
 8010abc:	f847 3b04 	str.w	r3, [r7], #4
 8010ac0:	f8d8 3014 	ldr.w	r3, [r8, #20]
 8010ac4:	440b      	add	r3, r1
 8010ac6:	429f      	cmp	r7, r3
 8010ac8:	d3f6      	bcc.n	8010ab8 <load_elf2+0xa8>
 8010aca:	e006      	b.n	8010ada <load_elf2+0xca>
 8010acc:	6921      	ldr	r1, [r4, #16]
 8010ace:	6962      	ldr	r2, [r4, #20]
 8010ad0:	9b01      	ldr	r3, [sp, #4]
 8010ad2:	4419      	add	r1, r3
 8010ad4:	4638      	mov	r0, r7
 8010ad6:	f004 fd16 	bl	8015506 <memcpy>
 8010ada:	3501      	adds	r5, #1
 8010adc:	3428      	adds	r4, #40	; 0x28
 8010ade:	8e33      	ldrh	r3, [r6, #48]	; 0x30
 8010ae0:	42ab      	cmp	r3, r5
 8010ae2:	dd1c      	ble.n	8010b1e <load_elf2+0x10e>
 8010ae4:	46a0      	mov	r8, r4
 8010ae6:	68a3      	ldr	r3, [r4, #8]
 8010ae8:	f013 0f02 	tst.w	r3, #2
 8010aec:	d0f5      	beq.n	8010ada <load_elf2+0xca>
 8010aee:	6963      	ldr	r3, [r4, #20]
 8010af0:	2b00      	cmp	r3, #0
 8010af2:	d0f2      	beq.n	8010ada <load_elf2+0xca>
 8010af4:	68e7      	ldr	r7, [r4, #12]
 8010af6:	444f      	add	r7, r9
 8010af8:	6820      	ldr	r0, [r4, #0]
 8010afa:	2204      	movs	r2, #4
 8010afc:	4919      	ldr	r1, [pc, #100]	; (8010b64 <load_elf2+0x154>)
 8010afe:	4458      	add	r0, fp
 8010b00:	f004 fcea 	bl	80154d8 <memcmp>
 8010b04:	2800      	cmp	r0, #0
 8010b06:	d0ce      	beq.n	8010aa6 <load_elf2+0x96>
 8010b08:	6863      	ldr	r3, [r4, #4]
 8010b0a:	2b01      	cmp	r3, #1
 8010b0c:	d0de      	beq.n	8010acc <load_elf2+0xbc>
 8010b0e:	2b08      	cmp	r3, #8
 8010b10:	d1e3      	bne.n	8010ada <load_elf2+0xca>
 8010b12:	6962      	ldr	r2, [r4, #20]
 8010b14:	2100      	movs	r1, #0
 8010b16:	4638      	mov	r0, r7
 8010b18:	f004 fd04 	bl	8015524 <memset>
 8010b1c:	e7dd      	b.n	8010ada <load_elf2+0xca>
 8010b1e:	4912      	ldr	r1, [pc, #72]	; (8010b68 <load_elf2+0x158>)
 8010b20:	9800      	ldr	r0, [sp, #0]
 8010b22:	f7ff fbcb 	bl	80102bc <syscall_fopen>
 8010b26:	4604      	mov	r4, r0
 8010b28:	b178      	cbz	r0, 8010b4a <load_elf2+0x13a>
 8010b2a:	4603      	mov	r3, r0
 8010b2c:	2201      	movs	r2, #1
 8010b2e:	4651      	mov	r1, sl
 8010b30:	4648      	mov	r0, r9
 8010b32:	f7ff fc33 	bl	801039c <syscall_fwrite>
 8010b36:	4620      	mov	r0, r4
 8010b38:	f7ff fbd6 	bl	80102e8 <syscall_fclose>
 8010b3c:	4648      	mov	r0, r9
 8010b3e:	f7ff fb60 	bl	8010202 <syscall_free>
 8010b42:	2000      	movs	r0, #0
 8010b44:	b003      	add	sp, #12
 8010b46:	e8bd 8ff0 	ldmia.w	sp!, {r4, r5, r6, r7, r8, r9, sl, fp, pc}
 8010b4a:	4808      	ldr	r0, [pc, #32]	; (8010b6c <load_elf2+0x15c>)
 8010b4c:	f7ff fb22 	bl	8010194 <panic>
 8010b50:	f04f 30ff 	mov.w	r0, #4294967295	; 0xffffffff
 8010b54:	e7f6      	b.n	8010b44 <load_elf2+0x134>
 8010b56:	2001      	movs	r0, #1
 8010b58:	e7f4      	b.n	8010b44 <load_elf2+0x134>
 8010b5a:	2002      	movs	r0, #2
 8010b5c:	e7f2      	b.n	8010b44 <load_elf2+0x134>
 8010b5e:	bf00      	nop
 8010b60:	08019294 	.word	0x08019294
 8010b64:	080192ac 	.word	0x080192ac
 8010b68:	080192b4 	.word	0x080192b4
 8010b6c:	080192b8 	.word	0x080192b8

08010b70 <nullprocess>:
 8010b70:	e7fe      	b.n	8010b70 <nullprocess>

08010b72 <listdirectory>:
 8010b72:	b530      	push	{r4, r5, lr}
 8010b74:	b097      	sub	sp, #92	; 0x5c
 8010b76:	4604      	mov	r4, r0
 8010b78:	4601      	mov	r1, r0
 8010b7a:	4811      	ldr	r0, [pc, #68]	; (8010bc0 <listdirectory+0x4e>)
 8010b7c:	f000 f9e0 	bl	8010f40 <printf>
 8010b80:	a913      	add	r1, sp, #76	; 0x4c
 8010b82:	4620      	mov	r0, r4
 8010b84:	f7ff fbc8 	bl	8010318 <syscall_opendir>
 8010b88:	b1c0      	cbz	r0, 8010bbc <listdirectory+0x4a>
 8010b8a:	4d0e      	ldr	r5, [pc, #56]	; (8010bc4 <listdirectory+0x52>)
 8010b8c:	4c0e      	ldr	r4, [pc, #56]	; (8010bc8 <listdirectory+0x56>)
 8010b8e:	e004      	b.n	8010b9a <listdirectory+0x28>
 8010b90:	9a12      	ldr	r2, [sp, #72]	; 0x48
 8010b92:	4669      	mov	r1, sp
 8010b94:	4628      	mov	r0, r5
 8010b96:	f000 f9d3 	bl	8010f40 <printf>
 8010b9a:	4669      	mov	r1, sp
 8010b9c:	a813      	add	r0, sp, #76	; 0x4c
 8010b9e:	f7ff fbc2 	bl	8010326 <syscall_readdir>
 8010ba2:	b940      	cbnz	r0, 8010bb6 <listdirectory+0x44>
 8010ba4:	f89d 3040 	ldrb.w	r3, [sp, #64]	; 0x40
 8010ba8:	2b00      	cmp	r3, #0
 8010baa:	d0f1      	beq.n	8010b90 <listdirectory+0x1e>
 8010bac:	4669      	mov	r1, sp
 8010bae:	4620      	mov	r0, r4
 8010bb0:	f000 f9c6 	bl	8010f40 <printf>
 8010bb4:	e7f1      	b.n	8010b9a <listdirectory+0x28>
 8010bb6:	a813      	add	r0, sp, #76	; 0x4c
 8010bb8:	f7ff fbbc 	bl	8010334 <syscall_closedir>
 8010bbc:	b017      	add	sp, #92	; 0x5c
 8010bbe:	bd30      	pop	{r4, r5, pc}
 8010bc0:	080192cc 	.word	0x080192cc
 8010bc4:	080192ec 	.word	0x080192ec
 8010bc8:	080192e0 	.word	0x080192e0

08010bcc <starting>:
 8010bcc:	b500      	push	{lr}
 8010bce:	b083      	sub	sp, #12
 8010bd0:	f7ff fb5c 	bl	801028c <syscall_sd_init>
 8010bd4:	2800      	cmp	r0, #0
 8010bd6:	db1d      	blt.n	8010c14 <starting+0x48>
 8010bd8:	f7ff fb5d 	bl	8010296 <syscall_fs_init>
 8010bdc:	4911      	ldr	r1, [pc, #68]	; (8010c24 <starting+0x58>)
 8010bde:	4812      	ldr	r0, [pc, #72]	; (8010c28 <starting+0x5c>)
 8010be0:	f7ff fb5e 	bl	80102a0 <syscall_attach_media>
 8010be4:	b9d0      	cbnz	r0, 8010c1c <starting+0x50>
 8010be6:	4811      	ldr	r0, [pc, #68]	; (8010c2c <starting+0x60>)
 8010be8:	f7ff ffc3 	bl	8010b72 <listdirectory>
 8010bec:	4810      	ldr	r0, [pc, #64]	; (8010c30 <starting+0x64>)
 8010bee:	f000 f9a7 	bl	8010f40 <printf>
 8010bf2:	2200      	movs	r2, #0
 8010bf4:	9200      	str	r2, [sp, #0]
 8010bf6:	4b0f      	ldr	r3, [pc, #60]	; (8010c34 <starting+0x68>)
 8010bf8:	f44f 51c0 	mov.w	r1, #6144	; 0x1800
 8010bfc:	480e      	ldr	r0, [pc, #56]	; (8010c38 <starting+0x6c>)
 8010bfe:	f000 fccd 	bl	801159c <create>
 8010c02:	f000 fbcd 	bl	80113a0 <ready>
 8010c06:	490d      	ldr	r1, [pc, #52]	; (8010c3c <starting+0x70>)
 8010c08:	480d      	ldr	r0, [pc, #52]	; (8010c40 <starting+0x74>)
 8010c0a:	f000 f999 	bl	8010f40 <printf>
 8010c0e:	b003      	add	sp, #12
 8010c10:	f85d fb04 	ldr.w	pc, [sp], #4
 8010c14:	480b      	ldr	r0, [pc, #44]	; (8010c44 <starting+0x78>)
 8010c16:	f000 f993 	bl	8010f40 <printf>
 8010c1a:	e7f8      	b.n	8010c0e <starting+0x42>
 8010c1c:	480a      	ldr	r0, [pc, #40]	; (8010c48 <starting+0x7c>)
 8010c1e:	f000 f98f 	bl	8010f40 <printf>
 8010c22:	e7f4      	b.n	8010c0e <starting+0x42>
 8010c24:	08015169 	.word	0x08015169
 8010c28:	080150e1 	.word	0x080150e1
 8010c2c:	08019284 	.word	0x08019284
 8010c30:	0801933c 	.word	0x0801933c
 8010c34:	08019350 	.word	0x08019350
 8010c38:	08011ca5 	.word	0x08011ca5
 8010c3c:	08020000 	.word	0x08020000
 8010c40:	08019358 	.word	0x08019358
 8010c44:	080192fc 	.word	0x080192fc
 8010c48:	08019318 	.word	0x08019318

08010c4c <nulluser>:
 8010c4c:	b570      	push	{r4, r5, r6, lr}
 8010c4e:	b082      	sub	sp, #8
 8010c50:	4b53      	ldr	r3, [pc, #332]	; (8010da0 <nulluser+0x154>)
 8010c52:	2205      	movs	r2, #5
 8010c54:	631a      	str	r2, [r3, #48]	; 0x30
 8010c56:	2200      	movs	r2, #0
 8010c58:	635a      	str	r2, [r3, #52]	; 0x34
 8010c5a:	f04f 5280 	mov.w	r2, #268435456	; 0x10000000
 8010c5e:	641a      	str	r2, [r3, #64]	; 0x40
 8010c60:	f44f 5281 	mov.w	r2, #4128	; 0x1020
 8010c64:	645a      	str	r2, [r3, #68]	; 0x44
 8010c66:	f502 0280 	add.w	r2, r2, #4194304	; 0x400000
 8010c6a:	f602 52ef 	addw	r2, r2, #3567	; 0xdef
 8010c6e:	605a      	str	r2, [r3, #4]
 8010c70:	4a4c      	ldr	r2, [pc, #304]	; (8010da4 <nulluser+0x158>)
 8010c72:	601a      	str	r2, [r3, #0]
 8010c74:	4a4c      	ldr	r2, [pc, #304]	; (8010da8 <nulluser+0x15c>)
 8010c76:	f44f 4101 	mov.w	r1, #33024	; 0x8100
 8010c7a:	6011      	str	r1, [r2, #0]
 8010c7c:	f248 1201 	movw	r2, #33025	; 0x8101
 8010c80:	671a      	str	r2, [r3, #112]	; 0x70
 8010c82:	f5a3 3304 	sub.w	r3, r3, #135168	; 0x21000
 8010c86:	22ca      	movs	r2, #202	; 0xca
 8010c88:	625a      	str	r2, [r3, #36]	; 0x24
 8010c8a:	2253      	movs	r2, #83	; 0x53
 8010c8c:	625a      	str	r2, [r3, #36]	; 0x24
 8010c8e:	f46f 6280 	mvn.w	r2, #1024	; 0x400
 8010c92:	60da      	str	r2, [r3, #12]
 8010c94:	68da      	ldr	r2, [r3, #12]
 8010c96:	f012 0f40 	tst.w	r2, #64	; 0x40
 8010c9a:	d0fb      	beq.n	8010c94 <nulluser+0x48>
 8010c9c:	4b43      	ldr	r3, [pc, #268]	; (8010dac <nulluser+0x160>)
 8010c9e:	22ff      	movs	r2, #255	; 0xff
 8010ca0:	611a      	str	r2, [r3, #16]
 8010ca2:	f502 02fe 	add.w	r2, r2, #8323072	; 0x7f0000
 8010ca6:	611a      	str	r2, [r3, #16]
 8010ca8:	68db      	ldr	r3, [r3, #12]
 8010caa:	f013 0f10 	tst.w	r3, #16
 8010cae:	d106      	bne.n	8010cbe <nulluser+0x72>
 8010cb0:	4b3e      	ldr	r3, [pc, #248]	; (8010dac <nulluser+0x160>)
 8010cb2:	4a3f      	ldr	r2, [pc, #252]	; (8010db0 <nulluser+0x164>)
 8010cb4:	601a      	str	r2, [r3, #0]
 8010cb6:	f502 12b6 	add.w	r2, r2, #1490944	; 0x16c000
 8010cba:	32f0      	adds	r2, #240	; 0xf0
 8010cbc:	605a      	str	r2, [r3, #4]
 8010cbe:	4b3b      	ldr	r3, [pc, #236]	; (8010dac <nulluser+0x160>)
 8010cc0:	2200      	movs	r2, #0
 8010cc2:	609a      	str	r2, [r3, #8]
 8010cc4:	68da      	ldr	r2, [r3, #12]
 8010cc6:	f012 0f04 	tst.w	r2, #4
 8010cca:	d0fb      	beq.n	8010cc4 <nulluser+0x78>
 8010ccc:	4b37      	ldr	r3, [pc, #220]	; (8010dac <nulluser+0x160>)
 8010cce:	f240 72ff 	movw	r2, #2047	; 0x7ff
 8010cd2:	615a      	str	r2, [r3, #20]
 8010cd4:	4a37      	ldr	r2, [pc, #220]	; (8010db4 <nulluser+0x168>)
 8010cd6:	609a      	str	r2, [r3, #8]
 8010cd8:	f06f 0280 	mvn.w	r2, #128	; 0x80
 8010cdc:	60da      	str	r2, [r3, #12]
 8010cde:	22ff      	movs	r2, #255	; 0xff
 8010ce0:	625a      	str	r2, [r3, #36]	; 0x24
 8010ce2:	f503 3305 	add.w	r3, r3, #136192	; 0x21400
 8010ce6:	f240 7202 	movw	r2, #1794	; 0x702
 8010cea:	601a      	str	r2, [r3, #0]
 8010cec:	f5a3 6380 	sub.w	r3, r3, #1024	; 0x400
 8010cf0:	681a      	ldr	r2, [r3, #0]
 8010cf2:	f412 3f00 	tst.w	r2, #131072	; 0x20000
 8010cf6:	d0fb      	beq.n	8010cf0 <nulluser+0xa4>
 8010cf8:	4b29      	ldr	r3, [pc, #164]	; (8010da0 <nulluser+0x154>)
 8010cfa:	681a      	ldr	r2, [r3, #0]
 8010cfc:	f012 7f00 	tst.w	r2, #33554432	; 0x2000000
 8010d00:	d0fb      	beq.n	8010cfa <nulluser+0xae>
 8010d02:	4b27      	ldr	r3, [pc, #156]	; (8010da0 <nulluser+0x154>)
 8010d04:	f241 0202 	movw	r2, #4098	; 0x1002
 8010d08:	609a      	str	r2, [r3, #8]
 8010d0a:	461a      	mov	r2, r3
 8010d0c:	6893      	ldr	r3, [r2, #8]
 8010d0e:	f003 030c 	and.w	r3, r3, #12
 8010d12:	2b08      	cmp	r3, #8
 8010d14:	d1fa      	bne.n	8010d0c <nulluser+0xc0>
 8010d16:	f7ff fc79 	bl	801060c <uartinit>
 8010d1a:	f7ff fd3b 	bl	8010794 <init_mem>
 8010d1e:	2300      	movs	r3, #0
 8010d20:	4a25      	ldr	r2, [pc, #148]	; (8010db8 <nulluser+0x16c>)
 8010d22:	6013      	str	r3, [r2, #0]
 8010d24:	4a25      	ldr	r2, [pc, #148]	; (8010dbc <nulluser+0x170>)
 8010d26:	6013      	str	r3, [r2, #0]
 8010d28:	4b25      	ldr	r3, [pc, #148]	; (8010dc0 <nulluser+0x174>)
 8010d2a:	f503 7140 	add.w	r1, r3, #768	; 0x300
 8010d2e:	2200      	movs	r2, #0
 8010d30:	779a      	strb	r2, [r3, #30]
 8010d32:	f883 2034 	strb.w	r2, [r3, #52]	; 0x34
 8010d36:	639a      	str	r2, [r3, #56]	; 0x38
 8010d38:	3340      	adds	r3, #64	; 0x40
 8010d3a:	428b      	cmp	r3, r1
 8010d3c:	d1f8      	bne.n	8010d30 <nulluser+0xe4>
 8010d3e:	2501      	movs	r5, #1
 8010d40:	4b20      	ldr	r3, [pc, #128]	; (8010dc4 <nulluser+0x178>)
 8010d42:	701d      	strb	r5, [r3, #0]
 8010d44:	2400      	movs	r4, #0
 8010d46:	4b20      	ldr	r3, [pc, #128]	; (8010dc8 <nulluser+0x17c>)
 8010d48:	701c      	strb	r4, [r3, #0]
 8010d4a:	4820      	ldr	r0, [pc, #128]	; (8010dcc <nulluser+0x180>)
 8010d4c:	f000 f84a 	bl	8010de4 <queue_init>
 8010d50:	481f      	ldr	r0, [pc, #124]	; (8010dd0 <nulluser+0x184>)
 8010d52:	f000 f847 	bl	8010de4 <queue_init>
 8010d56:	4e1f      	ldr	r6, [pc, #124]	; (8010dd4 <nulluser+0x188>)
 8010d58:	9400      	str	r4, [sp, #0]
 8010d5a:	4633      	mov	r3, r6
 8010d5c:	462a      	mov	r2, r5
 8010d5e:	f44f 6100 	mov.w	r1, #2048	; 0x800
 8010d62:	481d      	ldr	r0, [pc, #116]	; (8010dd8 <nulluser+0x18c>)
 8010d64:	f000 fc1a 	bl	801159c <create>
 8010d68:	f000 fb1a 	bl	80113a0 <ready>
 8010d6c:	9400      	str	r4, [sp, #0]
 8010d6e:	4633      	mov	r3, r6
 8010d70:	462a      	mov	r2, r5
 8010d72:	f44f 51c0 	mov.w	r1, #6144	; 0x1800
 8010d76:	4819      	ldr	r0, [pc, #100]	; (8010ddc <nulluser+0x190>)
 8010d78:	f000 fc10 	bl	801159c <create>
 8010d7c:	f000 fb10 	bl	80113a0 <ready>
 8010d80:	f004 fb18 	bl	80153b4 <enable>
 8010d84:	4b16      	ldr	r3, [pc, #88]	; (8010de0 <nulluser+0x194>)
 8010d86:	681a      	ldr	r2, [r3, #0]
 8010d88:	601a      	str	r2, [r3, #0]
 8010d8a:	681a      	ldr	r2, [r3, #0]
 8010d8c:	f042 0202 	orr.w	r2, r2, #2
 8010d90:	601a      	str	r2, [r3, #0]
 8010d92:	2232      	movs	r2, #50	; 0x32
 8010d94:	605a      	str	r2, [r3, #4]
 8010d96:	609c      	str	r4, [r3, #8]
 8010d98:	681a      	ldr	r2, [r3, #0]
 8010d9a:	432a      	orrs	r2, r5
 8010d9c:	601a      	str	r2, [r3, #0]
 8010d9e:	e7fe      	b.n	8010d9e <nulluser+0x152>
 8010da0:	40023800 	.word	0x40023800
 8010da4:	01010000 	.word	0x01010000
 8010da8:	40007000 	.word	0x40007000
 8010dac:	40002800 	.word	0x40002800
 8010db0:	00025034 	.word	0x00025034
 8010db4:	00080400 	.word	0x00080400
 8010db8:	20000da4 	.word	0x20000da4
 8010dbc:	2000007c 	.word	0x2000007c
 8010dc0:	20000db4 	.word	0x20000db4
 8010dc4:	20000db0 	.word	0x20000db0
 8010dc8:	200010bc 	.word	0x200010bc
 8010dcc:	20000da8 	.word	0x20000da8
 8010dd0:	200010b4 	.word	0x200010b4
 8010dd4:	08019368 	.word	0x08019368
 8010dd8:	08010b71 	.word	0x08010b71
 8010ddc:	08010bcd 	.word	0x08010bcd
 8010de0:	e000e010 	.word	0xe000e010

08010de4 <queue_init>:
 8010de4:	2300      	movs	r3, #0
 8010de6:	6003      	str	r3, [r0, #0]
 8010de8:	6043      	str	r3, [r0, #4]
 8010dea:	4770      	bx	lr

08010dec <queue_push>:
 8010dec:	6803      	ldr	r3, [r0, #0]
 8010dee:	b12b      	cbz	r3, 8010dfc <queue_push+0x10>
 8010df0:	2300      	movs	r3, #0
 8010df2:	63cb      	str	r3, [r1, #60]	; 0x3c
 8010df4:	6843      	ldr	r3, [r0, #4]
 8010df6:	63d9      	str	r1, [r3, #60]	; 0x3c
 8010df8:	6041      	str	r1, [r0, #4]
 8010dfa:	4770      	bx	lr
 8010dfc:	63cb      	str	r3, [r1, #60]	; 0x3c
 8010dfe:	6001      	str	r1, [r0, #0]
 8010e00:	6041      	str	r1, [r0, #4]
 8010e02:	4770      	bx	lr

08010e04 <queue_pushsort>:
 8010e04:	6803      	ldr	r3, [r0, #0]
 8010e06:	b143      	cbz	r3, 8010e1a <queue_pushsort+0x16>
 8010e08:	b430      	push	{r4, r5}
 8010e0a:	6a0c      	ldr	r4, [r1, #32]
 8010e0c:	6a1a      	ldr	r2, [r3, #32]
 8010e0e:	4294      	cmp	r4, r2
 8010e10:	d207      	bcs.n	8010e22 <queue_pushsort+0x1e>
 8010e12:	63cb      	str	r3, [r1, #60]	; 0x3c
 8010e14:	6001      	str	r1, [r0, #0]
 8010e16:	bc30      	pop	{r4, r5}
 8010e18:	4770      	bx	lr
 8010e1a:	6001      	str	r1, [r0, #0]
 8010e1c:	6041      	str	r1, [r0, #4]
 8010e1e:	63cb      	str	r3, [r1, #60]	; 0x3c
 8010e20:	4770      	bx	lr
 8010e22:	461d      	mov	r5, r3
 8010e24:	6bdb      	ldr	r3, [r3, #60]	; 0x3c
 8010e26:	b12b      	cbz	r3, 8010e34 <queue_pushsort+0x30>
 8010e28:	6a1a      	ldr	r2, [r3, #32]
 8010e2a:	4294      	cmp	r4, r2
 8010e2c:	d8f9      	bhi.n	8010e22 <queue_pushsort+0x1e>
 8010e2e:	63cb      	str	r3, [r1, #60]	; 0x3c
 8010e30:	63e9      	str	r1, [r5, #60]	; 0x3c
 8010e32:	e7f0      	b.n	8010e16 <queue_pushsort+0x12>
 8010e34:	63e9      	str	r1, [r5, #60]	; 0x3c
 8010e36:	2300      	movs	r3, #0
 8010e38:	63cb      	str	r3, [r1, #60]	; 0x3c
 8010e3a:	6041      	str	r1, [r0, #4]
 8010e3c:	e7eb      	b.n	8010e16 <queue_pushsort+0x12>

08010e3e <queue_pop>:
 8010e3e:	4603      	mov	r3, r0
 8010e40:	6800      	ldr	r0, [r0, #0]
 8010e42:	b110      	cbz	r0, 8010e4a <queue_pop+0xc>
 8010e44:	6bc2      	ldr	r2, [r0, #60]	; 0x3c
 8010e46:	601a      	str	r2, [r3, #0]
 8010e48:	b102      	cbz	r2, 8010e4c <queue_pop+0xe>
 8010e4a:	4770      	bx	lr
 8010e4c:	605a      	str	r2, [r3, #4]
 8010e4e:	e7fc      	b.n	8010e4a <queue_pop+0xc>

08010e50 <queue_peek>:
 8010e50:	6800      	ldr	r0, [r0, #0]
 8010e52:	4770      	bx	lr

08010e54 <sem_init>:
 8010e54:	4603      	mov	r3, r0
 8010e56:	b120      	cbz	r0, 8010e62 <sem_init+0xe>
 8010e58:	6001      	str	r1, [r0, #0]
 8010e5a:	2000      	movs	r0, #0
 8010e5c:	6058      	str	r0, [r3, #4]
 8010e5e:	6098      	str	r0, [r3, #8]
 8010e60:	4770      	bx	lr
 8010e62:	2002      	movs	r0, #2
 8010e64:	4770      	bx	lr

08010e66 <sem_wait>:
 8010e66:	b1a0      	cbz	r0, 8010e92 <sem_wait+0x2c>
 8010e68:	b508      	push	{r3, lr}
 8010e6a:	b672      	cpsid	i
 8010e6c:	6803      	ldr	r3, [r0, #0]
 8010e6e:	b123      	cbz	r3, 8010e7a <sem_wait+0x14>
 8010e70:	3b01      	subs	r3, #1
 8010e72:	6003      	str	r3, [r0, #0]
 8010e74:	b662      	cpsie	i
 8010e76:	2000      	movs	r0, #0
 8010e78:	bd08      	pop	{r3, pc}
 8010e7a:	4b07      	ldr	r3, [pc, #28]	; (8010e98 <sem_wait+0x32>)
 8010e7c:	6819      	ldr	r1, [r3, #0]
 8010e7e:	2306      	movs	r3, #6
 8010e80:	778b      	strb	r3, [r1, #30]
 8010e82:	3004      	adds	r0, #4
 8010e84:	f7ff ffb2 	bl	8010dec <queue_push>
 8010e88:	4b04      	ldr	r3, [pc, #16]	; (8010e9c <sem_wait+0x36>)
 8010e8a:	f04f 5280 	mov.w	r2, #268435456	; 0x10000000
 8010e8e:	601a      	str	r2, [r3, #0]
 8010e90:	e7f0      	b.n	8010e74 <sem_wait+0xe>
 8010e92:	2002      	movs	r0, #2
 8010e94:	4770      	bx	lr
 8010e96:	bf00      	nop
 8010e98:	2000007c 	.word	0x2000007c
 8010e9c:	e000ed04 	.word	0xe000ed04

08010ea0 <sem_signal>:
 8010ea0:	b1b8      	cbz	r0, 8010ed2 <sem_signal+0x32>
 8010ea2:	b510      	push	{r4, lr}
 8010ea4:	4604      	mov	r4, r0
 8010ea6:	b672      	cpsid	i
 8010ea8:	3004      	adds	r0, #4
 8010eaa:	f7ff ffc8 	bl	8010e3e <queue_pop>
 8010eae:	4601      	mov	r1, r0
 8010eb0:	b158      	cbz	r0, 8010eca <sem_signal+0x2a>
 8010eb2:	2301      	movs	r3, #1
 8010eb4:	7783      	strb	r3, [r0, #30]
 8010eb6:	4808      	ldr	r0, [pc, #32]	; (8010ed8 <sem_signal+0x38>)
 8010eb8:	f7ff ff98 	bl	8010dec <queue_push>
 8010ebc:	4b07      	ldr	r3, [pc, #28]	; (8010edc <sem_signal+0x3c>)
 8010ebe:	f04f 5280 	mov.w	r2, #268435456	; 0x10000000
 8010ec2:	601a      	str	r2, [r3, #0]
 8010ec4:	b662      	cpsie	i
 8010ec6:	2000      	movs	r0, #0
 8010ec8:	bd10      	pop	{r4, pc}
 8010eca:	6823      	ldr	r3, [r4, #0]
 8010ecc:	3301      	adds	r3, #1
 8010ece:	6023      	str	r3, [r4, #0]
 8010ed0:	e7f8      	b.n	8010ec4 <sem_signal+0x24>
 8010ed2:	2002      	movs	r0, #2
 8010ed4:	4770      	bx	lr
 8010ed6:	bf00      	nop
 8010ed8:	20000da8 	.word	0x20000da8
 8010edc:	e000ed04 	.word	0xe000ed04

08010ee0 <kputc>:
 8010ee0:	b510      	push	{r4, lr}
 8010ee2:	4604      	mov	r4, r0
 8010ee4:	f004 fa5e 	bl	80153a4 <disable>
 8010ee8:	2c0a      	cmp	r4, #10
 8010eea:	d00a      	beq.n	8010f02 <kputc+0x22>
 8010eec:	4a09      	ldr	r2, [pc, #36]	; (8010f14 <kputc+0x34>)
 8010eee:	6813      	ldr	r3, [r2, #0]
 8010ef0:	f013 0f40 	tst.w	r3, #64	; 0x40
 8010ef4:	d0fb      	beq.n	8010eee <kputc+0xe>
 8010ef6:	4b07      	ldr	r3, [pc, #28]	; (8010f14 <kputc+0x34>)
 8010ef8:	605c      	str	r4, [r3, #4]
 8010efa:	f004 fa57 	bl	80153ac <restore>
 8010efe:	2001      	movs	r0, #1
 8010f00:	bd10      	pop	{r4, pc}
 8010f02:	4a04      	ldr	r2, [pc, #16]	; (8010f14 <kputc+0x34>)
 8010f04:	6813      	ldr	r3, [r2, #0]
 8010f06:	f013 0f40 	tst.w	r3, #64	; 0x40
 8010f0a:	d0fb      	beq.n	8010f04 <kputc+0x24>
 8010f0c:	4b01      	ldr	r3, [pc, #4]	; (8010f14 <kputc+0x34>)
 8010f0e:	220d      	movs	r2, #13
 8010f10:	605a      	str	r2, [r3, #4]
 8010f12:	e7eb      	b.n	8010eec <kputc+0xc>
 8010f14:	40011400 	.word	0x40011400

08010f18 <kgetc>:
 8010f18:	2001      	movs	r0, #1
 8010f1a:	4770      	bx	lr

08010f1c <kprintf>:
 8010f1c:	b40f      	push	{r0, r1, r2, r3}
 8010f1e:	b500      	push	{lr}
 8010f20:	b083      	sub	sp, #12
 8010f22:	a904      	add	r1, sp, #16
 8010f24:	f851 0b04 	ldr.w	r0, [r1], #4
 8010f28:	9101      	str	r1, [sp, #4]
 8010f2a:	4a04      	ldr	r2, [pc, #16]	; (8010f3c <kprintf+0x20>)
 8010f2c:	f004 fdb0 	bl	8015a90 <_doprnt>
 8010f30:	2001      	movs	r0, #1
 8010f32:	b003      	add	sp, #12
 8010f34:	f85d eb04 	ldr.w	lr, [sp], #4
 8010f38:	b004      	add	sp, #16
 8010f3a:	4770      	bx	lr
 8010f3c:	08010ee1 	.word	0x08010ee1

08010f40 <printf>:
 8010f40:	b40f      	push	{r0, r1, r2, r3}
 8010f42:	b570      	push	{r4, r5, r6, lr}
 8010f44:	b082      	sub	sp, #8
 8010f46:	ac06      	add	r4, sp, #24
 8010f48:	f854 6b04 	ldr.w	r6, [r4], #4
 8010f4c:	4d09      	ldr	r5, [pc, #36]	; (8010f74 <printf+0x34>)
 8010f4e:	4628      	mov	r0, r5
 8010f50:	f7ff ff89 	bl	8010e66 <sem_wait>
 8010f54:	9401      	str	r4, [sp, #4]
 8010f56:	4a08      	ldr	r2, [pc, #32]	; (8010f78 <printf+0x38>)
 8010f58:	4621      	mov	r1, r4
 8010f5a:	4630      	mov	r0, r6
 8010f5c:	f004 fd98 	bl	8015a90 <_doprnt>
 8010f60:	4628      	mov	r0, r5
 8010f62:	f7ff ff9d 	bl	8010ea0 <sem_signal>
 8010f66:	2001      	movs	r0, #1
 8010f68:	b002      	add	sp, #8
 8010f6a:	e8bd 4070 	ldmia.w	sp!, {r4, r5, r6, lr}
 8010f6e:	b004      	add	sp, #16
 8010f70:	4770      	bx	lr
 8010f72:	bf00      	nop
 8010f74:	20000d80 	.word	0x20000d80
 8010f78:	080101ad 	.word	0x080101ad

08010f7c <hexDump2>:
 8010f7c:	e92d 4ff0 	stmdb	sp!, {r4, r5, r6, r7, r8, r9, sl, fp, lr}
 8010f80:	b087      	sub	sp, #28
 8010f82:	1e16      	subs	r6, r2, #0
 8010f84:	dd55      	ble.n	8011032 <hexDump2+0xb6>
 8010f86:	4680      	mov	r8, r0
 8010f88:	1e4d      	subs	r5, r1, #1
 8010f8a:	2400      	movs	r4, #0
 8010f8c:	f8df 90bc 	ldr.w	r9, [pc, #188]	; 801104c <hexDump2+0xd0>
 8010f90:	f8df a0b4 	ldr.w	sl, [pc, #180]	; 8011048 <hexDump2+0xcc>
 8010f94:	4f2a      	ldr	r7, [pc, #168]	; (8011040 <hexDump2+0xc4>)
 8010f96:	e02e      	b.n	8010ff6 <hexDump2+0x7a>
 8010f98:	a901      	add	r1, sp, #4
 8010f9a:	4650      	mov	r0, sl
 8010f9c:	f7ff ffd0 	bl	8010f40 <printf>
 8010fa0:	eb08 010b 	add.w	r1, r8, fp
 8010fa4:	4648      	mov	r0, r9
 8010fa6:	f7ff ffcb 	bl	8010f40 <printf>
 8010faa:	f815 1f01 	ldrb.w	r1, [r5, #1]!
 8010fae:	4638      	mov	r0, r7
 8010fb0:	f7ff ffc6 	bl	8010f40 <printf>
 8010fb4:	782a      	ldrb	r2, [r5, #0]
 8010fb6:	f1a2 0320 	sub.w	r3, r2, #32
 8010fba:	b2db      	uxtb	r3, r3
 8010fbc:	2b5e      	cmp	r3, #94	; 0x5e
 8010fbe:	d921      	bls.n	8011004 <hexDump2+0x88>
 8010fc0:	4262      	negs	r2, r4
 8010fc2:	f004 030f 	and.w	r3, r4, #15
 8010fc6:	f002 020f 	and.w	r2, r2, #15
 8010fca:	bf58      	it	pl
 8010fcc:	4253      	negpl	r3, r2
 8010fce:	aa06      	add	r2, sp, #24
 8010fd0:	4413      	add	r3, r2
 8010fd2:	222e      	movs	r2, #46	; 0x2e
 8010fd4:	f803 2c14 	strb.w	r2, [r3, #-20]
 8010fd8:	4262      	negs	r2, r4
 8010fda:	f004 030f 	and.w	r3, r4, #15
 8010fde:	f002 020f 	and.w	r2, r2, #15
 8010fe2:	bf58      	it	pl
 8010fe4:	4253      	negpl	r3, r2
 8010fe6:	aa06      	add	r2, sp, #24
 8010fe8:	4413      	add	r3, r2
 8010fea:	2200      	movs	r2, #0
 8010fec:	f803 2c13 	strb.w	r2, [r3, #-19]
 8010ff0:	3401      	adds	r4, #1
 8010ff2:	42a6      	cmp	r6, r4
 8010ff4:	d012      	beq.n	801101c <hexDump2+0xa0>
 8010ff6:	46a3      	mov	fp, r4
 8010ff8:	f014 0f0f 	tst.w	r4, #15
 8010ffc:	d1d5      	bne.n	8010faa <hexDump2+0x2e>
 8010ffe:	2c00      	cmp	r4, #0
 8011000:	d0ce      	beq.n	8010fa0 <hexDump2+0x24>
 8011002:	e7c9      	b.n	8010f98 <hexDump2+0x1c>
 8011004:	4261      	negs	r1, r4
 8011006:	f004 030f 	and.w	r3, r4, #15
 801100a:	f001 010f 	and.w	r1, r1, #15
 801100e:	bf58      	it	pl
 8011010:	424b      	negpl	r3, r1
 8011012:	a906      	add	r1, sp, #24
 8011014:	440b      	add	r3, r1
 8011016:	f803 2c14 	strb.w	r2, [r3, #-20]
 801101a:	e7dd      	b.n	8010fd8 <hexDump2+0x5c>
 801101c:	f014 0f0f 	tst.w	r4, #15
 8011020:	d007      	beq.n	8011032 <hexDump2+0xb6>
 8011022:	4d08      	ldr	r5, [pc, #32]	; (8011044 <hexDump2+0xc8>)
 8011024:	4628      	mov	r0, r5
 8011026:	f7ff ff8b 	bl	8010f40 <printf>
 801102a:	3401      	adds	r4, #1
 801102c:	f014 0f0f 	tst.w	r4, #15
 8011030:	d1f8      	bne.n	8011024 <hexDump2+0xa8>
 8011032:	a901      	add	r1, sp, #4
 8011034:	4804      	ldr	r0, [pc, #16]	; (8011048 <hexDump2+0xcc>)
 8011036:	f7ff ff83 	bl	8010f40 <printf>
 801103a:	b007      	add	sp, #28
 801103c:	e8bd 8ff0 	ldmia.w	sp!, {r4, r5, r6, r7, r8, r9, sl, fp, pc}
 8011040:	08019380 	.word	0x08019380
 8011044:	08019388 	.word	0x08019388
 8011048:	08019370 	.word	0x08019370
 801104c:	08019378 	.word	0x08019378

08011050 <hexDump>:
 8011050:	e92d 4ff0 	stmdb	sp!, {r4, r5, r6, r7, r8, r9, sl, fp, lr}
 8011054:	b087      	sub	sp, #28
 8011056:	4681      	mov	r9, r0
 8011058:	4616      	mov	r6, r2
 801105a:	461f      	mov	r7, r3
 801105c:	b179      	cbz	r1, 801107e <hexDump+0x2e>
 801105e:	460a      	mov	r2, r1
 8011060:	4631      	mov	r1, r6
 8011062:	4833      	ldr	r0, [pc, #204]	; (8011130 <hexDump+0xe0>)
 8011064:	f7ff ff6c 	bl	8010f40 <printf>
 8011068:	2f00      	cmp	r7, #0
 801106a:	dd5a      	ble.n	8011122 <hexDump+0xd2>
 801106c:	3e01      	subs	r6, #1
 801106e:	2400      	movs	r4, #0
 8011070:	f8df a0cc 	ldr.w	sl, [pc, #204]	; 8011140 <hexDump+0xf0>
 8011074:	f8df b0c4 	ldr.w	fp, [pc, #196]	; 801113c <hexDump+0xec>
 8011078:	f8df 80c8 	ldr.w	r8, [pc, #200]	; 8011144 <hexDump+0xf4>
 801107c:	e033      	b.n	80110e6 <hexDump+0x96>
 801107e:	4611      	mov	r1, r2
 8011080:	482c      	ldr	r0, [pc, #176]	; (8011134 <hexDump+0xe4>)
 8011082:	f7ff ff5d 	bl	8010f40 <printf>
 8011086:	e7ef      	b.n	8011068 <hexDump+0x18>
 8011088:	a901      	add	r1, sp, #4
 801108a:	4658      	mov	r0, fp
 801108c:	f7ff ff58 	bl	8010f40 <printf>
 8011090:	eb09 0105 	add.w	r1, r9, r5
 8011094:	4650      	mov	r0, sl
 8011096:	f7ff ff53 	bl	8010f40 <printf>
 801109a:	f816 1f01 	ldrb.w	r1, [r6, #1]!
 801109e:	4640      	mov	r0, r8
 80110a0:	f7ff ff4e 	bl	8010f40 <printf>
 80110a4:	7832      	ldrb	r2, [r6, #0]
 80110a6:	f1a2 0320 	sub.w	r3, r2, #32
 80110aa:	b2db      	uxtb	r3, r3
 80110ac:	2b5e      	cmp	r3, #94	; 0x5e
 80110ae:	d921      	bls.n	80110f4 <hexDump+0xa4>
 80110b0:	4262      	negs	r2, r4
 80110b2:	f004 030f 	and.w	r3, r4, #15
 80110b6:	f002 020f 	and.w	r2, r2, #15
 80110ba:	bf58      	it	pl
 80110bc:	4253      	negpl	r3, r2
 80110be:	aa06      	add	r2, sp, #24
 80110c0:	4413      	add	r3, r2
 80110c2:	222e      	movs	r2, #46	; 0x2e
 80110c4:	f803 2c14 	strb.w	r2, [r3, #-20]
 80110c8:	4263      	negs	r3, r4
 80110ca:	f004 050f 	and.w	r5, r4, #15
 80110ce:	f003 030f 	and.w	r3, r3, #15
 80110d2:	bf58      	it	pl
 80110d4:	425d      	negpl	r5, r3
 80110d6:	ab06      	add	r3, sp, #24
 80110d8:	441d      	add	r5, r3
 80110da:	2300      	movs	r3, #0
 80110dc:	f805 3c13 	strb.w	r3, [r5, #-19]
 80110e0:	3401      	adds	r4, #1
 80110e2:	42a7      	cmp	r7, r4
 80110e4:	d012      	beq.n	801110c <hexDump+0xbc>
 80110e6:	4625      	mov	r5, r4
 80110e8:	f014 0f0f 	tst.w	r4, #15
 80110ec:	d1d5      	bne.n	801109a <hexDump+0x4a>
 80110ee:	2c00      	cmp	r4, #0
 80110f0:	d0ce      	beq.n	8011090 <hexDump+0x40>
 80110f2:	e7c9      	b.n	8011088 <hexDump+0x38>
 80110f4:	4261      	negs	r1, r4
 80110f6:	f004 030f 	and.w	r3, r4, #15
 80110fa:	f001 010f 	and.w	r1, r1, #15
 80110fe:	bf58      	it	pl
 8011100:	424b      	negpl	r3, r1
 8011102:	a906      	add	r1, sp, #24
 8011104:	440b      	add	r3, r1
 8011106:	f803 2c14 	strb.w	r2, [r3, #-20]
 801110a:	e7dd      	b.n	80110c8 <hexDump+0x78>
 801110c:	f014 0f0f 	tst.w	r4, #15
 8011110:	d007      	beq.n	8011122 <hexDump+0xd2>
 8011112:	4d09      	ldr	r5, [pc, #36]	; (8011138 <hexDump+0xe8>)
 8011114:	4628      	mov	r0, r5
 8011116:	f7ff ff13 	bl	8010f40 <printf>
 801111a:	3401      	adds	r4, #1
 801111c:	f014 0f0f 	tst.w	r4, #15
 8011120:	d1f8      	bne.n	8011114 <hexDump+0xc4>
 8011122:	a901      	add	r1, sp, #4
 8011124:	4805      	ldr	r0, [pc, #20]	; (801113c <hexDump+0xec>)
 8011126:	f7ff ff0b 	bl	8010f40 <printf>
 801112a:	b007      	add	sp, #28
 801112c:	e8bd 8ff0 	ldmia.w	sp!, {r4, r5, r6, r7, r8, r9, sl, fp, pc}
 8011130:	0801938c 	.word	0x0801938c
 8011134:	08019398 	.word	0x08019398
 8011138:	08019388 	.word	0x08019388
 801113c:	08019370 	.word	0x08019370
 8011140:	08019378 	.word	0x08019378
 8011144:	08019380 	.word	0x08019380

08011148 <circular_inc>:
 8011148:	3001      	adds	r0, #1
 801114a:	4288      	cmp	r0, r1
 801114c:	bf08      	it	eq
 801114e:	2000      	moveq	r0, #0
 8011150:	4770      	bx	lr

08011152 <is_special_key_sequence_prefix>:
 8011152:	b5f8      	push	{r3, r4, r5, r6, r7, lr}
 8011154:	4607      	mov	r7, r0
 8011156:	f004 fa6a 	bl	801562e <strlen>
 801115a:	4606      	mov	r6, r0
 801115c:	4d07      	ldr	r5, [pc, #28]	; (801117c <is_special_key_sequence_prefix+0x2a>)
 801115e:	1cac      	adds	r4, r5, #2
 8011160:	3532      	adds	r5, #50	; 0x32
 8011162:	4632      	mov	r2, r6
 8011164:	4621      	mov	r1, r4
 8011166:	4638      	mov	r0, r7
 8011168:	f004 fa0f 	bl	801558a <strncmp>
 801116c:	b120      	cbz	r0, 8011178 <is_special_key_sequence_prefix+0x26>
 801116e:	3408      	adds	r4, #8
 8011170:	42ac      	cmp	r4, r5
 8011172:	d1f6      	bne.n	8011162 <is_special_key_sequence_prefix+0x10>
 8011174:	2000      	movs	r0, #0
 8011176:	bdf8      	pop	{r3, r4, r5, r6, r7, pc}
 8011178:	2001      	movs	r0, #1
 801117a:	e7fc      	b.n	8011176 <is_special_key_sequence_prefix+0x24>
 801117c:	080193a0 	.word	0x080193a0

08011180 <get_special_key_code>:
 8011180:	b570      	push	{r4, r5, r6, lr}
 8011182:	4606      	mov	r6, r0
 8011184:	4d08      	ldr	r5, [pc, #32]	; (80111a8 <get_special_key_code+0x28>)
 8011186:	2400      	movs	r4, #0
 8011188:	4629      	mov	r1, r5
 801118a:	4630      	mov	r0, r6
 801118c:	f004 f9e1 	bl	8015552 <strcmp>
 8011190:	b128      	cbz	r0, 801119e <get_special_key_code+0x1e>
 8011192:	3401      	adds	r4, #1
 8011194:	3508      	adds	r5, #8
 8011196:	2c06      	cmp	r4, #6
 8011198:	d1f6      	bne.n	8011188 <get_special_key_code+0x8>
 801119a:	2000      	movs	r0, #0
 801119c:	bd70      	pop	{r4, r5, r6, pc}
 801119e:	4b03      	ldr	r3, [pc, #12]	; (80111ac <get_special_key_code+0x2c>)
 80111a0:	f833 0034 	ldrh.w	r0, [r3, r4, lsl #3]
 80111a4:	e7fa      	b.n	801119c <get_special_key_code+0x1c>
 80111a6:	bf00      	nop
 80111a8:	080193a2 	.word	0x080193a2
 80111ac:	080193a0 	.word	0x080193a0

080111b0 <get_special_key_sequence>:
 80111b0:	f241 0301 	movw	r3, #4097	; 0x1001
 80111b4:	4298      	cmp	r0, r3
 80111b6:	d013      	beq.n	80111e0 <get_special_key_sequence+0x30>
 80111b8:	f241 0302 	movw	r3, #4098	; 0x1002
 80111bc:	4298      	cmp	r0, r3
 80111be:	d015      	beq.n	80111ec <get_special_key_sequence+0x3c>
 80111c0:	f241 0303 	movw	r3, #4099	; 0x1003
 80111c4:	4298      	cmp	r0, r3
 80111c6:	d013      	beq.n	80111f0 <get_special_key_sequence+0x40>
 80111c8:	f241 0304 	movw	r3, #4100	; 0x1004
 80111cc:	4298      	cmp	r0, r3
 80111ce:	d011      	beq.n	80111f4 <get_special_key_sequence+0x44>
 80111d0:	f241 0305 	movw	r3, #4101	; 0x1005
 80111d4:	4298      	cmp	r0, r3
 80111d6:	bf08      	it	eq
 80111d8:	2304      	moveq	r3, #4
 80111da:	d002      	beq.n	80111e2 <get_special_key_sequence+0x32>
 80111dc:	2000      	movs	r0, #0
 80111de:	4770      	bx	lr
 80111e0:	2300      	movs	r3, #0
 80111e2:	4805      	ldr	r0, [pc, #20]	; (80111f8 <get_special_key_sequence+0x48>)
 80111e4:	eb00 00c3 	add.w	r0, r0, r3, lsl #3
 80111e8:	3002      	adds	r0, #2
 80111ea:	4770      	bx	lr
 80111ec:	2301      	movs	r3, #1
 80111ee:	e7f8      	b.n	80111e2 <get_special_key_sequence+0x32>
 80111f0:	2302      	movs	r3, #2
 80111f2:	e7f6      	b.n	80111e2 <get_special_key_sequence+0x32>
 80111f4:	2303      	movs	r3, #3
 80111f6:	e7f4      	b.n	80111e2 <get_special_key_sequence+0x32>
 80111f8:	080193a0 	.word	0x080193a0

080111fc <uarthandler>:
 80111fc:	4b0a      	ldr	r3, [pc, #40]	; (8011228 <uarthandler+0x2c>)
 80111fe:	681b      	ldr	r3, [r3, #0]
 8011200:	f013 0f20 	tst.w	r3, #32
 8011204:	d00f      	beq.n	8011226 <uarthandler+0x2a>
 8011206:	4b08      	ldr	r3, [pc, #32]	; (8011228 <uarthandler+0x2c>)
 8011208:	6858      	ldr	r0, [r3, #4]
 801120a:	4b08      	ldr	r3, [pc, #32]	; (801122c <uarthandler+0x30>)
 801120c:	681a      	ldr	r2, [r3, #0]
 801120e:	1c53      	adds	r3, r2, #1
 8011210:	2b10      	cmp	r3, #16
 8011212:	bf08      	it	eq
 8011214:	2300      	moveq	r3, #0
 8011216:	4905      	ldr	r1, [pc, #20]	; (801122c <uarthandler+0x30>)
 8011218:	6849      	ldr	r1, [r1, #4]
 801121a:	4299      	cmp	r1, r3
 801121c:	d003      	beq.n	8011226 <uarthandler+0x2a>
 801121e:	4904      	ldr	r1, [pc, #16]	; (8011230 <uarthandler+0x34>)
 8011220:	5488      	strb	r0, [r1, r2]
 8011222:	4a02      	ldr	r2, [pc, #8]	; (801122c <uarthandler+0x30>)
 8011224:	6013      	str	r3, [r2, #0]
 8011226:	4770      	bx	lr
 8011228:	40011400 	.word	0x40011400
 801122c:	20000080 	.word	0x20000080
 8011230:	200010c0 	.word	0x200010c0

08011234 <kputch>:
 8011234:	b530      	push	{r4, r5, lr}
 8011236:	b083      	sub	sp, #12
 8011238:	4604      	mov	r4, r0
 801123a:	f7ff ffb9 	bl	80111b0 <get_special_key_sequence>
 801123e:	4605      	mov	r5, r0
 8011240:	2c0a      	cmp	r4, #10
 8011242:	d010      	beq.n	8011266 <kputch+0x32>
 8011244:	b19d      	cbz	r5, 801126e <kputch+0x3a>
 8011246:	4628      	mov	r0, r5
 8011248:	f004 f9f1 	bl	801562e <strlen>
 801124c:	2800      	cmp	r0, #0
 801124e:	dd08      	ble.n	8011262 <kputch+0x2e>
 8011250:	1e6c      	subs	r4, r5, #1
 8011252:	4405      	add	r5, r0
 8011254:	3d01      	subs	r5, #1
 8011256:	f814 0f01 	ldrb.w	r0, [r4, #1]!
 801125a:	f7ff fe41 	bl	8010ee0 <kputc>
 801125e:	42ac      	cmp	r4, r5
 8011260:	d1f9      	bne.n	8011256 <kputch+0x22>
 8011262:	b003      	add	sp, #12
 8011264:	bd30      	pop	{r4, r5, pc}
 8011266:	200d      	movs	r0, #13
 8011268:	f7ff ffe4 	bl	8011234 <kputch>
 801126c:	e7ea      	b.n	8011244 <kputch+0x10>
 801126e:	f88d 4004 	strb.w	r4, [sp, #4]
 8011272:	2300      	movs	r3, #0
 8011274:	f88d 3005 	strb.w	r3, [sp, #5]
 8011278:	ad01      	add	r5, sp, #4
 801127a:	e7e4      	b.n	8011246 <kputch+0x12>

0801127c <kgetch>:
 801127c:	b5f0      	push	{r4, r5, r6, r7, lr}
 801127e:	b083      	sub	sp, #12
 8011280:	2300      	movs	r3, #0
 8011282:	9300      	str	r3, [sp, #0]
 8011284:	f8ad 3004 	strh.w	r3, [sp, #4]
 8011288:	4b17      	ldr	r3, [pc, #92]	; (80112e8 <kgetch+0x6c>)
 801128a:	681a      	ldr	r2, [r3, #0]
 801128c:	685b      	ldr	r3, [r3, #4]
 801128e:	429a      	cmp	r2, r3
 8011290:	d025      	beq.n	80112de <kgetch+0x62>
 8011292:	f10d 36ff 	add.w	r6, sp, #4294967295	; 0xffffffff
 8011296:	2500      	movs	r5, #0
 8011298:	4c13      	ldr	r4, [pc, #76]	; (80112e8 <kgetch+0x6c>)
 801129a:	4f14      	ldr	r7, [pc, #80]	; (80112ec <kgetch+0x70>)
 801129c:	4668      	mov	r0, sp
 801129e:	f7ff ff58 	bl	8011152 <is_special_key_sequence_prefix>
 80112a2:	b188      	cbz	r0, 80112c8 <kgetch+0x4c>
 80112a4:	4668      	mov	r0, sp
 80112a6:	f7ff ff6b 	bl	8011180 <get_special_key_code>
 80112aa:	4601      	mov	r1, r0
 80112ac:	b960      	cbnz	r0, 80112c8 <kgetch+0x4c>
 80112ae:	6862      	ldr	r2, [r4, #4]
 80112b0:	5cbb      	ldrb	r3, [r7, r2]
 80112b2:	f806 3f01 	strb.w	r3, [r6, #1]!
 80112b6:	1c53      	adds	r3, r2, #1
 80112b8:	2a0f      	cmp	r2, #15
 80112ba:	bf08      	it	eq
 80112bc:	460b      	moveq	r3, r1
 80112be:	6063      	str	r3, [r4, #4]
 80112c0:	3501      	adds	r5, #1
 80112c2:	6822      	ldr	r2, [r4, #0]
 80112c4:	429a      	cmp	r2, r3
 80112c6:	d1e9      	bne.n	801129c <kgetch+0x20>
 80112c8:	4668      	mov	r0, sp
 80112ca:	f7ff ff59 	bl	8011180 <get_special_key_code>
 80112ce:	b920      	cbnz	r0, 80112da <kgetch+0x5e>
 80112d0:	b13d      	cbz	r5, 80112e2 <kgetch+0x66>
 80112d2:	ab02      	add	r3, sp, #8
 80112d4:	441d      	add	r5, r3
 80112d6:	f815 0c09 	ldrb.w	r0, [r5, #-9]
 80112da:	b003      	add	sp, #12
 80112dc:	bdf0      	pop	{r4, r5, r6, r7, pc}
 80112de:	2500      	movs	r5, #0
 80112e0:	e7f2      	b.n	80112c8 <kgetch+0x4c>
 80112e2:	4628      	mov	r0, r5
 80112e4:	e7f9      	b.n	80112da <kgetch+0x5e>
 80112e6:	bf00      	nop
 80112e8:	20000080 	.word	0x20000080
 80112ec:	200010c0 	.word	0x200010c0

080112f0 <gets_base>:
 80112f0:	b5f8      	push	{r3, r4, r5, r6, r7, lr}
 80112f2:	4604      	mov	r4, r0
 80112f4:	460f      	mov	r7, r1
 80112f6:	4810      	ldr	r0, [pc, #64]	; (8011338 <gets_base+0x48>)
 80112f8:	f7ff fdb5 	bl	8010e66 <sem_wait>
 80112fc:	2500      	movs	r5, #0
 80112fe:	f241 0605 	movw	r6, #4101	; 0x1005
 8011302:	e001      	b.n	8011308 <gets_base+0x18>
 8011304:	b105      	cbz	r5, 8011308 <gets_base+0x18>
 8011306:	3d01      	subs	r5, #1
 8011308:	47a0      	blx	r4
 801130a:	2800      	cmp	r0, #0
 801130c:	d0fc      	beq.n	8011308 <gets_base+0x18>
 801130e:	280d      	cmp	r0, #13
 8011310:	d00a      	beq.n	8011328 <gets_base+0x38>
 8011312:	280a      	cmp	r0, #10
 8011314:	d008      	beq.n	8011328 <gets_base+0x38>
 8011316:	42b0      	cmp	r0, r6
 8011318:	d0f4      	beq.n	8011304 <gets_base+0x14>
 801131a:	f1a0 0220 	sub.w	r2, r0, #32
 801131e:	2a5f      	cmp	r2, #95	; 0x5f
 8011320:	d8f2      	bhi.n	8011308 <gets_base+0x18>
 8011322:	5578      	strb	r0, [r7, r5]
 8011324:	3501      	adds	r5, #1
 8011326:	e7ef      	b.n	8011308 <gets_base+0x18>
 8011328:	2300      	movs	r3, #0
 801132a:	557b      	strb	r3, [r7, r5]
 801132c:	4802      	ldr	r0, [pc, #8]	; (8011338 <gets_base+0x48>)
 801132e:	f7ff fdb7 	bl	8010ea0 <sem_signal>
 8011332:	4638      	mov	r0, r7
 8011334:	bdf8      	pop	{r3, r4, r5, r6, r7, pc}
 8011336:	bf00      	nop
 8011338:	20000d8c 	.word	0x20000d8c

0801133c <gets_base2>:
 801133c:	e92d 41f0 	stmdb	sp!, {r4, r5, r6, r7, r8, lr}
 8011340:	4680      	mov	r8, r0
 8011342:	2600      	movs	r6, #0
 8011344:	4d12      	ldr	r5, [pc, #72]	; (8011390 <gets_base2+0x54>)
 8011346:	f241 0705 	movw	r7, #4101	; 0x1005
 801134a:	e001      	b.n	8011350 <gets_base2+0x14>
 801134c:	b106      	cbz	r6, 8011350 <gets_base2+0x14>
 801134e:	3e01      	subs	r6, #1
 8011350:	4628      	mov	r0, r5
 8011352:	f7fe ff44 	bl	80101de <syscall_sema_wait>
 8011356:	f7fe ff30 	bl	80101ba <syscall_getc>
 801135a:	4604      	mov	r4, r0
 801135c:	4628      	mov	r0, r5
 801135e:	f7fe ff38 	bl	80101d2 <syscall_sema_signal>
 8011362:	2c00      	cmp	r4, #0
 8011364:	d0f4      	beq.n	8011350 <gets_base2+0x14>
 8011366:	2c0d      	cmp	r4, #13
 8011368:	d00b      	beq.n	8011382 <gets_base2+0x46>
 801136a:	2c0a      	cmp	r4, #10
 801136c:	d009      	beq.n	8011382 <gets_base2+0x46>
 801136e:	42bc      	cmp	r4, r7
 8011370:	d0ec      	beq.n	801134c <gets_base2+0x10>
 8011372:	f1a4 0320 	sub.w	r3, r4, #32
 8011376:	2b5f      	cmp	r3, #95	; 0x5f
 8011378:	d8ea      	bhi.n	8011350 <gets_base2+0x14>
 801137a:	f808 4006 	strb.w	r4, [r8, r6]
 801137e:	3601      	adds	r6, #1
 8011380:	e7e6      	b.n	8011350 <gets_base2+0x14>
 8011382:	2300      	movs	r3, #0
 8011384:	f808 3006 	strb.w	r3, [r8, r6]
 8011388:	4630      	mov	r0, r6
 801138a:	e8bd 81f0 	ldmia.w	sp!, {r4, r5, r6, r7, r8, pc}
 801138e:	bf00      	nop
 8011390:	20000d8c 	.word	0x20000d8c

08011394 <getpid>:
 8011394:	4b01      	ldr	r3, [pc, #4]	; (801139c <getpid+0x8>)
 8011396:	681b      	ldr	r3, [r3, #0]
 8011398:	7f18      	ldrb	r0, [r3, #28]
 801139a:	4770      	bx	lr
 801139c:	2000007c 	.word	0x2000007c

080113a0 <ready>:
 80113a0:	b508      	push	{r3, lr}
 80113a2:	4904      	ldr	r1, [pc, #16]	; (80113b4 <ready+0x14>)
 80113a4:	eb01 1180 	add.w	r1, r1, r0, lsl #6
 80113a8:	2301      	movs	r3, #1
 80113aa:	778b      	strb	r3, [r1, #30]
 80113ac:	4802      	ldr	r0, [pc, #8]	; (80113b8 <ready+0x18>)
 80113ae:	f7ff fd1d 	bl	8010dec <queue_push>
 80113b2:	bd08      	pop	{r3, pc}
 80113b4:	20000db4 	.word	0x20000db4
 80113b8:	20000da8 	.word	0x20000da8

080113bc <sleep>:
 80113bc:	b538      	push	{r3, r4, r5, lr}
 80113be:	4604      	mov	r4, r0
 80113c0:	f003 fff0 	bl	80153a4 <disable>
 80113c4:	4605      	mov	r5, r0
 80113c6:	b93c      	cbnz	r4, 80113d8 <sleep+0x1c>
 80113c8:	4628      	mov	r0, r5
 80113ca:	f003 ffef 	bl	80153ac <restore>
 80113ce:	4b0a      	ldr	r3, [pc, #40]	; (80113f8 <sleep+0x3c>)
 80113d0:	f04f 5280 	mov.w	r2, #268435456	; 0x10000000
 80113d4:	601a      	str	r2, [r3, #0]
 80113d6:	bd38      	pop	{r3, r4, r5, pc}
 80113d8:	4b08      	ldr	r3, [pc, #32]	; (80113fc <sleep+0x40>)
 80113da:	6819      	ldr	r1, [r3, #0]
 80113dc:	2304      	movs	r3, #4
 80113de:	778b      	strb	r3, [r1, #30]
 80113e0:	4b07      	ldr	r3, [pc, #28]	; (8011400 <sleep+0x44>)
 80113e2:	6818      	ldr	r0, [r3, #0]
 80113e4:	f44f 737a 	mov.w	r3, #1000	; 0x3e8
 80113e8:	fb03 0404 	mla	r4, r3, r4, r0
 80113ec:	620c      	str	r4, [r1, #32]
 80113ee:	4805      	ldr	r0, [pc, #20]	; (8011404 <sleep+0x48>)
 80113f0:	f7ff fcfc 	bl	8010dec <queue_push>
 80113f4:	e7e8      	b.n	80113c8 <sleep+0xc>
 80113f6:	bf00      	nop
 80113f8:	e000ed04 	.word	0xe000ed04
 80113fc:	2000007c 	.word	0x2000007c
 8011400:	20000da4 	.word	0x20000da4
 8011404:	200010b4 	.word	0x200010b4

08011408 <kill>:
 8011408:	b5f8      	push	{r3, r4, r5, r6, r7, lr}
 801140a:	4604      	mov	r4, r0
 801140c:	f003 ffca 	bl	80153a4 <disable>
 8011410:	4606      	mov	r6, r0
 8011412:	4b2c      	ldr	r3, [pc, #176]	; (80114c4 <kill+0xbc>)
 8011414:	01a2      	lsls	r2, r4, #6
 8011416:	eb03 1584 	add.w	r5, r3, r4, lsl #6
 801141a:	5898      	ldr	r0, [r3, r2]
 801141c:	f004 fe40 	bl	80160a0 <free>
 8011420:	f895 3034 	ldrb.w	r3, [r5, #52]	; 0x34
 8011424:	2b01      	cmp	r3, #1
 8011426:	d00d      	beq.n	8011444 <kill+0x3c>
 8011428:	4b26      	ldr	r3, [pc, #152]	; (80114c4 <kill+0xbc>)
 801142a:	eb03 1384 	add.w	r3, r3, r4, lsl #6
 801142e:	7f9b      	ldrb	r3, [r3, #30]
 8011430:	2b01      	cmp	r3, #1
 8011432:	d00e      	beq.n	8011452 <kill+0x4a>
 8011434:	2b04      	cmp	r3, #4
 8011436:	d022      	beq.n	801147e <kill+0x76>
 8011438:	4822      	ldr	r0, [pc, #136]	; (80114c4 <kill+0xbc>)
 801143a:	eb00 1484 	add.w	r4, r0, r4, lsl #6
 801143e:	2300      	movs	r3, #0
 8011440:	77a3      	strb	r3, [r4, #30]
 8011442:	e018      	b.n	8011476 <kill+0x6e>
 8011444:	2200      	movs	r2, #0
 8011446:	f885 2034 	strb.w	r2, [r5, #52]	; 0x34
 801144a:	6ba8      	ldr	r0, [r5, #56]	; 0x38
 801144c:	f004 fe28 	bl	80160a0 <free>
 8011450:	e7ea      	b.n	8011428 <kill+0x20>
 8011452:	4a1c      	ldr	r2, [pc, #112]	; (80114c4 <kill+0xbc>)
 8011454:	eb02 1384 	add.w	r3, r2, r4, lsl #6
 8011458:	2100      	movs	r1, #0
 801145a:	7799      	strb	r1, [r3, #30]
 801145c:	461a      	mov	r2, r3
 801145e:	3224      	adds	r2, #36	; 0x24
 8011460:	4621      	mov	r1, r4
 8011462:	4819      	ldr	r0, [pc, #100]	; (80114c8 <kill+0xc0>)
 8011464:	f7ff fd5a 	bl	8010f1c <kprintf>
 8011468:	4630      	mov	r0, r6
 801146a:	f003 ff9f 	bl	80153ac <restore>
 801146e:	4b17      	ldr	r3, [pc, #92]	; (80114cc <kill+0xc4>)
 8011470:	f04f 5280 	mov.w	r2, #268435456	; 0x10000000
 8011474:	601a      	str	r2, [r3, #0]
 8011476:	4630      	mov	r0, r6
 8011478:	f003 ff98 	bl	80153ac <restore>
 801147c:	bdf8      	pop	{r3, r4, r5, r6, r7, pc}
 801147e:	4814      	ldr	r0, [pc, #80]	; (80114d0 <kill+0xc8>)
 8011480:	f7ff fce6 	bl	8010e50 <queue_peek>
 8011484:	7f83      	ldrb	r3, [r0, #30]
 8011486:	2b04      	cmp	r3, #4
 8011488:	d1f5      	bne.n	8011476 <kill+0x6e>
 801148a:	4d11      	ldr	r5, [pc, #68]	; (80114d0 <kill+0xc8>)
 801148c:	4f0d      	ldr	r7, [pc, #52]	; (80114c4 <kill+0xbc>)
 801148e:	eb07 1784 	add.w	r7, r7, r4, lsl #6
 8011492:	4628      	mov	r0, r5
 8011494:	f7ff fcd3 	bl	8010e3e <queue_pop>
 8011498:	4604      	mov	r4, r0
 801149a:	7f39      	ldrb	r1, [r7, #28]
 801149c:	7f03      	ldrb	r3, [r0, #28]
 801149e:	428b      	cmp	r3, r1
 80114a0:	d007      	beq.n	80114b2 <kill+0xaa>
 80114a2:	4601      	mov	r1, r0
 80114a4:	4628      	mov	r0, r5
 80114a6:	f7ff fca1 	bl	8010dec <queue_push>
 80114aa:	7fa3      	ldrb	r3, [r4, #30]
 80114ac:	2b04      	cmp	r3, #4
 80114ae:	d0f0      	beq.n	8011492 <kill+0x8a>
 80114b0:	e7e1      	b.n	8011476 <kill+0x6e>
 80114b2:	2300      	movs	r3, #0
 80114b4:	7783      	strb	r3, [r0, #30]
 80114b6:	f100 0224 	add.w	r2, r0, #36	; 0x24
 80114ba:	4803      	ldr	r0, [pc, #12]	; (80114c8 <kill+0xc0>)
 80114bc:	f7ff fd2e 	bl	8010f1c <kprintf>
 80114c0:	e7d9      	b.n	8011476 <kill+0x6e>
 80114c2:	bf00      	nop
 80114c4:	20000db4 	.word	0x20000db4
 80114c8:	080193d0 	.word	0x080193d0
 80114cc:	e000ed04 	.word	0xe000ed04
 80114d0:	200010b4 	.word	0x200010b4

080114d4 <killer>:
 80114d4:	b508      	push	{r3, lr}
 80114d6:	4b03      	ldr	r3, [pc, #12]	; (80114e4 <killer+0x10>)
 80114d8:	681b      	ldr	r3, [r3, #0]
 80114da:	7f18      	ldrb	r0, [r3, #28]
 80114dc:	f7ff ff94 	bl	8011408 <kill>
 80114e0:	bd08      	pop	{r3, pc}
 80114e2:	bf00      	nop
 80114e4:	2000007c 	.word	0x2000007c

080114e8 <pendsv_handler>:
 80114e8:	4b10      	ldr	r3, [pc, #64]	; (801152c <pendsv_handler+0x44>)
 80114ea:	6819      	ldr	r1, [r3, #0]
 80114ec:	b131      	cbz	r1, 80114fc <pendsv_handler+0x14>
 80114ee:	f3ef 8309 	mrs	r3, PSP
 80114f2:	e923 0ff0 	stmdb	r3!, {r4, r5, r6, r7, r8, r9, sl, fp}
 80114f6:	f383 8809 	msr	PSP, r3
 80114fa:	604b      	str	r3, [r1, #4]
 80114fc:	7f8b      	ldrb	r3, [r1, #30]
 80114fe:	2b01      	cmp	r3, #1
 8011500:	d00f      	beq.n	8011522 <pendsv_handler+0x3a>
 8011502:	480b      	ldr	r0, [pc, #44]	; (8011530 <pendsv_handler+0x48>)
 8011504:	f7ff fc9b 	bl	8010e3e <queue_pop>
 8011508:	4b08      	ldr	r3, [pc, #32]	; (801152c <pendsv_handler+0x44>)
 801150a:	6018      	str	r0, [r3, #0]
 801150c:	4b09      	ldr	r3, [pc, #36]	; (8011534 <pendsv_handler+0x4c>)
 801150e:	2201      	movs	r2, #1
 8011510:	701a      	strb	r2, [r3, #0]
 8011512:	6843      	ldr	r3, [r0, #4]
 8011514:	e8b3 0ff0 	ldmia.w	r3!, {r4, r5, r6, r7, r8, r9, sl, fp}
 8011518:	f383 8809 	msr	PSP, r3
 801151c:	f06f 0302 	mvn.w	r3, #2
 8011520:	4718      	bx	r3
 8011522:	4803      	ldr	r0, [pc, #12]	; (8011530 <pendsv_handler+0x48>)
 8011524:	f7ff fc62 	bl	8010dec <queue_push>
 8011528:	e7eb      	b.n	8011502 <pendsv_handler+0x1a>
 801152a:	bf00      	nop
 801152c:	2000007c 	.word	0x2000007c
 8011530:	20000da8 	.word	0x20000da8
 8011534:	20000db0 	.word	0x20000db0

08011538 <SysTick_Handler>:
 8011538:	b538      	push	{r3, r4, r5, lr}
 801153a:	4a14      	ldr	r2, [pc, #80]	; (801158c <SysTick_Handler+0x54>)
 801153c:	6813      	ldr	r3, [r2, #0]
 801153e:	3301      	adds	r3, #1
 8011540:	6013      	str	r3, [r2, #0]
 8011542:	4813      	ldr	r0, [pc, #76]	; (8011590 <SysTick_Handler+0x58>)
 8011544:	f7ff fc84 	bl	8010e50 <queue_peek>
 8011548:	b190      	cbz	r0, 8011570 <SysTick_Handler+0x38>
 801154a:	4603      	mov	r3, r0
 801154c:	4d0f      	ldr	r5, [pc, #60]	; (801158c <SysTick_Handler+0x54>)
 801154e:	4c10      	ldr	r4, [pc, #64]	; (8011590 <SysTick_Handler+0x58>)
 8011550:	6a1a      	ldr	r2, [r3, #32]
 8011552:	682b      	ldr	r3, [r5, #0]
 8011554:	429a      	cmp	r2, r3
 8011556:	d80b      	bhi.n	8011570 <SysTick_Handler+0x38>
 8011558:	4620      	mov	r0, r4
 801155a:	f7ff fc70 	bl	8010e3e <queue_pop>
 801155e:	7f00      	ldrb	r0, [r0, #28]
 8011560:	f7ff ff1e 	bl	80113a0 <ready>
 8011564:	4620      	mov	r0, r4
 8011566:	f7ff fc73 	bl	8010e50 <queue_peek>
 801156a:	4603      	mov	r3, r0
 801156c:	2800      	cmp	r0, #0
 801156e:	d1ef      	bne.n	8011550 <SysTick_Handler+0x18>
 8011570:	4b08      	ldr	r3, [pc, #32]	; (8011594 <SysTick_Handler+0x5c>)
 8011572:	781b      	ldrb	r3, [r3, #0]
 8011574:	3b01      	subs	r3, #1
 8011576:	f013 03ff 	ands.w	r3, r3, #255	; 0xff
 801157a:	d002      	beq.n	8011582 <SysTick_Handler+0x4a>
 801157c:	4a05      	ldr	r2, [pc, #20]	; (8011594 <SysTick_Handler+0x5c>)
 801157e:	7013      	strb	r3, [r2, #0]
 8011580:	bd38      	pop	{r3, r4, r5, pc}
 8011582:	4b05      	ldr	r3, [pc, #20]	; (8011598 <SysTick_Handler+0x60>)
 8011584:	f04f 5280 	mov.w	r2, #268435456	; 0x10000000
 8011588:	601a      	str	r2, [r3, #0]
 801158a:	e7f9      	b.n	8011580 <SysTick_Handler+0x48>
 801158c:	20000da4 	.word	0x20000da4
 8011590:	200010b4 	.word	0x200010b4
 8011594:	20000db0 	.word	0x20000db0
 8011598:	e000ed04 	.word	0xe000ed04

0801159c <create>:
 801159c:	e92d 4ff0 	stmdb	sp!, {r4, r5, r6, r7, r8, r9, sl, fp, lr}
 80115a0:	b085      	sub	sp, #20
 80115a2:	9001      	str	r0, [sp, #4]
 80115a4:	460f      	mov	r7, r1
 80115a6:	469a      	mov	sl, r3
 80115a8:	f8dd b038 	ldr.w	fp, [sp, #56]	; 0x38
 80115ac:	f003 fefa 	bl	80153a4 <disable>
 80115b0:	9000      	str	r0, [sp, #0]
 80115b2:	f8df 80d0 	ldr.w	r8, [pc, #208]	; 8011684 <create+0xe8>
 80115b6:	4642      	mov	r2, r8
 80115b8:	2300      	movs	r3, #0
 80115ba:	461d      	mov	r5, r3
 80115bc:	7f91      	ldrb	r1, [r2, #30]
 80115be:	b129      	cbz	r1, 80115cc <create+0x30>
 80115c0:	3301      	adds	r3, #1
 80115c2:	3240      	adds	r2, #64	; 0x40
 80115c4:	2b0c      	cmp	r3, #12
 80115c6:	d1f8      	bne.n	80115ba <create+0x1e>
 80115c8:	f04f 35ff 	mov.w	r5, #4294967295	; 0xffffffff
 80115cc:	4638      	mov	r0, r7
 80115ce:	f004 fd1b 	bl	8016008 <malloc>
 80115d2:	4604      	mov	r4, r0
 80115d4:	463a      	mov	r2, r7
 80115d6:	2100      	movs	r1, #0
 80115d8:	f003 ffa4 	bl	8015524 <memset>
 80115dc:	2c00      	cmp	r4, #0
 80115de:	d04c      	beq.n	801167a <create+0xde>
 80115e0:	4b28      	ldr	r3, [pc, #160]	; (8011684 <create+0xe8>)
 80115e2:	01ae      	lsls	r6, r5, #6
 80115e4:	eb03 1985 	add.w	r9, r3, r5, lsl #6
 80115e8:	2200      	movs	r2, #0
 80115ea:	f889 2034 	strb.w	r2, [r9, #52]	; 0x34
 80115ee:	2205      	movs	r2, #5
 80115f0:	f889 201e 	strb.w	r2, [r9, #30]
 80115f4:	519c      	str	r4, [r3, r6]
 80115f6:	f8c9 7008 	str.w	r7, [r9, #8]
 80115fa:	f106 0024 	add.w	r0, r6, #36	; 0x24
 80115fe:	4651      	mov	r1, sl
 8011600:	4418      	add	r0, r3
 8011602:	f003 ffb9 	bl	8015578 <strcpy>
 8011606:	f889 501c 	strb.w	r5, [r9, #28]
 801160a:	4a1f      	ldr	r2, [pc, #124]	; (8011688 <create+0xec>)
 801160c:	7813      	ldrb	r3, [r2, #0]
 801160e:	3301      	adds	r3, #1
 8011610:	7013      	strb	r3, [r2, #0]
 8011612:	ab0f      	add	r3, sp, #60	; 0x3c
 8011614:	9303      	str	r3, [sp, #12]
 8011616:	f1bb 0f00 	cmp.w	fp, #0
 801161a:	dd0f      	ble.n	801163c <create+0xa0>
 801161c:	4a1b      	ldr	r2, [pc, #108]	; (801168c <create+0xf0>)
 801161e:	4432      	add	r2, r6
 8011620:	eb0b 1105 	add.w	r1, fp, r5, lsl #4
 8011624:	f108 030c 	add.w	r3, r8, #12
 8011628:	eb03 0381 	add.w	r3, r3, r1, lsl #2
 801162c:	9903      	ldr	r1, [sp, #12]
 801162e:	1d08      	adds	r0, r1, #4
 8011630:	9003      	str	r0, [sp, #12]
 8011632:	6809      	ldr	r1, [r1, #0]
 8011634:	f842 1b04 	str.w	r1, [r2], #4
 8011638:	429a      	cmp	r2, r3
 801163a:	d1f7      	bne.n	801162c <create+0x90>
 801163c:	443c      	add	r4, r7
 801163e:	4a11      	ldr	r2, [pc, #68]	; (8011684 <create+0xe8>)
 8011640:	eb02 1385 	add.w	r3, r2, r5, lsl #6
 8011644:	f1a4 0140 	sub.w	r1, r4, #64	; 0x40
 8011648:	6059      	str	r1, [r3, #4]
 801164a:	f844 bc20 	str.w	fp, [r4, #-32]
 801164e:	f106 030c 	add.w	r3, r6, #12
 8011652:	4413      	add	r3, r2
 8011654:	f844 3c1c 	str.w	r3, [r4, #-28]
 8011658:	4b0d      	ldr	r3, [pc, #52]	; (8011690 <create+0xf4>)
 801165a:	f844 3c0c 	str.w	r3, [r4, #-12]
 801165e:	9b01      	ldr	r3, [sp, #4]
 8011660:	f844 3c08 	str.w	r3, [r4, #-8]
 8011664:	f04f 7380 	mov.w	r3, #16777216	; 0x1000000
 8011668:	f844 3c04 	str.w	r3, [r4, #-4]
 801166c:	9800      	ldr	r0, [sp, #0]
 801166e:	f003 fe9d 	bl	80153ac <restore>
 8011672:	4628      	mov	r0, r5
 8011674:	b005      	add	sp, #20
 8011676:	e8bd 8ff0 	ldmia.w	sp!, {r4, r5, r6, r7, r8, r9, sl, fp, pc}
 801167a:	4651      	mov	r1, sl
 801167c:	4805      	ldr	r0, [pc, #20]	; (8011694 <create+0xf8>)
 801167e:	f7ff fc4d 	bl	8010f1c <kprintf>
 8011682:	e7fe      	b.n	8011682 <create+0xe6>
 8011684:	20000db4 	.word	0x20000db4
 8011688:	200010bc 	.word	0x200010bc
 801168c:	20000dc0 	.word	0x20000dc0
 8011690:	080114d5 	.word	0x080114d5
 8011694:	080193e0 	.word	0x080193e0

08011698 <xsh_echo>:
 8011698:	2000      	movs	r0, #0
 801169a:	4770      	bx	lr

0801169c <xsh_reboot>:
 801169c:	4903      	ldr	r1, [pc, #12]	; (80116ac <xsh_reboot+0x10>)
 801169e:	68ca      	ldr	r2, [r1, #12]
 80116a0:	f402 62e0 	and.w	r2, r2, #1792	; 0x700
 80116a4:	4b02      	ldr	r3, [pc, #8]	; (80116b0 <xsh_reboot+0x14>)
 80116a6:	4313      	orrs	r3, r2
 80116a8:	60cb      	str	r3, [r1, #12]
 80116aa:	e7fe      	b.n	80116aa <xsh_reboot+0xe>
 80116ac:	e000ed00 	.word	0xe000ed00
 80116b0:	05fa0004 	.word	0x05fa0004

080116b4 <xsh_ready>:
 80116b4:	b508      	push	{r3, lr}
 80116b6:	6848      	ldr	r0, [r1, #4]
 80116b8:	f003 fe94 	bl	80153e4 <atoi>
 80116bc:	f7fe fd95 	bl	80101ea <syscall_ready>
 80116c0:	2000      	movs	r0, #0
 80116c2:	bd08      	pop	{r3, pc}

080116c4 <xsh_help>:
 80116c4:	b5f8      	push	{r3, r4, r5, r6, r7, lr}
 80116c6:	480a      	ldr	r0, [pc, #40]	; (80116f0 <xsh_help+0x2c>)
 80116c8:	f7ff fc3a 	bl	8010f40 <printf>
 80116cc:	4b09      	ldr	r3, [pc, #36]	; (80116f4 <xsh_help+0x30>)
 80116ce:	681b      	ldr	r3, [r3, #0]
 80116d0:	b163      	cbz	r3, 80116ec <xsh_help+0x28>
 80116d2:	4d09      	ldr	r5, [pc, #36]	; (80116f8 <xsh_help+0x34>)
 80116d4:	2400      	movs	r4, #0
 80116d6:	4f09      	ldr	r7, [pc, #36]	; (80116fc <xsh_help+0x38>)
 80116d8:	4e06      	ldr	r6, [pc, #24]	; (80116f4 <xsh_help+0x30>)
 80116da:	4629      	mov	r1, r5
 80116dc:	4638      	mov	r0, r7
 80116de:	f7ff fc2f 	bl	8010f40 <printf>
 80116e2:	3401      	adds	r4, #1
 80116e4:	3514      	adds	r5, #20
 80116e6:	6833      	ldr	r3, [r6, #0]
 80116e8:	42a3      	cmp	r3, r4
 80116ea:	d8f6      	bhi.n	80116da <xsh_help+0x16>
 80116ec:	2000      	movs	r0, #0
 80116ee:	bdf8      	pop	{r3, r4, r5, r6, r7, pc}
 80116f0:	0801934c 	.word	0x0801934c
 80116f4:	20000000 	.word	0x20000000
 80116f8:	080195b0 	.word	0x080195b0
 80116fc:	08019430 	.word	0x08019430

08011700 <read>:
 8011700:	b5f0      	push	{r4, r5, r6, r7, lr}
 8011702:	b083      	sub	sp, #12
 8011704:	4604      	mov	r4, r0
 8011706:	f001 061f 	and.w	r6, r1, #31
 801170a:	f850 3026 	ldr.w	r3, [r0, r6, lsl #2]
 801170e:	4299      	cmp	r1, r3
 8011710:	d01b      	beq.n	801174a <read+0x4a>
 8011712:	460d      	mov	r5, r1
 8011714:	4f12      	ldr	r7, [pc, #72]	; (8011760 <read+0x60>)
 8011716:	2200      	movs	r2, #0
 8011718:	6838      	ldr	r0, [r7, #0]
 801171a:	f7fe fdd6 	bl	80102ca <syscall_fseek>
 801171e:	683b      	ldr	r3, [r7, #0]
 8011720:	2201      	movs	r2, #1
 8011722:	4611      	mov	r1, r2
 8011724:	f10d 0007 	add.w	r0, sp, #7
 8011728:	f7fe fdd7 	bl	80102da <syscall_fread>
 801172c:	f89d 2007 	ldrb.w	r2, [sp, #7]
 8011730:	f854 3026 	ldr.w	r3, [r4, r6, lsl #2]
 8011734:	429d      	cmp	r5, r3
 8011736:	d00e      	beq.n	8011756 <read+0x56>
 8011738:	f844 5026 	str.w	r5, [r4, r6, lsl #2]
 801173c:	4434      	add	r4, r6
 801173e:	f884 2080 	strb.w	r2, [r4, #128]	; 0x80
 8011742:	f89d 0007 	ldrb.w	r0, [sp, #7]
 8011746:	b003      	add	sp, #12
 8011748:	bdf0      	pop	{r4, r5, r6, r7, pc}
 801174a:	4434      	add	r4, r6
 801174c:	f894 3080 	ldrb.w	r3, [r4, #128]	; 0x80
 8011750:	f88d 3007 	strb.w	r3, [sp, #7]
 8011754:	e7f5      	b.n	8011742 <read+0x42>
 8011756:	4434      	add	r4, r6
 8011758:	f884 2080 	strb.w	r2, [r4, #128]	; 0x80
 801175c:	e7f1      	b.n	8011742 <read+0x42>
 801175e:	bf00      	nop
 8011760:	200010d0 	.word	0x200010d0

08011764 <xsh_test>:
 8011764:	b570      	push	{r4, r5, r6, lr}
 8011766:	b0a8      	sub	sp, #160	; 0xa0
 8011768:	f1ad 0304 	sub.w	r3, sp, #4
 801176c:	f10d 027f 	add.w	r2, sp, #127	; 0x7f
 8011770:	ac1f      	add	r4, sp, #124	; 0x7c
 8011772:	f04f 30ff 	mov.w	r0, #4294967295	; 0xffffffff
 8011776:	2100      	movs	r1, #0
 8011778:	f843 0f04 	str.w	r0, [r3, #4]!
 801177c:	f802 1f01 	strb.w	r1, [r2, #1]!
 8011780:	42a3      	cmp	r3, r4
 8011782:	d1f9      	bne.n	8011778 <xsh_test+0x14>
 8011784:	491e      	ldr	r1, [pc, #120]	; (8011800 <xsh_test+0x9c>)
 8011786:	481f      	ldr	r0, [pc, #124]	; (8011804 <xsh_test+0xa0>)
 8011788:	f7fe fd98 	bl	80102bc <syscall_fopen>
 801178c:	4b1e      	ldr	r3, [pc, #120]	; (8011808 <xsh_test+0xa4>)
 801178e:	6018      	str	r0, [r3, #0]
 8011790:	b378      	cbz	r0, 80117f2 <xsh_test+0x8e>
 8011792:	4b1e      	ldr	r3, [pc, #120]	; (801180c <xsh_test+0xa8>)
 8011794:	681e      	ldr	r6, [r3, #0]
 8011796:	2400      	movs	r4, #0
 8011798:	4d1d      	ldr	r5, [pc, #116]	; (8011810 <xsh_test+0xac>)
 801179a:	4621      	mov	r1, r4
 801179c:	4668      	mov	r0, sp
 801179e:	f7ff ffaf 	bl	8011700 <read>
 80117a2:	4601      	mov	r1, r0
 80117a4:	4628      	mov	r0, r5
 80117a6:	f7ff fbcb 	bl	8010f40 <printf>
 80117aa:	3401      	adds	r4, #1
 80117ac:	2c20      	cmp	r4, #32
 80117ae:	d1f4      	bne.n	801179a <xsh_test+0x36>
 80117b0:	4c16      	ldr	r4, [pc, #88]	; (801180c <xsh_test+0xa8>)
 80117b2:	6821      	ldr	r1, [r4, #0]
 80117b4:	1b89      	subs	r1, r1, r6
 80117b6:	4817      	ldr	r0, [pc, #92]	; (8011814 <xsh_test+0xb0>)
 80117b8:	f7ff fbc2 	bl	8010f40 <printf>
 80117bc:	6826      	ldr	r6, [r4, #0]
 80117be:	2400      	movs	r4, #0
 80117c0:	4d13      	ldr	r5, [pc, #76]	; (8011810 <xsh_test+0xac>)
 80117c2:	4621      	mov	r1, r4
 80117c4:	4668      	mov	r0, sp
 80117c6:	f7ff ff9b 	bl	8011700 <read>
 80117ca:	4601      	mov	r1, r0
 80117cc:	4628      	mov	r0, r5
 80117ce:	f7ff fbb7 	bl	8010f40 <printf>
 80117d2:	3401      	adds	r4, #1
 80117d4:	2c20      	cmp	r4, #32
 80117d6:	d1f4      	bne.n	80117c2 <xsh_test+0x5e>
 80117d8:	4b0c      	ldr	r3, [pc, #48]	; (801180c <xsh_test+0xa8>)
 80117da:	6819      	ldr	r1, [r3, #0]
 80117dc:	1b89      	subs	r1, r1, r6
 80117de:	480e      	ldr	r0, [pc, #56]	; (8011818 <xsh_test+0xb4>)
 80117e0:	f7ff fbae 	bl	8010f40 <printf>
 80117e4:	4b08      	ldr	r3, [pc, #32]	; (8011808 <xsh_test+0xa4>)
 80117e6:	6818      	ldr	r0, [r3, #0]
 80117e8:	f7fe fd7e 	bl	80102e8 <syscall_fclose>
 80117ec:	2000      	movs	r0, #0
 80117ee:	b028      	add	sp, #160	; 0xa0
 80117f0:	bd70      	pop	{r4, r5, r6, pc}
 80117f2:	480a      	ldr	r0, [pc, #40]	; (801181c <xsh_test+0xb8>)
 80117f4:	f7ff fba4 	bl	8010f40 <printf>
 80117f8:	f04f 30ff 	mov.w	r0, #4294967295	; 0xffffffff
 80117fc:	e7f7      	b.n	80117ee <xsh_test+0x8a>
 80117fe:	bf00      	nop
 8011800:	080194ec 	.word	0x080194ec
 8011804:	08019438 	.word	0x08019438
 8011808:	200010d0 	.word	0x200010d0
 801180c:	20000da4 	.word	0x20000da4
 8011810:	08019440 	.word	0x08019440
 8011814:	08019448 	.word	0x08019448
 8011818:	08019454 	.word	0x08019454
 801181c:	080192b8 	.word	0x080192b8

08011820 <xsh_bin>:
 8011820:	b570      	push	{r4, r5, r6, lr}
 8011822:	460b      	mov	r3, r1
 8011824:	4918      	ldr	r1, [pc, #96]	; (8011888 <xsh_bin+0x68>)
 8011826:	6858      	ldr	r0, [r3, #4]
 8011828:	f7fe fd48 	bl	80102bc <syscall_fopen>
 801182c:	b328      	cbz	r0, 801187a <xsh_bin+0x5a>
 801182e:	4605      	mov	r5, r0
 8011830:	2202      	movs	r2, #2
 8011832:	2100      	movs	r1, #0
 8011834:	f7fe fd49 	bl	80102ca <syscall_fseek>
 8011838:	4628      	mov	r0, r5
 801183a:	f7fe fd5b 	bl	80102f4 <syscall_ftell>
 801183e:	4606      	mov	r6, r0
 8011840:	4601      	mov	r1, r0
 8011842:	4812      	ldr	r0, [pc, #72]	; (801188c <xsh_bin+0x6c>)
 8011844:	f7ff fb7c 	bl	8010f40 <printf>
 8011848:	4630      	mov	r0, r6
 801184a:	f7fe fcd4 	bl	80101f6 <syscall_malloc>
 801184e:	4604      	mov	r4, r0
 8011850:	2200      	movs	r2, #0
 8011852:	4611      	mov	r1, r2
 8011854:	4628      	mov	r0, r5
 8011856:	f7fe fd38 	bl	80102ca <syscall_fseek>
 801185a:	462b      	mov	r3, r5
 801185c:	2201      	movs	r2, #1
 801185e:	4631      	mov	r1, r6
 8011860:	4620      	mov	r0, r4
 8011862:	f7fe fd3a 	bl	80102da <syscall_fread>
 8011866:	4628      	mov	r0, r5
 8011868:	f7fe fd3e 	bl	80102e8 <syscall_fclose>
 801186c:	f044 0401 	orr.w	r4, r4, #1
 8011870:	2100      	movs	r1, #0
 8011872:	4608      	mov	r0, r1
 8011874:	47a0      	blx	r4
 8011876:	2000      	movs	r0, #0
 8011878:	bd70      	pop	{r4, r5, r6, pc}
 801187a:	4805      	ldr	r0, [pc, #20]	; (8011890 <xsh_bin+0x70>)
 801187c:	f7ff fb60 	bl	8010f40 <printf>
 8011880:	f04f 30ff 	mov.w	r0, #4294967295	; 0xffffffff
 8011884:	e7f8      	b.n	8011878 <xsh_bin+0x58>
 8011886:	bf00      	nop
 8011888:	080194ec 	.word	0x080194ec
 801188c:	08019460 	.word	0x08019460
 8011890:	080192b8 	.word	0x080192b8

08011894 <xsh_dump>:
 8011894:	e92d 43f8 	stmdb	sp!, {r3, r4, r5, r6, r7, r8, r9, lr}
 8011898:	460b      	mov	r3, r1
 801189a:	4922      	ldr	r1, [pc, #136]	; (8011924 <xsh_dump+0x90>)
 801189c:	6858      	ldr	r0, [r3, #4]
 801189e:	f7fe fd0d 	bl	80102bc <syscall_fopen>
 80118a2:	b378      	cbz	r0, 8011904 <xsh_dump+0x70>
 80118a4:	4607      	mov	r7, r0
 80118a6:	2202      	movs	r2, #2
 80118a8:	2100      	movs	r1, #0
 80118aa:	f7fe fd0e 	bl	80102ca <syscall_fseek>
 80118ae:	4638      	mov	r0, r7
 80118b0:	f7fe fd20 	bl	80102f4 <syscall_ftell>
 80118b4:	4601      	mov	r1, r0
 80118b6:	481c      	ldr	r0, [pc, #112]	; (8011928 <xsh_dump+0x94>)
 80118b8:	f7ff fb42 	bl	8010f40 <printf>
 80118bc:	2040      	movs	r0, #64	; 0x40
 80118be:	f7fe fc9a 	bl	80101f6 <syscall_malloc>
 80118c2:	4604      	mov	r4, r0
 80118c4:	2200      	movs	r2, #0
 80118c6:	4611      	mov	r1, r2
 80118c8:	4638      	mov	r0, r7
 80118ca:	f7fe fcfe 	bl	80102ca <syscall_fseek>
 80118ce:	2600      	movs	r6, #0
 80118d0:	f04f 0901 	mov.w	r9, #1
 80118d4:	2540      	movs	r5, #64	; 0x40
 80118d6:	46b0      	mov	r8, r6
 80118d8:	4638      	mov	r0, r7
 80118da:	f7fe fd11 	bl	8010300 <syscall_feof>
 80118de:	b9b8      	cbnz	r0, 8011910 <xsh_dump+0x7c>
 80118e0:	463b      	mov	r3, r7
 80118e2:	464a      	mov	r2, r9
 80118e4:	4629      	mov	r1, r5
 80118e6:	4620      	mov	r0, r4
 80118e8:	f7fe fcf7 	bl	80102da <syscall_fread>
 80118ec:	462a      	mov	r2, r5
 80118ee:	4621      	mov	r1, r4
 80118f0:	4630      	mov	r0, r6
 80118f2:	f7ff fb43 	bl	8010f7c <hexDump2>
 80118f6:	462a      	mov	r2, r5
 80118f8:	4641      	mov	r1, r8
 80118fa:	4620      	mov	r0, r4
 80118fc:	f003 fe12 	bl	8015524 <memset>
 8011900:	3640      	adds	r6, #64	; 0x40
 8011902:	e7e9      	b.n	80118d8 <xsh_dump+0x44>
 8011904:	4809      	ldr	r0, [pc, #36]	; (801192c <xsh_dump+0x98>)
 8011906:	f7ff fb1b 	bl	8010f40 <printf>
 801190a:	f04f 30ff 	mov.w	r0, #4294967295	; 0xffffffff
 801190e:	e006      	b.n	801191e <xsh_dump+0x8a>
 8011910:	4620      	mov	r0, r4
 8011912:	f7fe fc76 	bl	8010202 <syscall_free>
 8011916:	4638      	mov	r0, r7
 8011918:	f7fe fce6 	bl	80102e8 <syscall_fclose>
 801191c:	2000      	movs	r0, #0
 801191e:	e8bd 83f8 	ldmia.w	sp!, {r3, r4, r5, r6, r7, r8, r9, pc}
 8011922:	bf00      	nop
 8011924:	080194ec 	.word	0x080194ec
 8011928:	08019460 	.word	0x08019460
 801192c:	080192b8 	.word	0x080192b8

08011930 <xsh_exit>:
 8011930:	b508      	push	{r3, lr}
 8011932:	f7fe fc9b 	bl	801026c <syscall_getpid>
 8011936:	f7fe fc81 	bl	801023c <syscall_kill>
 801193a:	2000      	movs	r0, #0
 801193c:	bd08      	pop	{r3, pc}

0801193e <xsh_kill>:
 801193e:	b538      	push	{r3, r4, r5, lr}
 8011940:	460c      	mov	r4, r1
 8011942:	6848      	ldr	r0, [r1, #4]
 8011944:	f003 fd4e 	bl	80153e4 <atoi>
 8011948:	b148      	cbz	r0, 801195e <xsh_kill+0x20>
 801194a:	4605      	mov	r5, r0
 801194c:	f7fe fc93 	bl	8010276 <syscall_struct_task>
 8011950:	7f83      	ldrb	r3, [r0, #30]
 8011952:	b153      	cbz	r3, 801196a <xsh_kill+0x2c>
 8011954:	4628      	mov	r0, r5
 8011956:	f7fe fc71 	bl	801023c <syscall_kill>
 801195a:	2000      	movs	r0, #0
 801195c:	e004      	b.n	8011968 <xsh_kill+0x2a>
 801195e:	6821      	ldr	r1, [r4, #0]
 8011960:	4805      	ldr	r0, [pc, #20]	; (8011978 <xsh_kill+0x3a>)
 8011962:	f7ff faed 	bl	8010f40 <printf>
 8011966:	2001      	movs	r0, #1
 8011968:	bd38      	pop	{r3, r4, r5, pc}
 801196a:	4629      	mov	r1, r5
 801196c:	4803      	ldr	r0, [pc, #12]	; (801197c <xsh_kill+0x3e>)
 801196e:	f7ff fae7 	bl	8010f40 <printf>
 8011972:	2000      	movs	r0, #0
 8011974:	e7f8      	b.n	8011968 <xsh_kill+0x2a>
 8011976:	bf00      	nop
 8011978:	0801946c 	.word	0x0801946c
 801197c:	08019490 	.word	0x08019490

08011980 <xsh_ps>:
 8011980:	b530      	push	{r4, r5, lr}
 8011982:	b08d      	sub	sp, #52	; 0x34
 8011984:	ac05      	add	r4, sp, #20
 8011986:	4d1c      	ldr	r5, [pc, #112]	; (80119f8 <xsh_ps+0x78>)
 8011988:	cd0f      	ldmia	r5!, {r0, r1, r2, r3}
 801198a:	c40f      	stmia	r4!, {r0, r1, r2, r3}
 801198c:	e895 0007 	ldmia.w	r5, {r0, r1, r2}
 8011990:	e884 0007 	stmia.w	r4, {r0, r1, r2}
 8011994:	4819      	ldr	r0, [pc, #100]	; (80119fc <xsh_ps+0x7c>)
 8011996:	f7ff fad3 	bl	8010f40 <printf>
 801199a:	4b19      	ldr	r3, [pc, #100]	; (8011a00 <xsh_ps+0x80>)
 801199c:	9302      	str	r3, [sp, #8]
 801199e:	4b19      	ldr	r3, [pc, #100]	; (8011a04 <xsh_ps+0x84>)
 80119a0:	9301      	str	r3, [sp, #4]
 80119a2:	4b19      	ldr	r3, [pc, #100]	; (8011a08 <xsh_ps+0x88>)
 80119a4:	9300      	str	r3, [sp, #0]
 80119a6:	4b19      	ldr	r3, [pc, #100]	; (8011a0c <xsh_ps+0x8c>)
 80119a8:	4a19      	ldr	r2, [pc, #100]	; (8011a10 <xsh_ps+0x90>)
 80119aa:	491a      	ldr	r1, [pc, #104]	; (8011a14 <xsh_ps+0x94>)
 80119ac:	481a      	ldr	r0, [pc, #104]	; (8011a18 <xsh_ps+0x98>)
 80119ae:	f7ff fac7 	bl	8010f40 <printf>
 80119b2:	2400      	movs	r4, #0
 80119b4:	4d19      	ldr	r5, [pc, #100]	; (8011a1c <xsh_ps+0x9c>)
 80119b6:	e000      	b.n	80119ba <xsh_ps+0x3a>
 80119b8:	3401      	adds	r4, #1
 80119ba:	f7fe fc62 	bl	8010282 <syscall_num_task>
 80119be:	42a0      	cmp	r0, r4
 80119c0:	dd17      	ble.n	80119f2 <xsh_ps+0x72>
 80119c2:	4620      	mov	r0, r4
 80119c4:	f7fe fc57 	bl	8010276 <syscall_struct_task>
 80119c8:	7f83      	ldrb	r3, [r0, #30]
 80119ca:	2b00      	cmp	r3, #0
 80119cc:	d0f4      	beq.n	80119b8 <xsh_ps+0x38>
 80119ce:	aa0c      	add	r2, sp, #48	; 0x30
 80119d0:	eb02 0383 	add.w	r3, r2, r3, lsl #2
 80119d4:	6882      	ldr	r2, [r0, #8]
 80119d6:	9202      	str	r2, [sp, #8]
 80119d8:	6842      	ldr	r2, [r0, #4]
 80119da:	9201      	str	r2, [sp, #4]
 80119dc:	6802      	ldr	r2, [r0, #0]
 80119de:	9200      	str	r2, [sp, #0]
 80119e0:	f853 3c1c 	ldr.w	r3, [r3, #-28]
 80119e4:	f100 0224 	add.w	r2, r0, #36	; 0x24
 80119e8:	4621      	mov	r1, r4
 80119ea:	4628      	mov	r0, r5
 80119ec:	f7ff faa8 	bl	8010f40 <printf>
 80119f0:	e7e2      	b.n	80119b8 <xsh_ps+0x38>
 80119f2:	2000      	movs	r0, #0
 80119f4:	b00d      	add	sp, #52	; 0x34
 80119f6:	bd30      	pop	{r4, r5, pc}
 80119f8:	080196b4 	.word	0x080196b4
 80119fc:	0801934c 	.word	0x0801934c
 8011a00:	080194d8 	.word	0x080194d8
 8011a04:	080194e4 	.word	0x080194e4
 8011a08:	080194f0 	.word	0x080194f0
 8011a0c:	080194a4 	.word	0x080194a4
 8011a10:	080194ac 	.word	0x080194ac
 8011a14:	080194b4 	.word	0x080194b4
 8011a18:	080194b8 	.word	0x080194b8
 8011a1c:	080194fc 	.word	0x080194fc

08011a20 <xsh_memstat>:
 8011a20:	b5f8      	push	{r3, r4, r5, r6, r7, lr}
 8011a22:	2014      	movs	r0, #20
 8011a24:	f003 fcca 	bl	80153bc <__syscall>
 8011a28:	4604      	mov	r4, r0
 8011a2a:	4815      	ldr	r0, [pc, #84]	; (8011a80 <xsh_memstat+0x60>)
 8011a2c:	f7ff fa88 	bl	8010f40 <printf>
 8011a30:	b31c      	cbz	r4, 8011a7a <xsh_memstat+0x5a>
 8011a32:	4e14      	ldr	r6, [pc, #80]	; (8011a84 <xsh_memstat+0x64>)
 8011a34:	4f14      	ldr	r7, [pc, #80]	; (8011a88 <xsh_memstat+0x68>)
 8011a36:	4d15      	ldr	r5, [pc, #84]	; (8011a8c <xsh_memstat+0x6c>)
 8011a38:	e00f      	b.n	8011a5a <xsh_memstat+0x3a>
 8011a3a:	4638      	mov	r0, r7
 8011a3c:	f7ff fa80 	bl	8010f40 <printf>
 8011a40:	4621      	mov	r1, r4
 8011a42:	4628      	mov	r0, r5
 8011a44:	f7ff fa7c 	bl	8010f40 <printf>
 8011a48:	6861      	ldr	r1, [r4, #4]
 8011a4a:	4811      	ldr	r0, [pc, #68]	; (8011a90 <xsh_memstat+0x70>)
 8011a4c:	f7ff fa78 	bl	8010f40 <printf>
 8011a50:	480b      	ldr	r0, [pc, #44]	; (8011a80 <xsh_memstat+0x60>)
 8011a52:	f7ff fa75 	bl	8010f40 <printf>
 8011a56:	68a4      	ldr	r4, [r4, #8]
 8011a58:	b17c      	cbz	r4, 8011a7a <xsh_memstat+0x5a>
 8011a5a:	6823      	ldr	r3, [r4, #0]
 8011a5c:	f1b3 3fa1 	cmp.w	r3, #2711724449	; 0xa1a1a1a1
 8011a60:	d0eb      	beq.n	8011a3a <xsh_memstat+0x1a>
 8011a62:	f1b3 3fbf 	cmp.w	r3, #3217014719	; 0xbfbfbfbf
 8011a66:	d103      	bne.n	8011a70 <xsh_memstat+0x50>
 8011a68:	4630      	mov	r0, r6
 8011a6a:	f7ff fa69 	bl	8010f40 <printf>
 8011a6e:	e7e7      	b.n	8011a40 <xsh_memstat+0x20>
 8011a70:	4621      	mov	r1, r4
 8011a72:	4808      	ldr	r0, [pc, #32]	; (8011a94 <xsh_memstat+0x74>)
 8011a74:	f7ff fa64 	bl	8010f40 <printf>
 8011a78:	e000      	b.n	8011a7c <xsh_memstat+0x5c>
 8011a7a:	2000      	movs	r0, #0
 8011a7c:	bdf8      	pop	{r3, r4, r5, r6, r7, pc}
 8011a7e:	bf00      	nop
 8011a80:	0801934c 	.word	0x0801934c
 8011a84:	08019528 	.word	0x08019528
 8011a88:	08019520 	.word	0x08019520
 8011a8c:	08019550 	.word	0x08019550
 8011a90:	08019558 	.word	0x08019558
 8011a94:	08019530 	.word	0x08019530

08011a98 <xsh_load>:
 8011a98:	e92d 41f0 	stmdb	sp!, {r4, r5, r6, r7, r8, lr}
 8011a9c:	460f      	mov	r7, r1
 8011a9e:	1e06      	subs	r6, r0, #0
 8011aa0:	dd0f      	ble.n	8011ac2 <xsh_load+0x2a>
 8011aa2:	1f0a      	subs	r2, r1, #4
 8011aa4:	eb02 0586 	add.w	r5, r2, r6, lsl #2
 8011aa8:	e001      	b.n	8011aae <xsh_load+0x16>
 8011aaa:	42aa      	cmp	r2, r5
 8011aac:	d009      	beq.n	8011ac2 <xsh_load+0x2a>
 8011aae:	f852 3f04 	ldr.w	r3, [r2, #4]!
 8011ab2:	781c      	ldrb	r4, [r3, #0]
 8011ab4:	2c00      	cmp	r4, #0
 8011ab6:	d0f8      	beq.n	8011aaa <xsh_load+0x12>
 8011ab8:	f813 4d01 	ldrb.w	r4, [r3, #-1]!
 8011abc:	2c00      	cmp	r4, #0
 8011abe:	d1fb      	bne.n	8011ab8 <xsh_load+0x20>
 8011ac0:	e7f3      	b.n	8011aaa <xsh_load+0x12>
 8011ac2:	493d      	ldr	r1, [pc, #244]	; (8011bb8 <xsh_load+0x120>)
 8011ac4:	6878      	ldr	r0, [r7, #4]
 8011ac6:	f7fe fbf9 	bl	80102bc <syscall_fopen>
 8011aca:	4604      	mov	r4, r0
 8011acc:	2800      	cmp	r0, #0
 8011ace:	d063      	beq.n	8011b98 <xsh_load+0x100>
 8011ad0:	2202      	movs	r2, #2
 8011ad2:	2100      	movs	r1, #0
 8011ad4:	f7fe fbf9 	bl	80102ca <syscall_fseek>
 8011ad8:	4620      	mov	r0, r4
 8011ada:	f7fe fc0b 	bl	80102f4 <syscall_ftell>
 8011ade:	4680      	mov	r8, r0
 8011ae0:	4601      	mov	r1, r0
 8011ae2:	4836      	ldr	r0, [pc, #216]	; (8011bbc <xsh_load+0x124>)
 8011ae4:	f7ff fa2c 	bl	8010f40 <printf>
 8011ae8:	4640      	mov	r0, r8
 8011aea:	f7fe fb84 	bl	80101f6 <syscall_malloc>
 8011aee:	4605      	mov	r5, r0
 8011af0:	2200      	movs	r2, #0
 8011af2:	4611      	mov	r1, r2
 8011af4:	4620      	mov	r0, r4
 8011af6:	f7fe fbe8 	bl	80102ca <syscall_fseek>
 8011afa:	4623      	mov	r3, r4
 8011afc:	2201      	movs	r2, #1
 8011afe:	4641      	mov	r1, r8
 8011b00:	4628      	mov	r0, r5
 8011b02:	f7fe fbea 	bl	80102da <syscall_fread>
 8011b06:	4620      	mov	r0, r4
 8011b08:	f7fe fbee 	bl	80102e8 <syscall_fclose>
 8011b0c:	492c      	ldr	r1, [pc, #176]	; (8011bc0 <xsh_load+0x128>)
 8011b0e:	4628      	mov	r0, r5
 8011b10:	f7fe ff7e 	bl	8010a10 <load_elf2>
 8011b14:	2800      	cmp	r0, #0
 8011b16:	d145      	bne.n	8011ba4 <xsh_load+0x10c>
 8011b18:	4628      	mov	r0, r5
 8011b1a:	f7fe fb72 	bl	8010202 <syscall_free>
 8011b1e:	4926      	ldr	r1, [pc, #152]	; (8011bb8 <xsh_load+0x120>)
 8011b20:	4827      	ldr	r0, [pc, #156]	; (8011bc0 <xsh_load+0x128>)
 8011b22:	f7fe fbcb 	bl	80102bc <syscall_fopen>
 8011b26:	4605      	mov	r5, r0
 8011b28:	2800      	cmp	r0, #0
 8011b2a:	d03f      	beq.n	8011bac <xsh_load+0x114>
 8011b2c:	2202      	movs	r2, #2
 8011b2e:	2100      	movs	r1, #0
 8011b30:	f7fe fbcb 	bl	80102ca <syscall_fseek>
 8011b34:	4628      	mov	r0, r5
 8011b36:	f7fe fbdd 	bl	80102f4 <syscall_ftell>
 8011b3a:	4680      	mov	r8, r0
 8011b3c:	4601      	mov	r1, r0
 8011b3e:	481f      	ldr	r0, [pc, #124]	; (8011bbc <xsh_load+0x124>)
 8011b40:	f7ff f9fe 	bl	8010f40 <printf>
 8011b44:	4640      	mov	r0, r8
 8011b46:	f7fe fb56 	bl	80101f6 <syscall_malloc>
 8011b4a:	4604      	mov	r4, r0
 8011b4c:	2200      	movs	r2, #0
 8011b4e:	4611      	mov	r1, r2
 8011b50:	4628      	mov	r0, r5
 8011b52:	f7fe fbba 	bl	80102ca <syscall_fseek>
 8011b56:	462b      	mov	r3, r5
 8011b58:	2201      	movs	r2, #1
 8011b5a:	4641      	mov	r1, r8
 8011b5c:	4620      	mov	r0, r4
 8011b5e:	f7fe fbbc 	bl	80102da <syscall_fread>
 8011b62:	4628      	mov	r0, r5
 8011b64:	f7fe fbc0 	bl	80102e8 <syscall_fclose>
 8011b68:	4815      	ldr	r0, [pc, #84]	; (8011bc0 <xsh_load+0x128>)
 8011b6a:	f7fe fbcf 	bl	801030c <syscall_remove>
 8011b6e:	f7fe fb7d 	bl	801026c <syscall_getpid>
 8011b72:	f7fe fb80 	bl	8010276 <syscall_struct_task>
 8011b76:	2301      	movs	r3, #1
 8011b78:	f880 3034 	strb.w	r3, [r0, #52]	; 0x34
 8011b7c:	6384      	str	r4, [r0, #56]	; 0x38
 8011b7e:	f857 1f04 	ldr.w	r1, [r7, #4]!
 8011b82:	3024      	adds	r0, #36	; 0x24
 8011b84:	f003 fcf8 	bl	8015578 <strcpy>
 8011b88:	f044 0401 	orr.w	r4, r4, #1
 8011b8c:	4639      	mov	r1, r7
 8011b8e:	1e70      	subs	r0, r6, #1
 8011b90:	47a0      	blx	r4
 8011b92:	2000      	movs	r0, #0
 8011b94:	e8bd 81f0 	ldmia.w	sp!, {r4, r5, r6, r7, r8, pc}
 8011b98:	480a      	ldr	r0, [pc, #40]	; (8011bc4 <xsh_load+0x12c>)
 8011b9a:	f7ff f9d1 	bl	8010f40 <printf>
 8011b9e:	f04f 30ff 	mov.w	r0, #4294967295	; 0xffffffff
 8011ba2:	e7f7      	b.n	8011b94 <xsh_load+0xfc>
 8011ba4:	4808      	ldr	r0, [pc, #32]	; (8011bc8 <xsh_load+0x130>)
 8011ba6:	f7ff f9cb 	bl	8010f40 <printf>
 8011baa:	e7b5      	b.n	8011b18 <xsh_load+0x80>
 8011bac:	4805      	ldr	r0, [pc, #20]	; (8011bc4 <xsh_load+0x12c>)
 8011bae:	f7ff f9c7 	bl	8010f40 <printf>
 8011bb2:	f04f 30ff 	mov.w	r0, #4294967295	; 0xffffffff
 8011bb6:	e7ed      	b.n	8011b94 <xsh_load+0xfc>
 8011bb8:	080194ec 	.word	0x080194ec
 8011bbc:	08019460 	.word	0x08019460
 8011bc0:	08019438 	.word	0x08019438
 8011bc4:	080192b8 	.word	0x080192b8
 8011bc8:	08019564 	.word	0x08019564

08011bcc <xsh_elf>:
 8011bcc:	e92d 41f0 	stmdb	sp!, {r4, r5, r6, r7, r8, lr}
 8011bd0:	b086      	sub	sp, #24
 8011bd2:	460e      	mov	r6, r1
 8011bd4:	1e07      	subs	r7, r0, #0
 8011bd6:	dd0f      	ble.n	8011bf8 <xsh_elf+0x2c>
 8011bd8:	1f0a      	subs	r2, r1, #4
 8011bda:	eb02 0587 	add.w	r5, r2, r7, lsl #2
 8011bde:	e001      	b.n	8011be4 <xsh_elf+0x18>
 8011be0:	42aa      	cmp	r2, r5
 8011be2:	d009      	beq.n	8011bf8 <xsh_elf+0x2c>
 8011be4:	f852 3f04 	ldr.w	r3, [r2, #4]!
 8011be8:	781c      	ldrb	r4, [r3, #0]
 8011bea:	2c00      	cmp	r4, #0
 8011bec:	d0f8      	beq.n	8011be0 <xsh_elf+0x14>
 8011bee:	f813 4d01 	ldrb.w	r4, [r3, #-1]!
 8011bf2:	2c00      	cmp	r4, #0
 8011bf4:	d1fb      	bne.n	8011bee <xsh_elf+0x22>
 8011bf6:	e7f3      	b.n	8011be0 <xsh_elf+0x14>
 8011bf8:	4926      	ldr	r1, [pc, #152]	; (8011c94 <xsh_elf+0xc8>)
 8011bfa:	6870      	ldr	r0, [r6, #4]
 8011bfc:	f7fe fb5e 	bl	80102bc <syscall_fopen>
 8011c00:	4604      	mov	r4, r0
 8011c02:	2800      	cmp	r0, #0
 8011c04:	d03c      	beq.n	8011c80 <xsh_elf+0xb4>
 8011c06:	2202      	movs	r2, #2
 8011c08:	2100      	movs	r1, #0
 8011c0a:	f7fe fb5e 	bl	80102ca <syscall_fseek>
 8011c0e:	4620      	mov	r0, r4
 8011c10:	f7fe fb70 	bl	80102f4 <syscall_ftell>
 8011c14:	4680      	mov	r8, r0
 8011c16:	4601      	mov	r1, r0
 8011c18:	481f      	ldr	r0, [pc, #124]	; (8011c98 <xsh_elf+0xcc>)
 8011c1a:	f7ff f991 	bl	8010f40 <printf>
 8011c1e:	4640      	mov	r0, r8
 8011c20:	f7fe fae9 	bl	80101f6 <syscall_malloc>
 8011c24:	4605      	mov	r5, r0
 8011c26:	2200      	movs	r2, #0
 8011c28:	4611      	mov	r1, r2
 8011c2a:	4620      	mov	r0, r4
 8011c2c:	f7fe fb4d 	bl	80102ca <syscall_fseek>
 8011c30:	4623      	mov	r3, r4
 8011c32:	2201      	movs	r2, #1
 8011c34:	4641      	mov	r1, r8
 8011c36:	4628      	mov	r0, r5
 8011c38:	f7fe fb4f 	bl	80102da <syscall_fread>
 8011c3c:	4620      	mov	r0, r4
 8011c3e:	f7fe fb53 	bl	80102e8 <syscall_fclose>
 8011c42:	9501      	str	r5, [sp, #4]
 8011c44:	a902      	add	r1, sp, #8
 8011c46:	a801      	add	r0, sp, #4
 8011c48:	f7fe fe3a 	bl	80108c0 <load_elf>
 8011c4c:	b9f0      	cbnz	r0, 8011c8c <xsh_elf+0xc0>
 8011c4e:	4628      	mov	r0, r5
 8011c50:	f7fe fad7 	bl	8010202 <syscall_free>
 8011c54:	f7fe fb0a 	bl	801026c <syscall_getpid>
 8011c58:	f7fe fb0d 	bl	8010276 <syscall_struct_task>
 8011c5c:	2301      	movs	r3, #1
 8011c5e:	f880 3034 	strb.w	r3, [r0, #52]	; 0x34
 8011c62:	9b02      	ldr	r3, [sp, #8]
 8011c64:	6383      	str	r3, [r0, #56]	; 0x38
 8011c66:	f856 1f04 	ldr.w	r1, [r6, #4]!
 8011c6a:	3024      	adds	r0, #36	; 0x24
 8011c6c:	f003 fc84 	bl	8015578 <strcpy>
 8011c70:	4631      	mov	r1, r6
 8011c72:	1e78      	subs	r0, r7, #1
 8011c74:	9b04      	ldr	r3, [sp, #16]
 8011c76:	4798      	blx	r3
 8011c78:	2000      	movs	r0, #0
 8011c7a:	b006      	add	sp, #24
 8011c7c:	e8bd 81f0 	ldmia.w	sp!, {r4, r5, r6, r7, r8, pc}
 8011c80:	4806      	ldr	r0, [pc, #24]	; (8011c9c <xsh_elf+0xd0>)
 8011c82:	f7ff f95d 	bl	8010f40 <printf>
 8011c86:	f04f 30ff 	mov.w	r0, #4294967295	; 0xffffffff
 8011c8a:	e7f6      	b.n	8011c7a <xsh_elf+0xae>
 8011c8c:	4804      	ldr	r0, [pc, #16]	; (8011ca0 <xsh_elf+0xd4>)
 8011c8e:	f7fe fa81 	bl	8010194 <panic>
 8011c92:	e7dc      	b.n	8011c4e <xsh_elf+0x82>
 8011c94:	080194ec 	.word	0x080194ec
 8011c98:	08019460 	.word	0x08019460
 8011c9c:	080192b8 	.word	0x080192b8
 8011ca0:	08019570 	.word	0x08019570

08011ca4 <shell>:
 8011ca4:	e92d 4ff0 	stmdb	sp!, {r4, r5, r6, r7, r8, r9, sl, fp, lr}
 8011ca8:	b0b9      	sub	sp, #228	; 0xe4
 8011caa:	4d60      	ldr	r5, [pc, #384]	; (8011e2c <shell+0x188>)
 8011cac:	4e60      	ldr	r6, [pc, #384]	; (8011e30 <shell+0x18c>)
 8011cae:	4f61      	ldr	r7, [pc, #388]	; (8011e34 <shell+0x190>)
 8011cb0:	e007      	b.n	8011cc2 <shell+0x1e>
 8011cb2:	4631      	mov	r1, r6
 8011cb4:	4860      	ldr	r0, [pc, #384]	; (8011e38 <shell+0x194>)
 8011cb6:	f7ff f943 	bl	8010f40 <printf>
 8011cba:	e002      	b.n	8011cc2 <shell+0x1e>
 8011cbc:	485f      	ldr	r0, [pc, #380]	; (8011e3c <shell+0x198>)
 8011cbe:	f7ff f93f 	bl	8010f40 <printf>
 8011cc2:	4628      	mov	r0, r5
 8011cc4:	f7ff f93c 	bl	8010f40 <printf>
 8011cc8:	a828      	add	r0, sp, #160	; 0xa0
 8011cca:	f7ff fb37 	bl	801133c <gets_base2>
 8011cce:	4601      	mov	r1, r0
 8011cd0:	f110 0f02 	cmn.w	r0, #2
 8011cd4:	f000 80a6 	beq.w	8011e24 <shell+0x180>
 8011cd8:	2801      	cmp	r0, #1
 8011cda:	ddf2      	ble.n	8011cc2 <shell+0x1e>
 8011cdc:	ab38      	add	r3, sp, #224	; 0xe0
 8011cde:	4403      	add	r3, r0
 8011ce0:	220a      	movs	r2, #10
 8011ce2:	f803 2c40 	strb.w	r2, [r3, #-64]
 8011ce6:	ab09      	add	r3, sp, #36	; 0x24
 8011ce8:	9301      	str	r3, [sp, #4]
 8011cea:	ab0f      	add	r3, sp, #60	; 0x3c
 8011cec:	9300      	str	r3, [sp, #0]
 8011cee:	ab15      	add	r3, sp, #84	; 0x54
 8011cf0:	aa16      	add	r2, sp, #88	; 0x58
 8011cf2:	a828      	add	r0, sp, #160	; 0xa0
 8011cf4:	f000 f904 	bl	8011f00 <lexan>
 8011cf8:	4604      	mov	r4, r0
 8011cfa:	f1b0 3fff 	cmp.w	r0, #4294967295	; 0xffffffff
 8011cfe:	d0d8      	beq.n	8011cb2 <shell+0xe>
 8011d00:	2800      	cmp	r0, #0
 8011d02:	d0db      	beq.n	8011cbc <shell+0x18>
 8011d04:	1e43      	subs	r3, r0, #1
 8011d06:	aa38      	add	r2, sp, #224	; 0xe0
 8011d08:	eb02 0283 	add.w	r2, r2, r3, lsl #2
 8011d0c:	f852 2cbc 	ldr.w	r2, [r2, #-188]
 8011d10:	2a00      	cmp	r2, #0
 8011d12:	d16c      	bne.n	8011dee <shell+0x14a>
 8011d14:	9a15      	ldr	r2, [sp, #84]	; 0x54
 8011d16:	3a02      	subs	r2, #2
 8011d18:	9215      	str	r2, [sp, #84]	; 0x54
 8011d1a:	2b00      	cmp	r3, #0
 8011d1c:	dd61      	ble.n	8011de2 <shell+0x13e>
 8011d1e:	461c      	mov	r4, r3
 8011d20:	f04f 0801 	mov.w	r8, #1
 8011d24:	e06a      	b.n	8011dfc <shell+0x158>
 8011d26:	f10c 0c01 	add.w	ip, ip, #1
 8011d2a:	f10e 0e14 	add.w	lr, lr, #20
 8011d2e:	45dc      	cmp	ip, fp
 8011d30:	d031      	beq.n	8011d96 <shell+0xf2>
 8011d32:	46e2      	mov	sl, ip
 8011d34:	f89e 3000 	ldrb.w	r3, [lr]
 8011d38:	2b00      	cmp	r3, #0
 8011d3a:	d04a      	beq.n	8011dd2 <shell+0x12e>
 8011d3c:	aa16      	add	r2, sp, #88	; 0x58
 8011d3e:	4670      	mov	r0, lr
 8011d40:	f812 1b01 	ldrb.w	r1, [r2], #1
 8011d44:	4299      	cmp	r1, r3
 8011d46:	d1ee      	bne.n	8011d26 <shell+0x82>
 8011d48:	4611      	mov	r1, r2
 8011d4a:	f810 3f01 	ldrb.w	r3, [r0, #1]!
 8011d4e:	2b00      	cmp	r3, #0
 8011d50:	d1f6      	bne.n	8011d40 <shell+0x9c>
 8011d52:	780b      	ldrb	r3, [r1, #0]
 8011d54:	2b00      	cmp	r3, #0
 8011d56:	d1e6      	bne.n	8011d26 <shell+0x82>
 8011d58:	45d1      	cmp	r9, sl
 8011d5a:	d91c      	bls.n	8011d96 <shell+0xf2>
 8011d5c:	2c00      	cmp	r4, #0
 8011d5e:	dd0c      	ble.n	8011d7a <shell+0xd6>
 8011d60:	aa0f      	add	r2, sp, #60	; 0x3c
 8011d62:	a903      	add	r1, sp, #12
 8011d64:	eb02 0084 	add.w	r0, r2, r4, lsl #2
 8011d68:	f852 3b04 	ldr.w	r3, [r2], #4
 8011d6c:	f10d 0e58 	add.w	lr, sp, #88	; 0x58
 8011d70:	4473      	add	r3, lr
 8011d72:	f841 3b04 	str.w	r3, [r1], #4
 8011d76:	4282      	cmp	r2, r0
 8011d78:	d1f6      	bne.n	8011d68 <shell+0xc4>
 8011d7a:	f1b8 0f00 	cmp.w	r8, #0
 8011d7e:	d10f      	bne.n	8011da0 <shell+0xfc>
 8011d80:	eb0c 0c8c 	add.w	ip, ip, ip, lsl #2
 8011d84:	4b2e      	ldr	r3, [pc, #184]	; (8011e40 <shell+0x19c>)
 8011d86:	eb03 0c8c 	add.w	ip, r3, ip, lsl #2
 8011d8a:	f8dc 3010 	ldr.w	r3, [ip, #16]
 8011d8e:	a903      	add	r1, sp, #12
 8011d90:	4620      	mov	r0, r4
 8011d92:	4798      	blx	r3
 8011d94:	e795      	b.n	8011cc2 <shell+0x1e>
 8011d96:	a916      	add	r1, sp, #88	; 0x58
 8011d98:	482a      	ldr	r0, [pc, #168]	; (8011e44 <shell+0x1a0>)
 8011d9a:	f7ff f8d1 	bl	8010f40 <printf>
 8011d9e:	e790      	b.n	8011cc2 <shell+0x1e>
 8011da0:	4b27      	ldr	r3, [pc, #156]	; (8011e40 <shell+0x19c>)
 8011da2:	eb0a 0a8a 	add.w	sl, sl, sl, lsl #2
 8011da6:	eb0c 0c8c 	add.w	ip, ip, ip, lsl #2
 8011daa:	eb03 008c 	add.w	r0, r3, ip, lsl #2
 8011dae:	eb03 038a 	add.w	r3, r3, sl, lsl #2
 8011db2:	2214      	movs	r2, #20
 8011db4:	f44f 5180 	mov.w	r1, #4096	; 0x1000
 8011db8:	6900      	ldr	r0, [r0, #16]
 8011dba:	f7fe fa4b 	bl	8010254 <syscall_create>
 8011dbe:	4b22      	ldr	r3, [pc, #136]	; (8011e48 <shell+0x1a4>)
 8011dc0:	eb03 1380 	add.w	r3, r3, r0, lsl #6
 8011dc4:	685b      	ldr	r3, [r3, #4]
 8011dc6:	621c      	str	r4, [r3, #32]
 8011dc8:	aa03      	add	r2, sp, #12
 8011dca:	625a      	str	r2, [r3, #36]	; 0x24
 8011dcc:	f7fe fa0d 	bl	80101ea <syscall_ready>
 8011dd0:	e777      	b.n	8011cc2 <shell+0x1e>
 8011dd2:	a916      	add	r1, sp, #88	; 0x58
 8011dd4:	e7bd      	b.n	8011d52 <shell+0xae>
 8011dd6:	429c      	cmp	r4, r3
 8011dd8:	dd19      	ble.n	8011e0e <shell+0x16a>
 8011dda:	4630      	mov	r0, r6
 8011ddc:	f7ff f8b0 	bl	8010f40 <printf>
 8011de0:	e76f      	b.n	8011cc2 <shell+0x1e>
 8011de2:	2b00      	cmp	r3, #0
 8011de4:	d0f9      	beq.n	8011dda <shell+0x136>
 8011de6:	461c      	mov	r4, r3
 8011de8:	f04f 0801 	mov.w	r8, #1
 8011dec:	e00f      	b.n	8011e0e <shell+0x16a>
 8011dee:	2800      	cmp	r0, #0
 8011df0:	bfd8      	it	le
 8011df2:	f04f 0800 	movle.w	r8, #0
 8011df6:	dd0a      	ble.n	8011e0e <shell+0x16a>
 8011df8:	f04f 0800 	mov.w	r8, #0
 8011dfc:	aa09      	add	r2, sp, #36	; 0x24
 8011dfe:	2300      	movs	r3, #0
 8011e00:	f852 1b04 	ldr.w	r1, [r2], #4
 8011e04:	2903      	cmp	r1, #3
 8011e06:	d1e6      	bne.n	8011dd6 <shell+0x132>
 8011e08:	3301      	adds	r3, #1
 8011e0a:	429c      	cmp	r4, r3
 8011e0c:	d1f8      	bne.n	8011e00 <shell+0x15c>
 8011e0e:	f8d7 9000 	ldr.w	r9, [r7]
 8011e12:	f1b9 0f00 	cmp.w	r9, #0
 8011e16:	d0be      	beq.n	8011d96 <shell+0xf2>
 8011e18:	f8df e024 	ldr.w	lr, [pc, #36]	; 8011e40 <shell+0x19c>
 8011e1c:	46cb      	mov	fp, r9
 8011e1e:	f04f 0c00 	mov.w	ip, #0
 8011e22:	e786      	b.n	8011d32 <shell+0x8e>
 8011e24:	2000      	movs	r0, #0
 8011e26:	b039      	add	sp, #228	; 0xe4
 8011e28:	e8bd 8ff0 	ldmia.w	sp!, {r4, r5, r6, r7, r8, r9, sl, fp, pc}
 8011e2c:	08019580 	.word	0x08019580
 8011e30:	08019588 	.word	0x08019588
 8011e34:	20000000 	.word	0x20000000
 8011e38:	080193f4 	.word	0x080193f4
 8011e3c:	0801934c 	.word	0x0801934c
 8011e40:	080195b0 	.word	0x080195b0
 8011e44:	08019598 	.word	0x08019598
 8011e48:	20000db4 	.word	0x20000db4

08011e4c <spi_init>:
 8011e4c:	4a05      	ldr	r2, [pc, #20]	; (8011e64 <spi_init+0x18>)
 8011e4e:	6c53      	ldr	r3, [r2, #68]	; 0x44
 8011e50:	f443 5380 	orr.w	r3, r3, #4096	; 0x1000
 8011e54:	6453      	str	r3, [r2, #68]	; 0x44
 8011e56:	4b04      	ldr	r3, [pc, #16]	; (8011e68 <spi_init+0x1c>)
 8011e58:	f44f 7253 	mov.w	r2, #844	; 0x34c
 8011e5c:	601a      	str	r2, [r3, #0]
 8011e5e:	2001      	movs	r0, #1
 8011e60:	4770      	bx	lr
 8011e62:	bf00      	nop
 8011e64:	40023800 	.word	0x40023800
 8011e68:	40013000 	.word	0x40013000

08011e6c <transfer>:
 8011e6c:	4a07      	ldr	r2, [pc, #28]	; (8011e8c <transfer+0x20>)
 8011e6e:	6893      	ldr	r3, [r2, #8]
 8011e70:	f013 0f02 	tst.w	r3, #2
 8011e74:	d0fb      	beq.n	8011e6e <transfer+0x2>
 8011e76:	4b05      	ldr	r3, [pc, #20]	; (8011e8c <transfer+0x20>)
 8011e78:	60d8      	str	r0, [r3, #12]
 8011e7a:	461a      	mov	r2, r3
 8011e7c:	6893      	ldr	r3, [r2, #8]
 8011e7e:	f013 0f01 	tst.w	r3, #1
 8011e82:	d0fb      	beq.n	8011e7c <transfer+0x10>
 8011e84:	4b01      	ldr	r3, [pc, #4]	; (8011e8c <transfer+0x20>)
 8011e86:	68d8      	ldr	r0, [r3, #12]
 8011e88:	b2c0      	uxtb	r0, r0
 8011e8a:	4770      	bx	lr
 8011e8c:	40013000 	.word	0x40013000

08011e90 <spi_cs>:
 8011e90:	b508      	push	{r3, lr}
 8011e92:	b2c2      	uxtb	r2, r0
 8011e94:	2104      	movs	r1, #4
 8011e96:	4802      	ldr	r0, [pc, #8]	; (8011ea0 <spi_cs+0x10>)
 8011e98:	f000 f932 	bl	8012100 <hw_set_pin>
 8011e9c:	bd08      	pop	{r3, pc}
 8011e9e:	bf00      	nop
 8011ea0:	40020000 	.word	0x40020000

08011ea4 <spi_sendrecv>:
 8011ea4:	4a07      	ldr	r2, [pc, #28]	; (8011ec4 <spi_sendrecv+0x20>)
 8011ea6:	6893      	ldr	r3, [r2, #8]
 8011ea8:	f013 0f02 	tst.w	r3, #2
 8011eac:	d0fb      	beq.n	8011ea6 <spi_sendrecv+0x2>
 8011eae:	4b05      	ldr	r3, [pc, #20]	; (8011ec4 <spi_sendrecv+0x20>)
 8011eb0:	60d8      	str	r0, [r3, #12]
 8011eb2:	461a      	mov	r2, r3
 8011eb4:	6893      	ldr	r3, [r2, #8]
 8011eb6:	f013 0f01 	tst.w	r3, #1
 8011eba:	d0fb      	beq.n	8011eb4 <spi_sendrecv+0x10>
 8011ebc:	4b01      	ldr	r3, [pc, #4]	; (8011ec4 <spi_sendrecv+0x20>)
 8011ebe:	68d8      	ldr	r0, [r3, #12]
 8011ec0:	b2c0      	uxtb	r0, r0
 8011ec2:	4770      	bx	lr
 8011ec4:	40013000 	.word	0x40013000

08011ec8 <spi_readblock>:
 8011ec8:	2900      	cmp	r1, #0
 8011eca:	dd0b      	ble.n	8011ee4 <spi_readblock+0x1c>
 8011ecc:	b570      	push	{r4, r5, r6, lr}
 8011ece:	4604      	mov	r4, r0
 8011ed0:	1845      	adds	r5, r0, r1
 8011ed2:	26ff      	movs	r6, #255	; 0xff
 8011ed4:	4630      	mov	r0, r6
 8011ed6:	f7ff ffe5 	bl	8011ea4 <spi_sendrecv>
 8011eda:	f804 0b01 	strb.w	r0, [r4], #1
 8011ede:	42a5      	cmp	r5, r4
 8011ee0:	d1f8      	bne.n	8011ed4 <spi_readblock+0xc>
 8011ee2:	bd70      	pop	{r4, r5, r6, pc}
 8011ee4:	4770      	bx	lr

08011ee6 <spi_writeblock>:
 8011ee6:	2900      	cmp	r1, #0
 8011ee8:	dd09      	ble.n	8011efe <spi_writeblock+0x18>
 8011eea:	b538      	push	{r3, r4, r5, lr}
 8011eec:	4604      	mov	r4, r0
 8011eee:	1845      	adds	r5, r0, r1
 8011ef0:	f814 0b01 	ldrb.w	r0, [r4], #1
 8011ef4:	f7ff ffd6 	bl	8011ea4 <spi_sendrecv>
 8011ef8:	42a5      	cmp	r5, r4
 8011efa:	d1f9      	bne.n	8011ef0 <spi_writeblock+0xa>
 8011efc:	bd38      	pop	{r3, r4, r5, pc}
 8011efe:	4770      	bx	lr

08011f00 <lexan>:
 8011f00:	e92d 4ff0 	stmdb	sp!, {r4, r5, r6, r7, r8, r9, sl, fp, lr}
 8011f04:	b083      	sub	sp, #12
 8011f06:	9301      	str	r3, [sp, #4]
 8011f08:	f8dd e034 	ldr.w	lr, [sp, #52]	; 0x34
 8011f0c:	7801      	ldrb	r1, [r0, #0]
 8011f0e:	2900      	cmp	r1, #0
 8011f10:	f000 8097 	beq.w	8012042 <lexan+0x142>
 8011f14:	9f0c      	ldr	r7, [sp, #48]	; 0x30
 8011f16:	3f04      	subs	r7, #4
 8011f18:	2500      	movs	r5, #0
 8011f1a:	462e      	mov	r6, r5
 8011f1c:	f04f 093c 	mov.w	r9, #60	; 0x3c
 8011f20:	46ac      	mov	ip, r5
 8011f22:	f04f 0a3e 	mov.w	sl, #62	; 0x3e
 8011f26:	f04f 0826 	mov.w	r8, #38	; 0x26
 8011f2a:	e011      	b.n	8011f50 <lexan+0x50>
 8011f2c:	9b01      	ldr	r3, [sp, #4]
 8011f2e:	601e      	str	r6, [r3, #0]
 8011f30:	4628      	mov	r0, r5
 8011f32:	e090      	b.n	8012056 <lexan+0x156>
 8011f34:	f84e c025 	str.w	ip, [lr, r5, lsl #2]
 8011f38:	1c73      	adds	r3, r6, #1
 8011f3a:	f802 8006 	strb.w	r8, [r2, r6]
 8011f3e:	f802 c003 	strb.w	ip, [r2, r3]
 8011f42:	3602      	adds	r6, #2
 8011f44:	1c6b      	adds	r3, r5, #1
 8011f46:	1c48      	adds	r0, r1, #1
 8011f48:	7801      	ldrb	r1, [r0, #0]
 8011f4a:	3501      	adds	r5, #1
 8011f4c:	2900      	cmp	r1, #0
 8011f4e:	d07b      	beq.n	8012048 <lexan+0x148>
 8011f50:	290a      	cmp	r1, #10
 8011f52:	d07a      	beq.n	801204a <lexan+0x14a>
 8011f54:	2d06      	cmp	r5, #6
 8011f56:	d07c      	beq.n	8012052 <lexan+0x152>
 8011f58:	4601      	mov	r1, r0
 8011f5a:	7803      	ldrb	r3, [r0, #0]
 8011f5c:	4604      	mov	r4, r0
 8011f5e:	3001      	adds	r0, #1
 8011f60:	2b20      	cmp	r3, #32
 8011f62:	d0f9      	beq.n	8011f58 <lexan+0x58>
 8011f64:	2b09      	cmp	r3, #9
 8011f66:	d0f7      	beq.n	8011f58 <lexan+0x58>
 8011f68:	2b0a      	cmp	r3, #10
 8011f6a:	d0df      	beq.n	8011f2c <lexan+0x2c>
 8011f6c:	2b00      	cmp	r3, #0
 8011f6e:	d0dd      	beq.n	8011f2c <lexan+0x2c>
 8011f70:	f847 6f04 	str.w	r6, [r7, #4]!
 8011f74:	2b3c      	cmp	r3, #60	; 0x3c
 8011f76:	d02f      	beq.n	8011fd8 <lexan+0xd8>
 8011f78:	2b3e      	cmp	r3, #62	; 0x3e
 8011f7a:	d039      	beq.n	8011ff0 <lexan+0xf0>
 8011f7c:	2b26      	cmp	r3, #38	; 0x26
 8011f7e:	d0d9      	beq.n	8011f34 <lexan+0x34>
 8011f80:	2003      	movs	r0, #3
 8011f82:	f84e 0025 	str.w	r0, [lr, r5, lsl #2]
 8011f86:	2b27      	cmp	r3, #39	; 0x27
 8011f88:	d03e      	beq.n	8012008 <lexan+0x108>
 8011f8a:	2b22      	cmp	r3, #34	; 0x22
 8011f8c:	d03c      	beq.n	8012008 <lexan+0x108>
 8011f8e:	f106 0b01 	add.w	fp, r6, #1
 8011f92:	1994      	adds	r4, r2, r6
 8011f94:	5593      	strb	r3, [r2, r6]
 8011f96:	1c48      	adds	r0, r1, #1
 8011f98:	784b      	ldrb	r3, [r1, #1]
 8011f9a:	2b0a      	cmp	r3, #10
 8011f9c:	d016      	beq.n	8011fcc <lexan+0xcc>
 8011f9e:	b1ab      	cbz	r3, 8011fcc <lexan+0xcc>
 8011fa0:	f003 01fd 	and.w	r1, r3, #253	; 0xfd
 8011fa4:	293c      	cmp	r1, #60	; 0x3c
 8011fa6:	d05c      	beq.n	8012062 <lexan+0x162>
 8011fa8:	2b20      	cmp	r3, #32
 8011faa:	d00f      	beq.n	8011fcc <lexan+0xcc>
 8011fac:	2b09      	cmp	r3, #9
 8011fae:	d00d      	beq.n	8011fcc <lexan+0xcc>
 8011fb0:	2b26      	cmp	r3, #38	; 0x26
 8011fb2:	d00b      	beq.n	8011fcc <lexan+0xcc>
 8011fb4:	2b27      	cmp	r3, #39	; 0x27
 8011fb6:	d057      	beq.n	8012068 <lexan+0x168>
 8011fb8:	2b22      	cmp	r3, #34	; 0x22
 8011fba:	d03f      	beq.n	801203c <lexan+0x13c>
 8011fbc:	f10b 0b01 	add.w	fp, fp, #1
 8011fc0:	f804 3f01 	strb.w	r3, [r4, #1]!
 8011fc4:	f810 3f01 	ldrb.w	r3, [r0, #1]!
 8011fc8:	2b0a      	cmp	r3, #10
 8011fca:	d1e8      	bne.n	8011f9e <lexan+0x9e>
 8011fcc:	f10b 0601 	add.w	r6, fp, #1
 8011fd0:	f802 c00b 	strb.w	ip, [r2, fp]
 8011fd4:	1c6b      	adds	r3, r5, #1
 8011fd6:	e7b7      	b.n	8011f48 <lexan+0x48>
 8011fd8:	2301      	movs	r3, #1
 8011fda:	f84e 3025 	str.w	r3, [lr, r5, lsl #2]
 8011fde:	18f3      	adds	r3, r6, r3
 8011fe0:	f802 9006 	strb.w	r9, [r2, r6]
 8011fe4:	f802 c003 	strb.w	ip, [r2, r3]
 8011fe8:	3602      	adds	r6, #2
 8011fea:	1c6b      	adds	r3, r5, #1
 8011fec:	1c48      	adds	r0, r1, #1
 8011fee:	e7ab      	b.n	8011f48 <lexan+0x48>
 8011ff0:	2302      	movs	r3, #2
 8011ff2:	f84e 3025 	str.w	r3, [lr, r5, lsl #2]
 8011ff6:	1c73      	adds	r3, r6, #1
 8011ff8:	f802 a006 	strb.w	sl, [r2, r6]
 8011ffc:	f802 c003 	strb.w	ip, [r2, r3]
 8012000:	3602      	adds	r6, #2
 8012002:	1c6b      	adds	r3, r5, #1
 8012004:	1c48      	adds	r0, r1, #1
 8012006:	e79f      	b.n	8011f48 <lexan+0x48>
 8012008:	1c88      	adds	r0, r1, #2
 801200a:	7849      	ldrb	r1, [r1, #1]
 801200c:	428b      	cmp	r3, r1
 801200e:	d02e      	beq.n	801206e <lexan+0x16e>
 8012010:	3e01      	subs	r6, #1
 8012012:	eb02 0b06 	add.w	fp, r2, r6
 8012016:	1b36      	subs	r6, r6, r4
 8012018:	290a      	cmp	r1, #10
 801201a:	d01f      	beq.n	801205c <lexan+0x15c>
 801201c:	b159      	cbz	r1, 8012036 <lexan+0x136>
 801201e:	1984      	adds	r4, r0, r6
 8012020:	f80b 1f01 	strb.w	r1, [fp, #1]!
 8012024:	f810 1b01 	ldrb.w	r1, [r0], #1
 8012028:	428b      	cmp	r3, r1
 801202a:	d1f5      	bne.n	8012018 <lexan+0x118>
 801202c:	1c66      	adds	r6, r4, #1
 801202e:	f802 c004 	strb.w	ip, [r2, r4]
 8012032:	1c6b      	adds	r3, r5, #1
 8012034:	e788      	b.n	8011f48 <lexan+0x48>
 8012036:	f04f 30ff 	mov.w	r0, #4294967295	; 0xffffffff
 801203a:	e00c      	b.n	8012056 <lexan+0x156>
 801203c:	f04f 30ff 	mov.w	r0, #4294967295	; 0xffffffff
 8012040:	e009      	b.n	8012056 <lexan+0x156>
 8012042:	2600      	movs	r6, #0
 8012044:	4635      	mov	r5, r6
 8012046:	e000      	b.n	801204a <lexan+0x14a>
 8012048:	461d      	mov	r5, r3
 801204a:	9b01      	ldr	r3, [sp, #4]
 801204c:	601e      	str	r6, [r3, #0]
 801204e:	4628      	mov	r0, r5
 8012050:	e001      	b.n	8012056 <lexan+0x156>
 8012052:	f04f 30ff 	mov.w	r0, #4294967295	; 0xffffffff
 8012056:	b003      	add	sp, #12
 8012058:	e8bd 8ff0 	ldmia.w	sp!, {r4, r5, r6, r7, r8, r9, sl, fp, pc}
 801205c:	f04f 30ff 	mov.w	r0, #4294967295	; 0xffffffff
 8012060:	e7f9      	b.n	8012056 <lexan+0x156>
 8012062:	f04f 30ff 	mov.w	r0, #4294967295	; 0xffffffff
 8012066:	e7f6      	b.n	8012056 <lexan+0x156>
 8012068:	f04f 30ff 	mov.w	r0, #4294967295	; 0xffffffff
 801206c:	e7f3      	b.n	8012056 <lexan+0x156>
 801206e:	4634      	mov	r4, r6
 8012070:	e7dc      	b.n	801202c <lexan+0x12c>
	...

08012074 <hw_cfg_pin>:
 8012074:	b5f8      	push	{r3, r4, r5, r6, r7, lr}
 8012076:	4605      	mov	r5, r0
 8012078:	460e      	mov	r6, r1
 801207a:	4614      	mov	r4, r2
 801207c:	4f1f      	ldr	r7, [pc, #124]	; (80120fc <hw_cfg_pin+0x88>)
 801207e:	4638      	mov	r0, r7
 8012080:	f7fe fef1 	bl	8010e66 <sem_wait>
 8012084:	08f2      	lsrs	r2, r6, #3
 8012086:	eb05 0282 	add.w	r2, r5, r2, lsl #2
 801208a:	6a13      	ldr	r3, [r2, #32]
 801208c:	f006 0107 	and.w	r1, r6, #7
 8012090:	0089      	lsls	r1, r1, #2
 8012092:	200f      	movs	r0, #15
 8012094:	4088      	lsls	r0, r1
 8012096:	ea23 0300 	bic.w	r3, r3, r0
 801209a:	f004 000f 	and.w	r0, r4, #15
 801209e:	fa00 f101 	lsl.w	r1, r0, r1
 80120a2:	430b      	orrs	r3, r1
 80120a4:	6213      	str	r3, [r2, #32]
 80120a6:	6828      	ldr	r0, [r5, #0]
 80120a8:	0072      	lsls	r2, r6, #1
 80120aa:	b2d2      	uxtb	r2, r2
 80120ac:	2303      	movs	r3, #3
 80120ae:	4093      	lsls	r3, r2
 80120b0:	f3c4 1101 	ubfx	r1, r4, #4, #2
 80120b4:	4091      	lsls	r1, r2
 80120b6:	ea20 0003 	bic.w	r0, r0, r3
 80120ba:	4301      	orrs	r1, r0
 80120bc:	6029      	str	r1, [r5, #0]
 80120be:	68a8      	ldr	r0, [r5, #8]
 80120c0:	f3c4 11c1 	ubfx	r1, r4, #7, #2
 80120c4:	4091      	lsls	r1, r2
 80120c6:	ea20 0003 	bic.w	r0, r0, r3
 80120ca:	4301      	orrs	r1, r0
 80120cc:	60a9      	str	r1, [r5, #8]
 80120ce:	6868      	ldr	r0, [r5, #4]
 80120d0:	2101      	movs	r1, #1
 80120d2:	40b1      	lsls	r1, r6
 80120d4:	ea20 0001 	bic.w	r0, r0, r1
 80120d8:	f3c4 1180 	ubfx	r1, r4, #6, #1
 80120dc:	fa01 f606 	lsl.w	r6, r1, r6
 80120e0:	4306      	orrs	r6, r0
 80120e2:	606e      	str	r6, [r5, #4]
 80120e4:	68e9      	ldr	r1, [r5, #12]
 80120e6:	f3c4 2441 	ubfx	r4, r4, #9, #2
 80120ea:	4094      	lsls	r4, r2
 80120ec:	ea21 0303 	bic.w	r3, r1, r3
 80120f0:	431c      	orrs	r4, r3
 80120f2:	60ec      	str	r4, [r5, #12]
 80120f4:	4638      	mov	r0, r7
 80120f6:	f7fe fed3 	bl	8010ea0 <sem_signal>
 80120fa:	bdf8      	pop	{r3, r4, r5, r6, r7, pc}
 80120fc:	20000d98 	.word	0x20000d98

08012100 <hw_set_pin>:
 8012100:	b5f8      	push	{r3, r4, r5, r6, r7, lr}
 8012102:	4605      	mov	r5, r0
 8012104:	460f      	mov	r7, r1
 8012106:	4614      	mov	r4, r2
 8012108:	4e09      	ldr	r6, [pc, #36]	; (8012130 <hw_set_pin+0x30>)
 801210a:	4630      	mov	r0, r6
 801210c:	f7fe feab 	bl	8010e66 <sem_wait>
 8012110:	696b      	ldr	r3, [r5, #20]
 8012112:	2101      	movs	r1, #1
 8012114:	40b9      	lsls	r1, r7
 8012116:	ea23 0301 	bic.w	r3, r3, r1
 801211a:	f004 0401 	and.w	r4, r4, #1
 801211e:	fa04 f107 	lsl.w	r1, r4, r7
 8012122:	4319      	orrs	r1, r3
 8012124:	6169      	str	r1, [r5, #20]
 8012126:	4630      	mov	r0, r6
 8012128:	f7fe feba 	bl	8010ea0 <sem_signal>
 801212c:	bdf8      	pop	{r3, r4, r5, r6, r7, pc}
 801212e:	bf00      	nop
 8012130:	20000d98 	.word	0x20000d98

08012134 <hw_get_pin>:
 8012134:	b570      	push	{r4, r5, r6, lr}
 8012136:	4605      	mov	r5, r0
 8012138:	460c      	mov	r4, r1
 801213a:	4e07      	ldr	r6, [pc, #28]	; (8012158 <hw_get_pin+0x24>)
 801213c:	4630      	mov	r0, r6
 801213e:	f7fe fe92 	bl	8010e66 <sem_wait>
 8012142:	692d      	ldr	r5, [r5, #16]
 8012144:	4630      	mov	r0, r6
 8012146:	f7fe feab 	bl	8010ea0 <sem_signal>
 801214a:	2001      	movs	r0, #1
 801214c:	40a0      	lsls	r0, r4
 801214e:	4028      	ands	r0, r5
 8012150:	40e0      	lsrs	r0, r4
 8012152:	b2c0      	uxtb	r0, r0
 8012154:	bd70      	pop	{r4, r5, r6, pc}
 8012156:	bf00      	nop
 8012158:	20000d98 	.word	0x20000d98

0801215c <mem_cpy>:
 801215c:	b13a      	cbz	r2, 801216e <mem_cpy+0x12>
 801215e:	3801      	subs	r0, #1
 8012160:	188a      	adds	r2, r1, r2
 8012162:	f811 3b01 	ldrb.w	r3, [r1], #1
 8012166:	f800 3f01 	strb.w	r3, [r0, #1]!
 801216a:	4291      	cmp	r1, r2
 801216c:	d1f9      	bne.n	8012162 <mem_cpy+0x6>
 801216e:	4770      	bx	lr

08012170 <mem_set>:
 8012170:	4613      	mov	r3, r2
 8012172:	b122      	cbz	r2, 801217e <mem_set+0xe>
 8012174:	4403      	add	r3, r0
 8012176:	f800 1b01 	strb.w	r1, [r0], #1
 801217a:	4283      	cmp	r3, r0
 801217c:	d1fb      	bne.n	8012176 <mem_set+0x6>
 801217e:	4770      	bx	lr

08012180 <ld_clust>:
 8012180:	7eca      	ldrb	r2, [r1, #27]
 8012182:	7e8b      	ldrb	r3, [r1, #26]
 8012184:	ea43 2302 	orr.w	r3, r3, r2, lsl #8
 8012188:	7802      	ldrb	r2, [r0, #0]
 801218a:	2a03      	cmp	r2, #3
 801218c:	d001      	beq.n	8012192 <ld_clust+0x12>
 801218e:	4618      	mov	r0, r3
 8012190:	4770      	bx	lr
 8012192:	7d48      	ldrb	r0, [r1, #21]
 8012194:	7d0a      	ldrb	r2, [r1, #20]
 8012196:	ea42 2200 	orr.w	r2, r2, r0, lsl #8
 801219a:	ea43 4302 	orr.w	r3, r3, r2, lsl #16
 801219e:	e7f6      	b.n	801218e <ld_clust+0xe>

080121a0 <get_fileinfo>:
 80121a0:	b4f0      	push	{r4, r5, r6, r7}
 80121a2:	f101 0409 	add.w	r4, r1, #9
 80121a6:	6903      	ldr	r3, [r0, #16]
 80121a8:	2b00      	cmp	r3, #0
 80121aa:	d034      	beq.n	8012216 <get_fileinfo+0x76>
 80121ac:	6945      	ldr	r5, [r0, #20]
 80121ae:	1e6a      	subs	r2, r5, #1
 80121b0:	462f      	mov	r7, r5
 80121b2:	f105 060a 	add.w	r6, r5, #10
 80121b6:	f04f 0c2e 	mov.w	ip, #46	; 0x2e
 80121ba:	e009      	b.n	80121d0 <get_fileinfo+0x30>
 80121bc:	4620      	mov	r0, r4
 80121be:	f800 cb01 	strb.w	ip, [r0], #1
 80121c2:	4604      	mov	r4, r0
 80121c4:	4620      	mov	r0, r4
 80121c6:	f800 3b01 	strb.w	r3, [r0], #1
 80121ca:	4604      	mov	r4, r0
 80121cc:	42b2      	cmp	r2, r6
 80121ce:	d00b      	beq.n	80121e8 <get_fileinfo+0x48>
 80121d0:	4610      	mov	r0, r2
 80121d2:	f812 3f01 	ldrb.w	r3, [r2, #1]!
 80121d6:	2b20      	cmp	r3, #32
 80121d8:	d0f8      	beq.n	80121cc <get_fileinfo+0x2c>
 80121da:	2b05      	cmp	r3, #5
 80121dc:	bf08      	it	eq
 80121de:	23e5      	moveq	r3, #229	; 0xe5
 80121e0:	3807      	subs	r0, #7
 80121e2:	42b8      	cmp	r0, r7
 80121e4:	d1ee      	bne.n	80121c4 <get_fileinfo+0x24>
 80121e6:	e7e9      	b.n	80121bc <get_fileinfo+0x1c>
 80121e8:	7aeb      	ldrb	r3, [r5, #11]
 80121ea:	720b      	strb	r3, [r1, #8]
 80121ec:	7fea      	ldrb	r2, [r5, #31]
 80121ee:	7fab      	ldrb	r3, [r5, #30]
 80121f0:	041b      	lsls	r3, r3, #16
 80121f2:	ea43 6302 	orr.w	r3, r3, r2, lsl #24
 80121f6:	7f2a      	ldrb	r2, [r5, #28]
 80121f8:	4313      	orrs	r3, r2
 80121fa:	7f6a      	ldrb	r2, [r5, #29]
 80121fc:	ea43 2302 	orr.w	r3, r3, r2, lsl #8
 8012200:	600b      	str	r3, [r1, #0]
 8012202:	7e6a      	ldrb	r2, [r5, #25]
 8012204:	7e2b      	ldrb	r3, [r5, #24]
 8012206:	ea43 2302 	orr.w	r3, r3, r2, lsl #8
 801220a:	808b      	strh	r3, [r1, #4]
 801220c:	7dea      	ldrb	r2, [r5, #23]
 801220e:	7dab      	ldrb	r3, [r5, #22]
 8012210:	ea43 2302 	orr.w	r3, r3, r2, lsl #8
 8012214:	80cb      	strh	r3, [r1, #6]
 8012216:	2300      	movs	r3, #0
 8012218:	7023      	strb	r3, [r4, #0]
 801221a:	bcf0      	pop	{r4, r5, r6, r7}
 801221c:	4770      	bx	lr

0801221e <get_ldnumber>:
 801221e:	6801      	ldr	r1, [r0, #0]
 8012220:	b301      	cbz	r1, 8012264 <get_ldnumber+0x46>
 8012222:	b410      	push	{r4}
 8012224:	780c      	ldrb	r4, [r1, #0]
 8012226:	2c20      	cmp	r4, #32
 8012228:	d90b      	bls.n	8012242 <get_ldnumber+0x24>
 801222a:	460a      	mov	r2, r1
 801222c:	4623      	mov	r3, r4
 801222e:	2b3a      	cmp	r3, #58	; 0x3a
 8012230:	d00c      	beq.n	801224c <get_ldnumber+0x2e>
 8012232:	f812 3f01 	ldrb.w	r3, [r2, #1]!
 8012236:	2b20      	cmp	r3, #32
 8012238:	d8f9      	bhi.n	801222e <get_ldnumber+0x10>
 801223a:	2000      	movs	r0, #0
 801223c:	f85d 4b04 	ldr.w	r4, [sp], #4
 8012240:	4770      	bx	lr
 8012242:	2c3a      	cmp	r4, #58	; 0x3a
 8012244:	bf18      	it	ne
 8012246:	2000      	movne	r0, #0
 8012248:	d1f8      	bne.n	801223c <get_ldnumber+0x1e>
 801224a:	460a      	mov	r2, r1
 801224c:	3101      	adds	r1, #1
 801224e:	428a      	cmp	r2, r1
 8012250:	d002      	beq.n	8012258 <get_ldnumber+0x3a>
 8012252:	f04f 30ff 	mov.w	r0, #4294967295	; 0xffffffff
 8012256:	e7f1      	b.n	801223c <get_ldnumber+0x1e>
 8012258:	2c30      	cmp	r4, #48	; 0x30
 801225a:	d106      	bne.n	801226a <get_ldnumber+0x4c>
 801225c:	3201      	adds	r2, #1
 801225e:	6002      	str	r2, [r0, #0]
 8012260:	2000      	movs	r0, #0
 8012262:	e7eb      	b.n	801223c <get_ldnumber+0x1e>
 8012264:	f04f 30ff 	mov.w	r0, #4294967295	; 0xffffffff
 8012268:	4770      	bx	lr
 801226a:	f04f 30ff 	mov.w	r0, #4294967295	; 0xffffffff
 801226e:	e7e5      	b.n	801223c <get_ldnumber+0x1e>

08012270 <sync_window>:
 8012270:	e92d 43f8 	stmdb	sp!, {r3, r4, r5, r6, r7, r8, r9, lr}
 8012274:	7905      	ldrb	r5, [r0, #4]
 8012276:	b915      	cbnz	r5, 801227e <sync_window+0xe>
 8012278:	4628      	mov	r0, r5
 801227a:	e8bd 83f8 	ldmia.w	sp!, {r3, r4, r5, r6, r7, r8, r9, pc}
 801227e:	4604      	mov	r4, r0
 8012280:	6b06      	ldr	r6, [r0, #48]	; 0x30
 8012282:	f100 0834 	add.w	r8, r0, #52	; 0x34
 8012286:	2301      	movs	r3, #1
 8012288:	4632      	mov	r2, r6
 801228a:	4641      	mov	r1, r8
 801228c:	7840      	ldrb	r0, [r0, #1]
 801228e:	f002 fd03 	bl	8014c98 <disk_write>
 8012292:	4605      	mov	r5, r0
 8012294:	b9b8      	cbnz	r0, 80122c6 <sync_window+0x56>
 8012296:	2300      	movs	r3, #0
 8012298:	7123      	strb	r3, [r4, #4]
 801229a:	6a63      	ldr	r3, [r4, #36]	; 0x24
 801229c:	1af3      	subs	r3, r6, r3
 801229e:	69e2      	ldr	r2, [r4, #28]
 80122a0:	4293      	cmp	r3, r2
 80122a2:	d2e9      	bcs.n	8012278 <sync_window+0x8>
 80122a4:	78e7      	ldrb	r7, [r4, #3]
 80122a6:	2f01      	cmp	r7, #1
 80122a8:	d9e6      	bls.n	8012278 <sync_window+0x8>
 80122aa:	f04f 0901 	mov.w	r9, #1
 80122ae:	69e3      	ldr	r3, [r4, #28]
 80122b0:	441e      	add	r6, r3
 80122b2:	464b      	mov	r3, r9
 80122b4:	4632      	mov	r2, r6
 80122b6:	4641      	mov	r1, r8
 80122b8:	7860      	ldrb	r0, [r4, #1]
 80122ba:	f002 fced 	bl	8014c98 <disk_write>
 80122be:	3f01      	subs	r7, #1
 80122c0:	2f01      	cmp	r7, #1
 80122c2:	d1f4      	bne.n	80122ae <sync_window+0x3e>
 80122c4:	e7d8      	b.n	8012278 <sync_window+0x8>
 80122c6:	2501      	movs	r5, #1
 80122c8:	e7d6      	b.n	8012278 <sync_window+0x8>

080122ca <move_window>:
 80122ca:	b538      	push	{r3, r4, r5, lr}
 80122cc:	6b03      	ldr	r3, [r0, #48]	; 0x30
 80122ce:	428b      	cmp	r3, r1
 80122d0:	d101      	bne.n	80122d6 <move_window+0xc>
 80122d2:	2000      	movs	r0, #0
 80122d4:	bd38      	pop	{r3, r4, r5, pc}
 80122d6:	4604      	mov	r4, r0
 80122d8:	460d      	mov	r5, r1
 80122da:	f7ff ffc9 	bl	8012270 <sync_window>
 80122de:	2800      	cmp	r0, #0
 80122e0:	d1f8      	bne.n	80122d4 <move_window+0xa>
 80122e2:	2301      	movs	r3, #1
 80122e4:	462a      	mov	r2, r5
 80122e6:	f104 0134 	add.w	r1, r4, #52	; 0x34
 80122ea:	7860      	ldrb	r0, [r4, #1]
 80122ec:	f002 fc8c 	bl	8014c08 <disk_read>
 80122f0:	2800      	cmp	r0, #0
 80122f2:	bf1c      	itt	ne
 80122f4:	2001      	movne	r0, #1
 80122f6:	f04f 35ff 	movne.w	r5, #4294967295	; 0xffffffff
 80122fa:	6325      	str	r5, [r4, #48]	; 0x30
 80122fc:	e7ea      	b.n	80122d4 <move_window+0xa>

080122fe <check_fs>:
 80122fe:	b510      	push	{r4, lr}
 8012300:	4604      	mov	r4, r0
 8012302:	2300      	movs	r3, #0
 8012304:	7103      	strb	r3, [r0, #4]
 8012306:	f04f 33ff 	mov.w	r3, #4294967295	; 0xffffffff
 801230a:	6303      	str	r3, [r0, #48]	; 0x30
 801230c:	f7ff ffdd 	bl	80122ca <move_window>
 8012310:	bb90      	cbnz	r0, 8012378 <check_fs+0x7a>
 8012312:	4603      	mov	r3, r0
 8012314:	f894 1233 	ldrb.w	r1, [r4, #563]	; 0x233
 8012318:	f894 2232 	ldrb.w	r2, [r4, #562]	; 0x232
 801231c:	ea42 2201 	orr.w	r2, r2, r1, lsl #8
 8012320:	b212      	sxth	r2, r2
 8012322:	4917      	ldr	r1, [pc, #92]	; (8012380 <check_fs+0x82>)
 8012324:	428a      	cmp	r2, r1
 8012326:	d129      	bne.n	801237c <check_fs+0x7e>
 8012328:	f894 106d 	ldrb.w	r1, [r4, #109]	; 0x6d
 801232c:	f894 206c 	ldrb.w	r2, [r4, #108]	; 0x6c
 8012330:	0412      	lsls	r2, r2, #16
 8012332:	ea42 6201 	orr.w	r2, r2, r1, lsl #24
 8012336:	f894 106a 	ldrb.w	r1, [r4, #106]	; 0x6a
 801233a:	430a      	orrs	r2, r1
 801233c:	f894 106b 	ldrb.w	r1, [r4, #107]	; 0x6b
 8012340:	ea42 2201 	orr.w	r2, r2, r1, lsl #8
 8012344:	f022 427f 	bic.w	r2, r2, #4278190080	; 0xff000000
 8012348:	490e      	ldr	r1, [pc, #56]	; (8012384 <check_fs+0x86>)
 801234a:	428a      	cmp	r2, r1
 801234c:	d012      	beq.n	8012374 <check_fs+0x76>
 801234e:	f894 2089 	ldrb.w	r2, [r4, #137]	; 0x89
 8012352:	f894 3088 	ldrb.w	r3, [r4, #136]	; 0x88
 8012356:	041b      	lsls	r3, r3, #16
 8012358:	ea43 6302 	orr.w	r3, r3, r2, lsl #24
 801235c:	f894 0086 	ldrb.w	r0, [r4, #134]	; 0x86
 8012360:	4303      	orrs	r3, r0
 8012362:	f894 0087 	ldrb.w	r0, [r4, #135]	; 0x87
 8012366:	ea43 2300 	orr.w	r3, r3, r0, lsl #8
 801236a:	f023 437f 	bic.w	r3, r3, #4278190080	; 0xff000000
 801236e:	1a5b      	subs	r3, r3, r1
 8012370:	bf18      	it	ne
 8012372:	2301      	movne	r3, #1
 8012374:	4618      	mov	r0, r3
 8012376:	bd10      	pop	{r4, pc}
 8012378:	2303      	movs	r3, #3
 801237a:	e7fb      	b.n	8012374 <check_fs+0x76>
 801237c:	2302      	movs	r3, #2
 801237e:	e7f9      	b.n	8012374 <check_fs+0x76>
 8012380:	ffffaa55 	.word	0xffffaa55
 8012384:	00544146 	.word	0x00544146

08012388 <validate>:
 8012388:	b190      	cbz	r0, 80123b0 <validate+0x28>
 801238a:	b508      	push	{r3, lr}
 801238c:	6803      	ldr	r3, [r0, #0]
 801238e:	b18b      	cbz	r3, 80123b4 <validate+0x2c>
 8012390:	7819      	ldrb	r1, [r3, #0]
 8012392:	b189      	cbz	r1, 80123b8 <validate+0x30>
 8012394:	88d9      	ldrh	r1, [r3, #6]
 8012396:	8882      	ldrh	r2, [r0, #4]
 8012398:	4291      	cmp	r1, r2
 801239a:	d001      	beq.n	80123a0 <validate+0x18>
 801239c:	2009      	movs	r0, #9
 801239e:	bd08      	pop	{r3, pc}
 80123a0:	7858      	ldrb	r0, [r3, #1]
 80123a2:	f002 fc29 	bl	8014bf8 <disk_status>
 80123a6:	f010 0001 	ands.w	r0, r0, #1
 80123aa:	bf18      	it	ne
 80123ac:	2009      	movne	r0, #9
 80123ae:	e7f6      	b.n	801239e <validate+0x16>
 80123b0:	2009      	movs	r0, #9
 80123b2:	4770      	bx	lr
 80123b4:	2009      	movs	r0, #9
 80123b6:	e7f2      	b.n	801239e <validate+0x16>
 80123b8:	2009      	movs	r0, #9
 80123ba:	e7f0      	b.n	801239e <validate+0x16>

080123bc <find_volume>:
 80123bc:	e92d 43f0 	stmdb	sp!, {r4, r5, r6, r7, r8, r9, lr}
 80123c0:	b085      	sub	sp, #20
 80123c2:	4605      	mov	r5, r0
 80123c4:	4617      	mov	r7, r2
 80123c6:	2300      	movs	r3, #0
 80123c8:	6003      	str	r3, [r0, #0]
 80123ca:	4608      	mov	r0, r1
 80123cc:	f7ff ff27 	bl	801221e <get_ldnumber>
 80123d0:	1e06      	subs	r6, r0, #0
 80123d2:	f2c0 8173 	blt.w	80126bc <find_volume+0x300>
 80123d6:	4bce      	ldr	r3, [pc, #824]	; (8012710 <find_volume+0x354>)
 80123d8:	f853 4026 	ldr.w	r4, [r3, r6, lsl #2]
 80123dc:	2c00      	cmp	r4, #0
 80123de:	f000 8172 	beq.w	80126c6 <find_volume+0x30a>
 80123e2:	602c      	str	r4, [r5, #0]
 80123e4:	7823      	ldrb	r3, [r4, #0]
 80123e6:	b16b      	cbz	r3, 8012404 <find_volume+0x48>
 80123e8:	7860      	ldrb	r0, [r4, #1]
 80123ea:	f002 fc05 	bl	8014bf8 <disk_status>
 80123ee:	f010 0f01 	tst.w	r0, #1
 80123f2:	d107      	bne.n	8012404 <find_volume+0x48>
 80123f4:	2f00      	cmp	r7, #0
 80123f6:	f000 8168 	beq.w	80126ca <find_volume+0x30e>
 80123fa:	f010 0504 	ands.w	r5, r0, #4
 80123fe:	bf18      	it	ne
 8012400:	250a      	movne	r5, #10
 8012402:	e15c      	b.n	80126be <find_volume+0x302>
 8012404:	2300      	movs	r3, #0
 8012406:	7023      	strb	r3, [r4, #0]
 8012408:	b2f0      	uxtb	r0, r6
 801240a:	7060      	strb	r0, [r4, #1]
 801240c:	f002 faf8 	bl	8014a00 <disk_initialize>
 8012410:	f010 0501 	ands.w	r5, r0, #1
 8012414:	f040 815b 	bne.w	80126ce <find_volume+0x312>
 8012418:	b11f      	cbz	r7, 8012422 <find_volume+0x66>
 801241a:	f010 0f04 	tst.w	r0, #4
 801241e:	f040 8158 	bne.w	80126d2 <find_volume+0x316>
 8012422:	2100      	movs	r1, #0
 8012424:	4620      	mov	r0, r4
 8012426:	f7ff ff6a 	bl	80122fe <check_fs>
 801242a:	4603      	mov	r3, r0
 801242c:	2801      	cmp	r0, #1
 801242e:	f000 80b2 	beq.w	8012596 <find_volume+0x1da>
 8012432:	2700      	movs	r7, #0
 8012434:	2b03      	cmp	r3, #3
 8012436:	f000 814e 	beq.w	80126d6 <find_volume+0x31a>
 801243a:	2b00      	cmp	r3, #0
 801243c:	f040 814d 	bne.w	80126da <find_volume+0x31e>
 8012440:	f894 2040 	ldrb.w	r2, [r4, #64]	; 0x40
 8012444:	f894 303f 	ldrb.w	r3, [r4, #63]	; 0x3f
 8012448:	ea43 2302 	orr.w	r3, r3, r2, lsl #8
 801244c:	b21b      	sxth	r3, r3
 801244e:	f5b3 7f00 	cmp.w	r3, #512	; 0x200
 8012452:	f040 8144 	bne.w	80126de <find_volume+0x322>
 8012456:	f894 204b 	ldrb.w	r2, [r4, #75]	; 0x4b
 801245a:	f894 304a 	ldrb.w	r3, [r4, #74]	; 0x4a
 801245e:	ea53 2302 	orrs.w	r3, r3, r2, lsl #8
 8012462:	d10d      	bne.n	8012480 <find_volume+0xc4>
 8012464:	f894 205b 	ldrb.w	r2, [r4, #91]	; 0x5b
 8012468:	f894 305a 	ldrb.w	r3, [r4, #90]	; 0x5a
 801246c:	041b      	lsls	r3, r3, #16
 801246e:	ea43 6302 	orr.w	r3, r3, r2, lsl #24
 8012472:	f894 2058 	ldrb.w	r2, [r4, #88]	; 0x58
 8012476:	4313      	orrs	r3, r2
 8012478:	f894 2059 	ldrb.w	r2, [r4, #89]	; 0x59
 801247c:	ea43 2302 	orr.w	r3, r3, r2, lsl #8
 8012480:	61e3      	str	r3, [r4, #28]
 8012482:	f894 1044 	ldrb.w	r1, [r4, #68]	; 0x44
 8012486:	70e1      	strb	r1, [r4, #3]
 8012488:	1e4a      	subs	r2, r1, #1
 801248a:	b2d2      	uxtb	r2, r2
 801248c:	2a01      	cmp	r2, #1
 801248e:	f200 8128 	bhi.w	80126e2 <find_volume+0x326>
 8012492:	f894 0041 	ldrb.w	r0, [r4, #65]	; 0x41
 8012496:	70a0      	strb	r0, [r4, #2]
 8012498:	2800      	cmp	r0, #0
 801249a:	f000 8124 	beq.w	80126e6 <find_volume+0x32a>
 801249e:	1e42      	subs	r2, r0, #1
 80124a0:	4202      	tst	r2, r0
 80124a2:	f040 8122 	bne.w	80126ea <find_volume+0x32e>
 80124a6:	f894 2046 	ldrb.w	r2, [r4, #70]	; 0x46
 80124aa:	f894 6045 	ldrb.w	r6, [r4, #69]	; 0x45
 80124ae:	ea46 2602 	orr.w	r6, r6, r2, lsl #8
 80124b2:	8126      	strh	r6, [r4, #8]
 80124b4:	f016 0f0f 	tst.w	r6, #15
 80124b8:	f040 8119 	bne.w	80126ee <find_volume+0x332>
 80124bc:	f894 c048 	ldrb.w	ip, [r4, #72]	; 0x48
 80124c0:	f894 2047 	ldrb.w	r2, [r4, #71]	; 0x47
 80124c4:	ea52 220c 	orrs.w	r2, r2, ip, lsl #8
 80124c8:	d10e      	bne.n	80124e8 <find_volume+0x12c>
 80124ca:	f894 c057 	ldrb.w	ip, [r4, #87]	; 0x57
 80124ce:	f894 2056 	ldrb.w	r2, [r4, #86]	; 0x56
 80124d2:	0412      	lsls	r2, r2, #16
 80124d4:	ea42 620c 	orr.w	r2, r2, ip, lsl #24
 80124d8:	f894 c054 	ldrb.w	ip, [r4, #84]	; 0x54
 80124dc:	ea42 020c 	orr.w	r2, r2, ip
 80124e0:	f894 c055 	ldrb.w	ip, [r4, #85]	; 0x55
 80124e4:	ea42 220c 	orr.w	r2, r2, ip, lsl #8
 80124e8:	f894 8043 	ldrb.w	r8, [r4, #67]	; 0x43
 80124ec:	f894 c042 	ldrb.w	ip, [r4, #66]	; 0x42
 80124f0:	ea5c 2808 	orrs.w	r8, ip, r8, lsl #8
 80124f4:	f000 80fd 	beq.w	80126f2 <find_volume+0x336>
 80124f8:	fb03 f101 	mul.w	r1, r3, r1
 80124fc:	eb08 1c16 	add.w	ip, r8, r6, lsr #4
 8012500:	448c      	add	ip, r1
 8012502:	4562      	cmp	r2, ip
 8012504:	f0c0 80f7 	bcc.w	80126f6 <find_volume+0x33a>
 8012508:	eba2 020c 	sub.w	r2, r2, ip
 801250c:	fbb2 fef0 	udiv	lr, r2, r0
 8012510:	4282      	cmp	r2, r0
 8012512:	f0c0 80f2 	bcc.w	80126fa <find_volume+0x33e>
 8012516:	f640 72f5 	movw	r2, #4085	; 0xff5
 801251a:	4596      	cmp	lr, r2
 801251c:	f240 8100 	bls.w	8012720 <find_volume+0x364>
 8012520:	f64f 72f5 	movw	r2, #65525	; 0xfff5
 8012524:	4596      	cmp	lr, r2
 8012526:	bf98      	it	ls
 8012528:	2002      	movls	r0, #2
 801252a:	f240 80fa 	bls.w	8012722 <find_volume+0x366>
 801252e:	f10e 0202 	add.w	r2, lr, #2
 8012532:	61a2      	str	r2, [r4, #24]
 8012534:	6227      	str	r7, [r4, #32]
 8012536:	eb08 0107 	add.w	r1, r8, r7
 801253a:	6261      	str	r1, [r4, #36]	; 0x24
 801253c:	eb0c 0107 	add.w	r1, ip, r7
 8012540:	62e1      	str	r1, [r4, #44]	; 0x2c
 8012542:	2e00      	cmp	r6, #0
 8012544:	f040 80e1 	bne.w	801270a <find_volume+0x34e>
 8012548:	f894 0063 	ldrb.w	r0, [r4, #99]	; 0x63
 801254c:	f894 1062 	ldrb.w	r1, [r4, #98]	; 0x62
 8012550:	0409      	lsls	r1, r1, #16
 8012552:	ea41 6100 	orr.w	r1, r1, r0, lsl #24
 8012556:	f894 0060 	ldrb.w	r0, [r4, #96]	; 0x60
 801255a:	4301      	orrs	r1, r0
 801255c:	f894 0061 	ldrb.w	r0, [r4, #97]	; 0x61
 8012560:	ea41 2100 	orr.w	r1, r1, r0, lsl #8
 8012564:	62a1      	str	r1, [r4, #40]	; 0x28
 8012566:	0092      	lsls	r2, r2, #2
 8012568:	f202 12ff 	addw	r2, r2, #511	; 0x1ff
 801256c:	ebb3 2f52 	cmp.w	r3, r2, lsr #9
 8012570:	f0c0 80c5 	bcc.w	80126fe <find_volume+0x342>
 8012574:	f04f 33ff 	mov.w	r3, #4294967295	; 0xffffffff
 8012578:	6123      	str	r3, [r4, #16]
 801257a:	60e3      	str	r3, [r4, #12]
 801257c:	2380      	movs	r3, #128	; 0x80
 801257e:	7163      	strb	r3, [r4, #5]
 8012580:	f894 2065 	ldrb.w	r2, [r4, #101]	; 0x65
 8012584:	f894 3064 	ldrb.w	r3, [r4, #100]	; 0x64
 8012588:	ea43 2302 	orr.w	r3, r3, r2, lsl #8
 801258c:	b21b      	sxth	r3, r3
 801258e:	2b01      	cmp	r3, #1
 8012590:	d038      	beq.n	8012604 <find_volume+0x248>
 8012592:	2003      	movs	r0, #3
 8012594:	e0e6      	b.n	8012764 <find_volume+0x3a8>
 8012596:	4623      	mov	r3, r4
 8012598:	466e      	mov	r6, sp
 801259a:	f104 0040 	add.w	r0, r4, #64	; 0x40
 801259e:	4631      	mov	r1, r6
 80125a0:	f04f 0c00 	mov.w	ip, #0
 80125a4:	e005      	b.n	80125b2 <find_volume+0x1f6>
 80125a6:	4662      	mov	r2, ip
 80125a8:	f841 2b04 	str.w	r2, [r1], #4
 80125ac:	3310      	adds	r3, #16
 80125ae:	4283      	cmp	r3, r0
 80125b0:	d012      	beq.n	80125d8 <find_volume+0x21c>
 80125b2:	f893 21f6 	ldrb.w	r2, [r3, #502]	; 0x1f6
 80125b6:	2a00      	cmp	r2, #0
 80125b8:	d0f5      	beq.n	80125a6 <find_volume+0x1ea>
 80125ba:	f893 71fd 	ldrb.w	r7, [r3, #509]	; 0x1fd
 80125be:	f893 21fc 	ldrb.w	r2, [r3, #508]	; 0x1fc
 80125c2:	0412      	lsls	r2, r2, #16
 80125c4:	ea42 6207 	orr.w	r2, r2, r7, lsl #24
 80125c8:	f893 71fa 	ldrb.w	r7, [r3, #506]	; 0x1fa
 80125cc:	433a      	orrs	r2, r7
 80125ce:	f893 71fb 	ldrb.w	r7, [r3, #507]	; 0x1fb
 80125d2:	ea42 2207 	orr.w	r2, r2, r7, lsl #8
 80125d6:	e7e7      	b.n	80125a8 <find_volume+0x1ec>
 80125d8:	f106 0810 	add.w	r8, r6, #16
 80125dc:	f04f 0902 	mov.w	r9, #2
 80125e0:	e00a      	b.n	80125f8 <find_volume+0x23c>
 80125e2:	4639      	mov	r1, r7
 80125e4:	4620      	mov	r0, r4
 80125e6:	f7ff fe8a 	bl	80122fe <check_fs>
 80125ea:	4603      	mov	r3, r0
 80125ec:	2800      	cmp	r0, #0
 80125ee:	f43f af27 	beq.w	8012440 <find_volume+0x84>
 80125f2:	4546      	cmp	r6, r8
 80125f4:	f43f af1e 	beq.w	8012434 <find_volume+0x78>
 80125f8:	f856 7b04 	ldr.w	r7, [r6], #4
 80125fc:	2f00      	cmp	r7, #0
 80125fe:	d1f0      	bne.n	80125e2 <find_volume+0x226>
 8012600:	464b      	mov	r3, r9
 8012602:	e7f6      	b.n	80125f2 <find_volume+0x236>
 8012604:	1c79      	adds	r1, r7, #1
 8012606:	4620      	mov	r0, r4
 8012608:	f7ff fe5f 	bl	80122ca <move_window>
 801260c:	2800      	cmp	r0, #0
 801260e:	d153      	bne.n	80126b8 <find_volume+0x2fc>
 8012610:	2300      	movs	r3, #0
 8012612:	7163      	strb	r3, [r4, #5]
 8012614:	f894 2233 	ldrb.w	r2, [r4, #563]	; 0x233
 8012618:	f894 3232 	ldrb.w	r3, [r4, #562]	; 0x232
 801261c:	ea43 2302 	orr.w	r3, r3, r2, lsl #8
 8012620:	b21b      	sxth	r3, r3
 8012622:	4a3c      	ldr	r2, [pc, #240]	; (8012714 <find_volume+0x358>)
 8012624:	4293      	cmp	r3, r2
 8012626:	d001      	beq.n	801262c <find_volume+0x270>
 8012628:	2003      	movs	r0, #3
 801262a:	e09b      	b.n	8012764 <find_volume+0x3a8>
 801262c:	f894 2037 	ldrb.w	r2, [r4, #55]	; 0x37
 8012630:	f894 3036 	ldrb.w	r3, [r4, #54]	; 0x36
 8012634:	041b      	lsls	r3, r3, #16
 8012636:	ea43 6302 	orr.w	r3, r3, r2, lsl #24
 801263a:	f894 2034 	ldrb.w	r2, [r4, #52]	; 0x34
 801263e:	4313      	orrs	r3, r2
 8012640:	f894 2035 	ldrb.w	r2, [r4, #53]	; 0x35
 8012644:	ea43 2302 	orr.w	r3, r3, r2, lsl #8
 8012648:	4a33      	ldr	r2, [pc, #204]	; (8012718 <find_volume+0x35c>)
 801264a:	4293      	cmp	r3, r2
 801264c:	d001      	beq.n	8012652 <find_volume+0x296>
 801264e:	2003      	movs	r0, #3
 8012650:	e088      	b.n	8012764 <find_volume+0x3a8>
 8012652:	f894 221b 	ldrb.w	r2, [r4, #539]	; 0x21b
 8012656:	f894 321a 	ldrb.w	r3, [r4, #538]	; 0x21a
 801265a:	041b      	lsls	r3, r3, #16
 801265c:	ea43 6302 	orr.w	r3, r3, r2, lsl #24
 8012660:	f894 2218 	ldrb.w	r2, [r4, #536]	; 0x218
 8012664:	4313      	orrs	r3, r2
 8012666:	f894 2219 	ldrb.w	r2, [r4, #537]	; 0x219
 801266a:	ea43 2302 	orr.w	r3, r3, r2, lsl #8
 801266e:	4a2b      	ldr	r2, [pc, #172]	; (801271c <find_volume+0x360>)
 8012670:	4293      	cmp	r3, r2
 8012672:	d001      	beq.n	8012678 <find_volume+0x2bc>
 8012674:	2003      	movs	r0, #3
 8012676:	e075      	b.n	8012764 <find_volume+0x3a8>
 8012678:	f894 221f 	ldrb.w	r2, [r4, #543]	; 0x21f
 801267c:	f894 321e 	ldrb.w	r3, [r4, #542]	; 0x21e
 8012680:	041b      	lsls	r3, r3, #16
 8012682:	ea43 6302 	orr.w	r3, r3, r2, lsl #24
 8012686:	f894 221c 	ldrb.w	r2, [r4, #540]	; 0x21c
 801268a:	4313      	orrs	r3, r2
 801268c:	f894 221d 	ldrb.w	r2, [r4, #541]	; 0x21d
 8012690:	ea43 2302 	orr.w	r3, r3, r2, lsl #8
 8012694:	6123      	str	r3, [r4, #16]
 8012696:	f894 2223 	ldrb.w	r2, [r4, #547]	; 0x223
 801269a:	f894 3222 	ldrb.w	r3, [r4, #546]	; 0x222
 801269e:	041b      	lsls	r3, r3, #16
 80126a0:	ea43 6302 	orr.w	r3, r3, r2, lsl #24
 80126a4:	f894 2220 	ldrb.w	r2, [r4, #544]	; 0x220
 80126a8:	4313      	orrs	r3, r2
 80126aa:	f894 2221 	ldrb.w	r2, [r4, #545]	; 0x221
 80126ae:	ea43 2302 	orr.w	r3, r3, r2, lsl #8
 80126b2:	60e3      	str	r3, [r4, #12]
 80126b4:	2003      	movs	r0, #3
 80126b6:	e055      	b.n	8012764 <find_volume+0x3a8>
 80126b8:	2003      	movs	r0, #3
 80126ba:	e053      	b.n	8012764 <find_volume+0x3a8>
 80126bc:	250b      	movs	r5, #11
 80126be:	4628      	mov	r0, r5
 80126c0:	b005      	add	sp, #20
 80126c2:	e8bd 83f0 	ldmia.w	sp!, {r4, r5, r6, r7, r8, r9, pc}
 80126c6:	250c      	movs	r5, #12
 80126c8:	e7f9      	b.n	80126be <find_volume+0x302>
 80126ca:	463d      	mov	r5, r7
 80126cc:	e7f7      	b.n	80126be <find_volume+0x302>
 80126ce:	2503      	movs	r5, #3
 80126d0:	e7f5      	b.n	80126be <find_volume+0x302>
 80126d2:	250a      	movs	r5, #10
 80126d4:	e7f3      	b.n	80126be <find_volume+0x302>
 80126d6:	2501      	movs	r5, #1
 80126d8:	e7f1      	b.n	80126be <find_volume+0x302>
 80126da:	250d      	movs	r5, #13
 80126dc:	e7ef      	b.n	80126be <find_volume+0x302>
 80126de:	250d      	movs	r5, #13
 80126e0:	e7ed      	b.n	80126be <find_volume+0x302>
 80126e2:	250d      	movs	r5, #13
 80126e4:	e7eb      	b.n	80126be <find_volume+0x302>
 80126e6:	250d      	movs	r5, #13
 80126e8:	e7e9      	b.n	80126be <find_volume+0x302>
 80126ea:	250d      	movs	r5, #13
 80126ec:	e7e7      	b.n	80126be <find_volume+0x302>
 80126ee:	250d      	movs	r5, #13
 80126f0:	e7e5      	b.n	80126be <find_volume+0x302>
 80126f2:	250d      	movs	r5, #13
 80126f4:	e7e3      	b.n	80126be <find_volume+0x302>
 80126f6:	250d      	movs	r5, #13
 80126f8:	e7e1      	b.n	80126be <find_volume+0x302>
 80126fa:	250d      	movs	r5, #13
 80126fc:	e7df      	b.n	80126be <find_volume+0x302>
 80126fe:	250d      	movs	r5, #13
 8012700:	e7dd      	b.n	80126be <find_volume+0x302>
 8012702:	250d      	movs	r5, #13
 8012704:	e7db      	b.n	80126be <find_volume+0x302>
 8012706:	250d      	movs	r5, #13
 8012708:	e7d9      	b.n	80126be <find_volume+0x302>
 801270a:	250d      	movs	r5, #13
 801270c:	e7d7      	b.n	80126be <find_volume+0x302>
 801270e:	bf00      	nop
 8012710:	20000088 	.word	0x20000088
 8012714:	ffffaa55 	.word	0xffffaa55
 8012718:	41615252 	.word	0x41615252
 801271c:	61417272 	.word	0x61417272
 8012720:	2001      	movs	r0, #1
 8012722:	f10e 0202 	add.w	r2, lr, #2
 8012726:	61a2      	str	r2, [r4, #24]
 8012728:	6227      	str	r7, [r4, #32]
 801272a:	44b8      	add	r8, r7
 801272c:	f8c4 8024 	str.w	r8, [r4, #36]	; 0x24
 8012730:	4467      	add	r7, ip
 8012732:	62e7      	str	r7, [r4, #44]	; 0x2c
 8012734:	2e00      	cmp	r6, #0
 8012736:	d0e6      	beq.n	8012706 <find_volume+0x34a>
 8012738:	4441      	add	r1, r8
 801273a:	62a1      	str	r1, [r4, #40]	; 0x28
 801273c:	2802      	cmp	r0, #2
 801273e:	bf0f      	iteee	eq
 8012740:	0052      	lsleq	r2, r2, #1
 8012742:	eb02 0142 	addne.w	r1, r2, r2, lsl #1
 8012746:	f002 0201 	andne.w	r2, r2, #1
 801274a:	eb02 0251 	addne.w	r2, r2, r1, lsr #1
 801274e:	f202 12ff 	addw	r2, r2, #511	; 0x1ff
 8012752:	ebb3 2f52 	cmp.w	r3, r2, lsr #9
 8012756:	d3d4      	bcc.n	8012702 <find_volume+0x346>
 8012758:	f04f 33ff 	mov.w	r3, #4294967295	; 0xffffffff
 801275c:	6123      	str	r3, [r4, #16]
 801275e:	60e3      	str	r3, [r4, #12]
 8012760:	2380      	movs	r3, #128	; 0x80
 8012762:	7163      	strb	r3, [r4, #5]
 8012764:	7020      	strb	r0, [r4, #0]
 8012766:	4a04      	ldr	r2, [pc, #16]	; (8012778 <find_volume+0x3bc>)
 8012768:	8893      	ldrh	r3, [r2, #4]
 801276a:	3301      	adds	r3, #1
 801276c:	b29b      	uxth	r3, r3
 801276e:	8093      	strh	r3, [r2, #4]
 8012770:	80e3      	strh	r3, [r4, #6]
 8012772:	2300      	movs	r3, #0
 8012774:	6163      	str	r3, [r4, #20]
 8012776:	e7a2      	b.n	80126be <find_volume+0x302>
 8012778:	20000088 	.word	0x20000088

0801277c <sync_fs>:
 801277c:	b538      	push	{r3, r4, r5, lr}
 801277e:	4604      	mov	r4, r0
 8012780:	f7ff fd76 	bl	8012270 <sync_window>
 8012784:	b950      	cbnz	r0, 801279c <sync_fs+0x20>
 8012786:	7823      	ldrb	r3, [r4, #0]
 8012788:	2b03      	cmp	r3, #3
 801278a:	d008      	beq.n	801279e <sync_fs+0x22>
 801278c:	2200      	movs	r2, #0
 801278e:	4611      	mov	r1, r2
 8012790:	7860      	ldrb	r0, [r4, #1]
 8012792:	f002 fad7 	bl	8014d44 <disk_ioctl>
 8012796:	3800      	subs	r0, #0
 8012798:	bf18      	it	ne
 801279a:	2001      	movne	r0, #1
 801279c:	bd38      	pop	{r3, r4, r5, pc}
 801279e:	7963      	ldrb	r3, [r4, #5]
 80127a0:	2b01      	cmp	r3, #1
 80127a2:	d1f3      	bne.n	801278c <sync_fs+0x10>
 80127a4:	f104 0534 	add.w	r5, r4, #52	; 0x34
 80127a8:	f44f 7200 	mov.w	r2, #512	; 0x200
 80127ac:	2100      	movs	r1, #0
 80127ae:	4628      	mov	r0, r5
 80127b0:	f7ff fcde 	bl	8012170 <mem_set>
 80127b4:	2355      	movs	r3, #85	; 0x55
 80127b6:	f884 3232 	strb.w	r3, [r4, #562]	; 0x232
 80127ba:	23aa      	movs	r3, #170	; 0xaa
 80127bc:	f884 3233 	strb.w	r3, [r4, #563]	; 0x233
 80127c0:	2352      	movs	r3, #82	; 0x52
 80127c2:	f884 3034 	strb.w	r3, [r4, #52]	; 0x34
 80127c6:	f884 3035 	strb.w	r3, [r4, #53]	; 0x35
 80127ca:	2361      	movs	r3, #97	; 0x61
 80127cc:	f884 3036 	strb.w	r3, [r4, #54]	; 0x36
 80127d0:	2241      	movs	r2, #65	; 0x41
 80127d2:	f884 2037 	strb.w	r2, [r4, #55]	; 0x37
 80127d6:	2172      	movs	r1, #114	; 0x72
 80127d8:	f884 1218 	strb.w	r1, [r4, #536]	; 0x218
 80127dc:	f884 1219 	strb.w	r1, [r4, #537]	; 0x219
 80127e0:	f884 221a 	strb.w	r2, [r4, #538]	; 0x21a
 80127e4:	f884 321b 	strb.w	r3, [r4, #539]	; 0x21b
 80127e8:	6923      	ldr	r3, [r4, #16]
 80127ea:	f884 321c 	strb.w	r3, [r4, #540]	; 0x21c
 80127ee:	f3c3 2207 	ubfx	r2, r3, #8, #8
 80127f2:	f884 221d 	strb.w	r2, [r4, #541]	; 0x21d
 80127f6:	0c1a      	lsrs	r2, r3, #16
 80127f8:	f884 221e 	strb.w	r2, [r4, #542]	; 0x21e
 80127fc:	0e1b      	lsrs	r3, r3, #24
 80127fe:	f884 321f 	strb.w	r3, [r4, #543]	; 0x21f
 8012802:	68e3      	ldr	r3, [r4, #12]
 8012804:	f884 3220 	strb.w	r3, [r4, #544]	; 0x220
 8012808:	f3c3 2207 	ubfx	r2, r3, #8, #8
 801280c:	f884 2221 	strb.w	r2, [r4, #545]	; 0x221
 8012810:	0c1a      	lsrs	r2, r3, #16
 8012812:	f884 2222 	strb.w	r2, [r4, #546]	; 0x222
 8012816:	0e1b      	lsrs	r3, r3, #24
 8012818:	f884 3223 	strb.w	r3, [r4, #547]	; 0x223
 801281c:	6a22      	ldr	r2, [r4, #32]
 801281e:	3201      	adds	r2, #1
 8012820:	6322      	str	r2, [r4, #48]	; 0x30
 8012822:	2301      	movs	r3, #1
 8012824:	4629      	mov	r1, r5
 8012826:	7860      	ldrb	r0, [r4, #1]
 8012828:	f002 fa36 	bl	8014c98 <disk_write>
 801282c:	2300      	movs	r3, #0
 801282e:	7163      	strb	r3, [r4, #5]
 8012830:	e7ac      	b.n	801278c <sync_fs+0x10>

08012832 <clust2sect>:
 8012832:	3902      	subs	r1, #2
 8012834:	6983      	ldr	r3, [r0, #24]
 8012836:	3b02      	subs	r3, #2
 8012838:	428b      	cmp	r3, r1
 801283a:	bf83      	ittte	hi
 801283c:	7883      	ldrbhi	r3, [r0, #2]
 801283e:	6ac0      	ldrhi	r0, [r0, #44]	; 0x2c
 8012840:	fb01 0003 	mlahi	r0, r1, r3, r0
 8012844:	2000      	movls	r0, #0
 8012846:	4770      	bx	lr

08012848 <get_fat>:
 8012848:	2901      	cmp	r1, #1
 801284a:	d961      	bls.n	8012910 <get_fat+0xc8>
 801284c:	b5f8      	push	{r3, r4, r5, r6, r7, lr}
 801284e:	4605      	mov	r5, r0
 8012850:	460c      	mov	r4, r1
 8012852:	6983      	ldr	r3, [r0, #24]
 8012854:	428b      	cmp	r3, r1
 8012856:	d95d      	bls.n	8012914 <get_fat+0xcc>
 8012858:	7803      	ldrb	r3, [r0, #0]
 801285a:	2b02      	cmp	r3, #2
 801285c:	d02c      	beq.n	80128b8 <get_fat+0x70>
 801285e:	2b03      	cmp	r3, #3
 8012860:	d03b      	beq.n	80128da <get_fat+0x92>
 8012862:	2b01      	cmp	r3, #1
 8012864:	d001      	beq.n	801286a <get_fat+0x22>
 8012866:	2001      	movs	r0, #1
 8012868:	e055      	b.n	8012916 <get_fat+0xce>
 801286a:	eb01 0651 	add.w	r6, r1, r1, lsr #1
 801286e:	6a41      	ldr	r1, [r0, #36]	; 0x24
 8012870:	eb01 2156 	add.w	r1, r1, r6, lsr #9
 8012874:	f7ff fd29 	bl	80122ca <move_window>
 8012878:	b110      	cbz	r0, 8012880 <get_fat+0x38>
 801287a:	f04f 30ff 	mov.w	r0, #4294967295	; 0xffffffff
 801287e:	e04a      	b.n	8012916 <get_fat+0xce>
 8012880:	1c77      	adds	r7, r6, #1
 8012882:	f3c6 0608 	ubfx	r6, r6, #0, #9
 8012886:	442e      	add	r6, r5
 8012888:	f896 6034 	ldrb.w	r6, [r6, #52]	; 0x34
 801288c:	6a69      	ldr	r1, [r5, #36]	; 0x24
 801288e:	eb01 2157 	add.w	r1, r1, r7, lsr #9
 8012892:	4628      	mov	r0, r5
 8012894:	f7ff fd19 	bl	80122ca <move_window>
 8012898:	2800      	cmp	r0, #0
 801289a:	d13d      	bne.n	8012918 <get_fat+0xd0>
 801289c:	f3c7 0708 	ubfx	r7, r7, #0, #9
 80128a0:	443d      	add	r5, r7
 80128a2:	f895 0034 	ldrb.w	r0, [r5, #52]	; 0x34
 80128a6:	ea46 2000 	orr.w	r0, r6, r0, lsl #8
 80128aa:	f014 0f01 	tst.w	r4, #1
 80128ae:	bf14      	ite	ne
 80128b0:	0900      	lsrne	r0, r0, #4
 80128b2:	f3c0 000b 	ubfxeq	r0, r0, #0, #12
 80128b6:	e02e      	b.n	8012916 <get_fat+0xce>
 80128b8:	6a41      	ldr	r1, [r0, #36]	; 0x24
 80128ba:	eb01 2114 	add.w	r1, r1, r4, lsr #8
 80128be:	f7ff fd04 	bl	80122ca <move_window>
 80128c2:	bb60      	cbnz	r0, 801291e <get_fat+0xd6>
 80128c4:	0064      	lsls	r4, r4, #1
 80128c6:	f404 74ff 	and.w	r4, r4, #510	; 0x1fe
 80128ca:	4425      	add	r5, r4
 80128cc:	f895 3035 	ldrb.w	r3, [r5, #53]	; 0x35
 80128d0:	f895 0034 	ldrb.w	r0, [r5, #52]	; 0x34
 80128d4:	ea40 2003 	orr.w	r0, r0, r3, lsl #8
 80128d8:	e01d      	b.n	8012916 <get_fat+0xce>
 80128da:	6a41      	ldr	r1, [r0, #36]	; 0x24
 80128dc:	eb01 11d4 	add.w	r1, r1, r4, lsr #7
 80128e0:	f7ff fcf3 	bl	80122ca <move_window>
 80128e4:	b9f0      	cbnz	r0, 8012924 <get_fat+0xdc>
 80128e6:	00a4      	lsls	r4, r4, #2
 80128e8:	f404 74fe 	and.w	r4, r4, #508	; 0x1fc
 80128ec:	f104 0334 	add.w	r3, r4, #52	; 0x34
 80128f0:	442b      	add	r3, r5
 80128f2:	78da      	ldrb	r2, [r3, #3]
 80128f4:	7898      	ldrb	r0, [r3, #2]
 80128f6:	0400      	lsls	r0, r0, #16
 80128f8:	ea40 6002 	orr.w	r0, r0, r2, lsl #24
 80128fc:	442c      	add	r4, r5
 80128fe:	f894 2034 	ldrb.w	r2, [r4, #52]	; 0x34
 8012902:	4310      	orrs	r0, r2
 8012904:	785b      	ldrb	r3, [r3, #1]
 8012906:	ea40 2003 	orr.w	r0, r0, r3, lsl #8
 801290a:	f020 4070 	bic.w	r0, r0, #4026531840	; 0xf0000000
 801290e:	e002      	b.n	8012916 <get_fat+0xce>
 8012910:	2001      	movs	r0, #1
 8012912:	4770      	bx	lr
 8012914:	2001      	movs	r0, #1
 8012916:	bdf8      	pop	{r3, r4, r5, r6, r7, pc}
 8012918:	f04f 30ff 	mov.w	r0, #4294967295	; 0xffffffff
 801291c:	e7fb      	b.n	8012916 <get_fat+0xce>
 801291e:	f04f 30ff 	mov.w	r0, #4294967295	; 0xffffffff
 8012922:	e7f8      	b.n	8012916 <get_fat+0xce>
 8012924:	f04f 30ff 	mov.w	r0, #4294967295	; 0xffffffff
 8012928:	e7f5      	b.n	8012916 <get_fat+0xce>

0801292a <dir_sdi>:
 801292a:	b5f8      	push	{r3, r4, r5, r6, r7, lr}
 801292c:	4606      	mov	r6, r0
 801292e:	80c1      	strh	r1, [r0, #6]
 8012930:	6884      	ldr	r4, [r0, #8]
 8012932:	2c01      	cmp	r4, #1
 8012934:	d03b      	beq.n	80129ae <dir_sdi+0x84>
 8012936:	460d      	mov	r5, r1
 8012938:	6803      	ldr	r3, [r0, #0]
 801293a:	699a      	ldr	r2, [r3, #24]
 801293c:	42a2      	cmp	r2, r4
 801293e:	d938      	bls.n	80129b2 <dir_sdi+0x88>
 8012940:	b9d4      	cbnz	r4, 8012978 <dir_sdi+0x4e>
 8012942:	781a      	ldrb	r2, [r3, #0]
 8012944:	2a03      	cmp	r2, #3
 8012946:	d013      	beq.n	8012970 <dir_sdi+0x46>
 8012948:	891a      	ldrh	r2, [r3, #8]
 801294a:	42aa      	cmp	r2, r5
 801294c:	d933      	bls.n	80129b6 <dir_sdi+0x8c>
 801294e:	6a98      	ldr	r0, [r3, #40]	; 0x28
 8012950:	60f4      	str	r4, [r6, #12]
 8012952:	2800      	cmp	r0, #0
 8012954:	d037      	beq.n	80129c6 <dir_sdi+0x9c>
 8012956:	eb00 1015 	add.w	r0, r0, r5, lsr #4
 801295a:	6130      	str	r0, [r6, #16]
 801295c:	6831      	ldr	r1, [r6, #0]
 801295e:	f101 0334 	add.w	r3, r1, #52	; 0x34
 8012962:	f005 010f 	and.w	r1, r5, #15
 8012966:	eb03 1141 	add.w	r1, r3, r1, lsl #5
 801296a:	6171      	str	r1, [r6, #20]
 801296c:	2000      	movs	r0, #0
 801296e:	bdf8      	pop	{r3, r4, r5, r6, r7, pc}
 8012970:	6a9a      	ldr	r2, [r3, #40]	; 0x28
 8012972:	2a00      	cmp	r2, #0
 8012974:	d0e8      	beq.n	8012948 <dir_sdi+0x1e>
 8012976:	4614      	mov	r4, r2
 8012978:	789b      	ldrb	r3, [r3, #2]
 801297a:	011f      	lsls	r7, r3, #4
 801297c:	ebb5 1f03 	cmp.w	r5, r3, lsl #4
 8012980:	d310      	bcc.n	80129a4 <dir_sdi+0x7a>
 8012982:	4621      	mov	r1, r4
 8012984:	6830      	ldr	r0, [r6, #0]
 8012986:	f7ff ff5f 	bl	8012848 <get_fat>
 801298a:	4604      	mov	r4, r0
 801298c:	f1b0 3fff 	cmp.w	r0, #4294967295	; 0xffffffff
 8012990:	d013      	beq.n	80129ba <dir_sdi+0x90>
 8012992:	2801      	cmp	r0, #1
 8012994:	d913      	bls.n	80129be <dir_sdi+0x94>
 8012996:	6833      	ldr	r3, [r6, #0]
 8012998:	699b      	ldr	r3, [r3, #24]
 801299a:	4283      	cmp	r3, r0
 801299c:	d911      	bls.n	80129c2 <dir_sdi+0x98>
 801299e:	1bed      	subs	r5, r5, r7
 80129a0:	42af      	cmp	r7, r5
 80129a2:	d9ee      	bls.n	8012982 <dir_sdi+0x58>
 80129a4:	4621      	mov	r1, r4
 80129a6:	6830      	ldr	r0, [r6, #0]
 80129a8:	f7ff ff43 	bl	8012832 <clust2sect>
 80129ac:	e7d0      	b.n	8012950 <dir_sdi+0x26>
 80129ae:	2002      	movs	r0, #2
 80129b0:	e7dd      	b.n	801296e <dir_sdi+0x44>
 80129b2:	2002      	movs	r0, #2
 80129b4:	e7db      	b.n	801296e <dir_sdi+0x44>
 80129b6:	2002      	movs	r0, #2
 80129b8:	e7d9      	b.n	801296e <dir_sdi+0x44>
 80129ba:	2001      	movs	r0, #1
 80129bc:	e7d7      	b.n	801296e <dir_sdi+0x44>
 80129be:	2002      	movs	r0, #2
 80129c0:	e7d5      	b.n	801296e <dir_sdi+0x44>
 80129c2:	2002      	movs	r0, #2
 80129c4:	e7d3      	b.n	801296e <dir_sdi+0x44>
 80129c6:	2002      	movs	r0, #2
 80129c8:	e7d1      	b.n	801296e <dir_sdi+0x44>

080129ca <dir_remove>:
 80129ca:	b538      	push	{r3, r4, r5, lr}
 80129cc:	4604      	mov	r4, r0
 80129ce:	88c1      	ldrh	r1, [r0, #6]
 80129d0:	f7ff ffab 	bl	801292a <dir_sdi>
 80129d4:	4605      	mov	r5, r0
 80129d6:	b108      	cbz	r0, 80129dc <dir_remove+0x12>
 80129d8:	4628      	mov	r0, r5
 80129da:	bd38      	pop	{r3, r4, r5, pc}
 80129dc:	6921      	ldr	r1, [r4, #16]
 80129de:	6820      	ldr	r0, [r4, #0]
 80129e0:	f7ff fc73 	bl	80122ca <move_window>
 80129e4:	4605      	mov	r5, r0
 80129e6:	2800      	cmp	r0, #0
 80129e8:	d1f6      	bne.n	80129d8 <dir_remove+0xe>
 80129ea:	2220      	movs	r2, #32
 80129ec:	2100      	movs	r1, #0
 80129ee:	6960      	ldr	r0, [r4, #20]
 80129f0:	f7ff fbbe 	bl	8012170 <mem_set>
 80129f4:	6963      	ldr	r3, [r4, #20]
 80129f6:	22e5      	movs	r2, #229	; 0xe5
 80129f8:	701a      	strb	r2, [r3, #0]
 80129fa:	6823      	ldr	r3, [r4, #0]
 80129fc:	2201      	movs	r2, #1
 80129fe:	711a      	strb	r2, [r3, #4]
 8012a00:	e7ea      	b.n	80129d8 <dir_remove+0xe>

08012a02 <put_fat>:
 8012a02:	e92d 43f8 	stmdb	sp!, {r3, r4, r5, r6, r7, r8, r9, lr}
 8012a06:	2901      	cmp	r1, #1
 8012a08:	f240 808e 	bls.w	8012b28 <put_fat+0x126>
 8012a0c:	4605      	mov	r5, r0
 8012a0e:	460c      	mov	r4, r1
 8012a10:	4616      	mov	r6, r2
 8012a12:	6983      	ldr	r3, [r0, #24]
 8012a14:	428b      	cmp	r3, r1
 8012a16:	f240 8089 	bls.w	8012b2c <put_fat+0x12a>
 8012a1a:	7803      	ldrb	r3, [r0, #0]
 8012a1c:	2b02      	cmp	r3, #2
 8012a1e:	d04e      	beq.n	8012abe <put_fat+0xbc>
 8012a20:	2b03      	cmp	r3, #3
 8012a22:	d061      	beq.n	8012ae8 <put_fat+0xe6>
 8012a24:	2b01      	cmp	r3, #1
 8012a26:	d003      	beq.n	8012a30 <put_fat+0x2e>
 8012a28:	2702      	movs	r7, #2
 8012a2a:	4638      	mov	r0, r7
 8012a2c:	e8bd 83f8 	ldmia.w	sp!, {r3, r4, r5, r6, r7, r8, r9, pc}
 8012a30:	eb01 0851 	add.w	r8, r1, r1, lsr #1
 8012a34:	6a41      	ldr	r1, [r0, #36]	; 0x24
 8012a36:	eb01 2158 	add.w	r1, r1, r8, lsr #9
 8012a3a:	f7ff fc46 	bl	80122ca <move_window>
 8012a3e:	4607      	mov	r7, r0
 8012a40:	2800      	cmp	r0, #0
 8012a42:	d1f2      	bne.n	8012a2a <put_fat+0x28>
 8012a44:	f108 0901 	add.w	r9, r8, #1
 8012a48:	f3c8 0808 	ubfx	r8, r8, #0, #9
 8012a4c:	f014 0f01 	tst.w	r4, #1
 8012a50:	d01c      	beq.n	8012a8c <put_fat+0x8a>
 8012a52:	44a8      	add	r8, r5
 8012a54:	f898 3034 	ldrb.w	r3, [r8, #52]	; 0x34
 8012a58:	f003 030f 	and.w	r3, r3, #15
 8012a5c:	ea43 1306 	orr.w	r3, r3, r6, lsl #4
 8012a60:	f888 3034 	strb.w	r3, [r8, #52]	; 0x34
 8012a64:	2301      	movs	r3, #1
 8012a66:	712b      	strb	r3, [r5, #4]
 8012a68:	6a69      	ldr	r1, [r5, #36]	; 0x24
 8012a6a:	eb01 2159 	add.w	r1, r1, r9, lsr #9
 8012a6e:	4628      	mov	r0, r5
 8012a70:	f7ff fc2b 	bl	80122ca <move_window>
 8012a74:	2800      	cmp	r0, #0
 8012a76:	d15b      	bne.n	8012b30 <put_fat+0x12e>
 8012a78:	f3c9 0908 	ubfx	r9, r9, #0, #9
 8012a7c:	f3c6 1207 	ubfx	r2, r6, #4, #8
 8012a80:	44a9      	add	r9, r5
 8012a82:	f889 2034 	strb.w	r2, [r9, #52]	; 0x34
 8012a86:	2301      	movs	r3, #1
 8012a88:	712b      	strb	r3, [r5, #4]
 8012a8a:	e7ce      	b.n	8012a2a <put_fat+0x28>
 8012a8c:	44a8      	add	r8, r5
 8012a8e:	f888 6034 	strb.w	r6, [r8, #52]	; 0x34
 8012a92:	2301      	movs	r3, #1
 8012a94:	712b      	strb	r3, [r5, #4]
 8012a96:	6a69      	ldr	r1, [r5, #36]	; 0x24
 8012a98:	eb01 2159 	add.w	r1, r1, r9, lsr #9
 8012a9c:	4628      	mov	r0, r5
 8012a9e:	f7ff fc14 	bl	80122ca <move_window>
 8012aa2:	2800      	cmp	r0, #0
 8012aa4:	d146      	bne.n	8012b34 <put_fat+0x132>
 8012aa6:	f3c9 0908 	ubfx	r9, r9, #0, #9
 8012aaa:	eb05 0309 	add.w	r3, r5, r9
 8012aae:	f893 3034 	ldrb.w	r3, [r3, #52]	; 0x34
 8012ab2:	f023 030f 	bic.w	r3, r3, #15
 8012ab6:	f3c6 2203 	ubfx	r2, r6, #8, #4
 8012aba:	431a      	orrs	r2, r3
 8012abc:	e7e0      	b.n	8012a80 <put_fat+0x7e>
 8012abe:	6a41      	ldr	r1, [r0, #36]	; 0x24
 8012ac0:	eb01 2114 	add.w	r1, r1, r4, lsr #8
 8012ac4:	f7ff fc01 	bl	80122ca <move_window>
 8012ac8:	4607      	mov	r7, r0
 8012aca:	2800      	cmp	r0, #0
 8012acc:	d1ad      	bne.n	8012a2a <put_fat+0x28>
 8012ace:	0063      	lsls	r3, r4, #1
 8012ad0:	f403 73ff 	and.w	r3, r3, #510	; 0x1fe
 8012ad4:	442b      	add	r3, r5
 8012ad6:	f883 6034 	strb.w	r6, [r3, #52]	; 0x34
 8012ada:	f3c6 2207 	ubfx	r2, r6, #8, #8
 8012ade:	f883 2035 	strb.w	r2, [r3, #53]	; 0x35
 8012ae2:	2301      	movs	r3, #1
 8012ae4:	712b      	strb	r3, [r5, #4]
 8012ae6:	e7a0      	b.n	8012a2a <put_fat+0x28>
 8012ae8:	6a41      	ldr	r1, [r0, #36]	; 0x24
 8012aea:	eb01 11d4 	add.w	r1, r1, r4, lsr #7
 8012aee:	f7ff fbec 	bl	80122ca <move_window>
 8012af2:	4607      	mov	r7, r0
 8012af4:	2800      	cmp	r0, #0
 8012af6:	d198      	bne.n	8012a2a <put_fat+0x28>
 8012af8:	00a4      	lsls	r4, r4, #2
 8012afa:	f404 74fe 	and.w	r4, r4, #508	; 0x1fc
 8012afe:	f104 0334 	add.w	r3, r4, #52	; 0x34
 8012b02:	442b      	add	r3, r5
 8012b04:	78da      	ldrb	r2, [r3, #3]
 8012b06:	0612      	lsls	r2, r2, #24
 8012b08:	442c      	add	r4, r5
 8012b0a:	f002 4270 	and.w	r2, r2, #4026531840	; 0xf0000000
 8012b0e:	4332      	orrs	r2, r6
 8012b10:	f884 2034 	strb.w	r2, [r4, #52]	; 0x34
 8012b14:	f3c2 2107 	ubfx	r1, r2, #8, #8
 8012b18:	7059      	strb	r1, [r3, #1]
 8012b1a:	0c11      	lsrs	r1, r2, #16
 8012b1c:	7099      	strb	r1, [r3, #2]
 8012b1e:	0e12      	lsrs	r2, r2, #24
 8012b20:	70da      	strb	r2, [r3, #3]
 8012b22:	2301      	movs	r3, #1
 8012b24:	712b      	strb	r3, [r5, #4]
 8012b26:	e780      	b.n	8012a2a <put_fat+0x28>
 8012b28:	2702      	movs	r7, #2
 8012b2a:	e77e      	b.n	8012a2a <put_fat+0x28>
 8012b2c:	2702      	movs	r7, #2
 8012b2e:	e77c      	b.n	8012a2a <put_fat+0x28>
 8012b30:	4607      	mov	r7, r0
 8012b32:	e77a      	b.n	8012a2a <put_fat+0x28>
 8012b34:	4607      	mov	r7, r0
 8012b36:	e778      	b.n	8012a2a <put_fat+0x28>

08012b38 <create_chain>:
 8012b38:	b5f8      	push	{r3, r4, r5, r6, r7, lr}
 8012b3a:	4605      	mov	r5, r0
 8012b3c:	460f      	mov	r7, r1
 8012b3e:	b939      	cbnz	r1, 8012b50 <create_chain+0x18>
 8012b40:	68c6      	ldr	r6, [r0, #12]
 8012b42:	b196      	cbz	r6, 8012b6a <create_chain+0x32>
 8012b44:	6983      	ldr	r3, [r0, #24]
 8012b46:	42b3      	cmp	r3, r6
 8012b48:	bf98      	it	ls
 8012b4a:	2601      	movls	r6, #1
 8012b4c:	4634      	mov	r4, r6
 8012b4e:	e01b      	b.n	8012b88 <create_chain+0x50>
 8012b50:	f7ff fe7a 	bl	8012848 <get_fat>
 8012b54:	4603      	mov	r3, r0
 8012b56:	2801      	cmp	r0, #1
 8012b58:	d942      	bls.n	8012be0 <create_chain+0xa8>
 8012b5a:	f1b0 3fff 	cmp.w	r0, #4294967295	; 0xffffffff
 8012b5e:	d044      	beq.n	8012bea <create_chain+0xb2>
 8012b60:	69aa      	ldr	r2, [r5, #24]
 8012b62:	4282      	cmp	r2, r0
 8012b64:	d841      	bhi.n	8012bea <create_chain+0xb2>
 8012b66:	463e      	mov	r6, r7
 8012b68:	e7f0      	b.n	8012b4c <create_chain+0x14>
 8012b6a:	2601      	movs	r6, #1
 8012b6c:	e7ee      	b.n	8012b4c <create_chain+0x14>
 8012b6e:	4621      	mov	r1, r4
 8012b70:	4628      	mov	r0, r5
 8012b72:	f7ff fe69 	bl	8012848 <get_fat>
 8012b76:	4603      	mov	r3, r0
 8012b78:	b170      	cbz	r0, 8012b98 <create_chain+0x60>
 8012b7a:	f1b0 3fff 	cmp.w	r0, #4294967295	; 0xffffffff
 8012b7e:	d034      	beq.n	8012bea <create_chain+0xb2>
 8012b80:	2801      	cmp	r0, #1
 8012b82:	d032      	beq.n	8012bea <create_chain+0xb2>
 8012b84:	42b4      	cmp	r4, r6
 8012b86:	d02f      	beq.n	8012be8 <create_chain+0xb0>
 8012b88:	3401      	adds	r4, #1
 8012b8a:	69ab      	ldr	r3, [r5, #24]
 8012b8c:	42a3      	cmp	r3, r4
 8012b8e:	d8ee      	bhi.n	8012b6e <create_chain+0x36>
 8012b90:	2e01      	cmp	r6, #1
 8012b92:	d927      	bls.n	8012be4 <create_chain+0xac>
 8012b94:	2402      	movs	r4, #2
 8012b96:	e7ea      	b.n	8012b6e <create_chain+0x36>
 8012b98:	f06f 4270 	mvn.w	r2, #4026531840	; 0xf0000000
 8012b9c:	4621      	mov	r1, r4
 8012b9e:	4628      	mov	r0, r5
 8012ba0:	f7ff ff2f 	bl	8012a02 <put_fat>
 8012ba4:	4603      	mov	r3, r0
 8012ba6:	b9a8      	cbnz	r0, 8012bd4 <create_chain+0x9c>
 8012ba8:	b967      	cbnz	r7, 8012bc4 <create_chain+0x8c>
 8012baa:	60ec      	str	r4, [r5, #12]
 8012bac:	692b      	ldr	r3, [r5, #16]
 8012bae:	f1b3 3fff 	cmp.w	r3, #4294967295	; 0xffffffff
 8012bb2:	d01c      	beq.n	8012bee <create_chain+0xb6>
 8012bb4:	3b01      	subs	r3, #1
 8012bb6:	612b      	str	r3, [r5, #16]
 8012bb8:	796b      	ldrb	r3, [r5, #5]
 8012bba:	f043 0301 	orr.w	r3, r3, #1
 8012bbe:	716b      	strb	r3, [r5, #5]
 8012bc0:	4623      	mov	r3, r4
 8012bc2:	e012      	b.n	8012bea <create_chain+0xb2>
 8012bc4:	4622      	mov	r2, r4
 8012bc6:	4639      	mov	r1, r7
 8012bc8:	4628      	mov	r0, r5
 8012bca:	f7ff ff1a 	bl	8012a02 <put_fat>
 8012bce:	4603      	mov	r3, r0
 8012bd0:	2800      	cmp	r0, #0
 8012bd2:	d0ea      	beq.n	8012baa <create_chain+0x72>
 8012bd4:	2b01      	cmp	r3, #1
 8012bd6:	bf0c      	ite	eq
 8012bd8:	f04f 33ff 	moveq.w	r3, #4294967295	; 0xffffffff
 8012bdc:	2301      	movne	r3, #1
 8012bde:	e004      	b.n	8012bea <create_chain+0xb2>
 8012be0:	2301      	movs	r3, #1
 8012be2:	e002      	b.n	8012bea <create_chain+0xb2>
 8012be4:	2300      	movs	r3, #0
 8012be6:	e000      	b.n	8012bea <create_chain+0xb2>
 8012be8:	2300      	movs	r3, #0
 8012bea:	4618      	mov	r0, r3
 8012bec:	bdf8      	pop	{r3, r4, r5, r6, r7, pc}
 8012bee:	4623      	mov	r3, r4
 8012bf0:	e7fb      	b.n	8012bea <create_chain+0xb2>

08012bf2 <dir_next>:
 8012bf2:	e92d 43f8 	stmdb	sp!, {r3, r4, r5, r6, r7, r8, r9, lr}
 8012bf6:	88c5      	ldrh	r5, [r0, #6]
 8012bf8:	1c6b      	adds	r3, r5, #1
 8012bfa:	b29a      	uxth	r2, r3
 8012bfc:	2a00      	cmp	r2, #0
 8012bfe:	d06a      	beq.n	8012cd6 <dir_next+0xe4>
 8012c00:	4604      	mov	r4, r0
 8012c02:	460f      	mov	r7, r1
 8012c04:	6902      	ldr	r2, [r0, #16]
 8012c06:	2a00      	cmp	r2, #0
 8012c08:	d067      	beq.n	8012cda <dir_next+0xe8>
 8012c0a:	f013 060f 	ands.w	r6, r3, #15
 8012c0e:	d107      	bne.n	8012c20 <dir_next+0x2e>
 8012c10:	3201      	adds	r2, #1
 8012c12:	6102      	str	r2, [r0, #16]
 8012c14:	68c1      	ldr	r1, [r0, #12]
 8012c16:	b969      	cbnz	r1, 8012c34 <dir_next+0x42>
 8012c18:	6802      	ldr	r2, [r0, #0]
 8012c1a:	8912      	ldrh	r2, [r2, #8]
 8012c1c:	429a      	cmp	r2, r3
 8012c1e:	d95e      	bls.n	8012cde <dir_next+0xec>
 8012c20:	3501      	adds	r5, #1
 8012c22:	80e5      	strh	r5, [r4, #6]
 8012c24:	6823      	ldr	r3, [r4, #0]
 8012c26:	3334      	adds	r3, #52	; 0x34
 8012c28:	eb03 1346 	add.w	r3, r3, r6, lsl #5
 8012c2c:	6163      	str	r3, [r4, #20]
 8012c2e:	2000      	movs	r0, #0
 8012c30:	e8bd 83f8 	ldmia.w	sp!, {r3, r4, r5, r6, r7, r8, r9, pc}
 8012c34:	6800      	ldr	r0, [r0, #0]
 8012c36:	7882      	ldrb	r2, [r0, #2]
 8012c38:	3a01      	subs	r2, #1
 8012c3a:	ea12 1813 	ands.w	r8, r2, r3, lsr #4
 8012c3e:	d1ef      	bne.n	8012c20 <dir_next+0x2e>
 8012c40:	f7ff fe02 	bl	8012848 <get_fat>
 8012c44:	4681      	mov	r9, r0
 8012c46:	2801      	cmp	r0, #1
 8012c48:	d94b      	bls.n	8012ce2 <dir_next+0xf0>
 8012c4a:	f1b0 3fff 	cmp.w	r0, #4294967295	; 0xffffffff
 8012c4e:	d04a      	beq.n	8012ce6 <dir_next+0xf4>
 8012c50:	6820      	ldr	r0, [r4, #0]
 8012c52:	6983      	ldr	r3, [r0, #24]
 8012c54:	454b      	cmp	r3, r9
 8012c56:	d836      	bhi.n	8012cc6 <dir_next+0xd4>
 8012c58:	2f00      	cmp	r7, #0
 8012c5a:	d046      	beq.n	8012cea <dir_next+0xf8>
 8012c5c:	68e1      	ldr	r1, [r4, #12]
 8012c5e:	f7ff ff6b 	bl	8012b38 <create_chain>
 8012c62:	4681      	mov	r9, r0
 8012c64:	2800      	cmp	r0, #0
 8012c66:	d042      	beq.n	8012cee <dir_next+0xfc>
 8012c68:	2801      	cmp	r0, #1
 8012c6a:	d042      	beq.n	8012cf2 <dir_next+0x100>
 8012c6c:	f1b0 3fff 	cmp.w	r0, #4294967295	; 0xffffffff
 8012c70:	d041      	beq.n	8012cf6 <dir_next+0x104>
 8012c72:	6820      	ldr	r0, [r4, #0]
 8012c74:	f7ff fafc 	bl	8012270 <sync_window>
 8012c78:	b108      	cbz	r0, 8012c7e <dir_next+0x8c>
 8012c7a:	2001      	movs	r0, #1
 8012c7c:	e7d8      	b.n	8012c30 <dir_next+0x3e>
 8012c7e:	6820      	ldr	r0, [r4, #0]
 8012c80:	f44f 7200 	mov.w	r2, #512	; 0x200
 8012c84:	2100      	movs	r1, #0
 8012c86:	3034      	adds	r0, #52	; 0x34
 8012c88:	f7ff fa72 	bl	8012170 <mem_set>
 8012c8c:	6827      	ldr	r7, [r4, #0]
 8012c8e:	4649      	mov	r1, r9
 8012c90:	4638      	mov	r0, r7
 8012c92:	f7ff fdce 	bl	8012832 <clust2sect>
 8012c96:	6338      	str	r0, [r7, #48]	; 0x30
 8012c98:	6823      	ldr	r3, [r4, #0]
 8012c9a:	789a      	ldrb	r2, [r3, #2]
 8012c9c:	b17a      	cbz	r2, 8012cbe <dir_next+0xcc>
 8012c9e:	2701      	movs	r7, #1
 8012ca0:	711f      	strb	r7, [r3, #4]
 8012ca2:	6820      	ldr	r0, [r4, #0]
 8012ca4:	f7ff fae4 	bl	8012270 <sync_window>
 8012ca8:	bb38      	cbnz	r0, 8012cfa <dir_next+0x108>
 8012caa:	6822      	ldr	r2, [r4, #0]
 8012cac:	6b13      	ldr	r3, [r2, #48]	; 0x30
 8012cae:	3301      	adds	r3, #1
 8012cb0:	6313      	str	r3, [r2, #48]	; 0x30
 8012cb2:	f108 0801 	add.w	r8, r8, #1
 8012cb6:	6823      	ldr	r3, [r4, #0]
 8012cb8:	789a      	ldrb	r2, [r3, #2]
 8012cba:	4542      	cmp	r2, r8
 8012cbc:	d8f0      	bhi.n	8012ca0 <dir_next+0xae>
 8012cbe:	6b1a      	ldr	r2, [r3, #48]	; 0x30
 8012cc0:	eba2 0208 	sub.w	r2, r2, r8
 8012cc4:	631a      	str	r2, [r3, #48]	; 0x30
 8012cc6:	f8c4 900c 	str.w	r9, [r4, #12]
 8012cca:	4649      	mov	r1, r9
 8012ccc:	6820      	ldr	r0, [r4, #0]
 8012cce:	f7ff fdb0 	bl	8012832 <clust2sect>
 8012cd2:	6120      	str	r0, [r4, #16]
 8012cd4:	e7a4      	b.n	8012c20 <dir_next+0x2e>
 8012cd6:	2004      	movs	r0, #4
 8012cd8:	e7aa      	b.n	8012c30 <dir_next+0x3e>
 8012cda:	2004      	movs	r0, #4
 8012cdc:	e7a8      	b.n	8012c30 <dir_next+0x3e>
 8012cde:	2004      	movs	r0, #4
 8012ce0:	e7a6      	b.n	8012c30 <dir_next+0x3e>
 8012ce2:	2002      	movs	r0, #2
 8012ce4:	e7a4      	b.n	8012c30 <dir_next+0x3e>
 8012ce6:	2001      	movs	r0, #1
 8012ce8:	e7a2      	b.n	8012c30 <dir_next+0x3e>
 8012cea:	2004      	movs	r0, #4
 8012cec:	e7a0      	b.n	8012c30 <dir_next+0x3e>
 8012cee:	2007      	movs	r0, #7
 8012cf0:	e79e      	b.n	8012c30 <dir_next+0x3e>
 8012cf2:	2002      	movs	r0, #2
 8012cf4:	e79c      	b.n	8012c30 <dir_next+0x3e>
 8012cf6:	2001      	movs	r0, #1
 8012cf8:	e79a      	b.n	8012c30 <dir_next+0x3e>
 8012cfa:	2001      	movs	r0, #1
 8012cfc:	e798      	b.n	8012c30 <dir_next+0x3e>

08012cfe <follow_path>:
 8012cfe:	e92d 4ff8 	stmdb	sp!, {r3, r4, r5, r6, r7, r8, r9, sl, fp, lr}
 8012d02:	4605      	mov	r5, r0
 8012d04:	460c      	mov	r4, r1
 8012d06:	780b      	ldrb	r3, [r1, #0]
 8012d08:	2b2f      	cmp	r3, #47	; 0x2f
 8012d0a:	d004      	beq.n	8012d16 <follow_path+0x18>
 8012d0c:	2b5c      	cmp	r3, #92	; 0x5c
 8012d0e:	d002      	beq.n	8012d16 <follow_path+0x18>
 8012d10:	6803      	ldr	r3, [r0, #0]
 8012d12:	695b      	ldr	r3, [r3, #20]
 8012d14:	e001      	b.n	8012d1a <follow_path+0x1c>
 8012d16:	3401      	adds	r4, #1
 8012d18:	2300      	movs	r3, #0
 8012d1a:	60ab      	str	r3, [r5, #8]
 8012d1c:	7823      	ldrb	r3, [r4, #0]
 8012d1e:	2b1f      	cmp	r3, #31
 8012d20:	d902      	bls.n	8012d28 <follow_path+0x2a>
 8012d22:	260b      	movs	r6, #11
 8012d24:	4f84      	ldr	r7, [pc, #528]	; (8012f38 <follow_path+0x23a>)
 8012d26:	e098      	b.n	8012e5a <follow_path+0x15c>
 8012d28:	2100      	movs	r1, #0
 8012d2a:	4628      	mov	r0, r5
 8012d2c:	f7ff fdfd 	bl	801292a <dir_sdi>
 8012d30:	4603      	mov	r3, r0
 8012d32:	2200      	movs	r2, #0
 8012d34:	616a      	str	r2, [r5, #20]
 8012d36:	e0c4      	b.n	8012ec2 <follow_path+0x1c4>
 8012d38:	f888 3000 	strb.w	r3, [r8]
 8012d3c:	7863      	ldrb	r3, [r4, #1]
 8012d3e:	2b2e      	cmp	r3, #46	; 0x2e
 8012d40:	d109      	bne.n	8012d56 <follow_path+0x58>
 8012d42:	232e      	movs	r3, #46	; 0x2e
 8012d44:	f888 3001 	strb.w	r3, [r8, #1]
 8012d48:	78a3      	ldrb	r3, [r4, #2]
 8012d4a:	2b2e      	cmp	r3, #46	; 0x2e
 8012d4c:	d101      	bne.n	8012d52 <follow_path+0x54>
 8012d4e:	2306      	movs	r3, #6
 8012d50:	e0b7      	b.n	8012ec2 <follow_path+0x1c4>
 8012d52:	2103      	movs	r1, #3
 8012d54:	e000      	b.n	8012d58 <follow_path+0x5a>
 8012d56:	2102      	movs	r1, #2
 8012d58:	2b2f      	cmp	r3, #47	; 0x2f
 8012d5a:	f000 80b8 	beq.w	8012ece <follow_path+0x1d0>
 8012d5e:	2b5c      	cmp	r3, #92	; 0x5c
 8012d60:	f000 80b5 	beq.w	8012ece <follow_path+0x1d0>
 8012d64:	2b20      	cmp	r3, #32
 8012d66:	d8f2      	bhi.n	8012d4e <follow_path+0x50>
 8012d68:	440c      	add	r4, r1
 8012d6a:	2324      	movs	r3, #36	; 0x24
 8012d6c:	f888 300b 	strb.w	r3, [r8, #11]
 8012d70:	2100      	movs	r1, #0
 8012d72:	4628      	mov	r0, r5
 8012d74:	f7ff fdd9 	bl	801292a <dir_sdi>
 8012d78:	4603      	mov	r3, r0
 8012d7a:	2800      	cmp	r0, #0
 8012d7c:	f040 8094 	bne.w	8012ea8 <follow_path+0x1aa>
 8012d80:	f04f 0800 	mov.w	r8, #0
 8012d84:	e040      	b.n	8012e08 <follow_path+0x10a>
 8012d86:	f042 0203 	orr.w	r2, r2, #3
 8012d8a:	3b80      	subs	r3, #128	; 0x80
 8012d8c:	5cfb      	ldrb	r3, [r7, r3]
 8012d8e:	e020      	b.n	8012dd2 <follow_path+0xd4>
 8012d90:	2800      	cmp	r0, #0
 8012d92:	d1dc      	bne.n	8012d4e <follow_path+0x50>
 8012d94:	f1a3 0041 	sub.w	r0, r3, #65	; 0x41
 8012d98:	b2c0      	uxtb	r0, r0
 8012d9a:	2819      	cmp	r0, #25
 8012d9c:	d823      	bhi.n	8012de6 <follow_path+0xe8>
 8012d9e:	f042 0202 	orr.w	r2, r2, #2
 8012da2:	f808 3001 	strb.w	r3, [r8, r1]
 8012da6:	3101      	adds	r1, #1
 8012da8:	f10e 0e01 	add.w	lr, lr, #1
 8012dac:	f819 3f01 	ldrb.w	r3, [r9, #1]!
 8012db0:	2b20      	cmp	r3, #32
 8012db2:	f240 8095 	bls.w	8012ee0 <follow_path+0x1e2>
 8012db6:	2b2f      	cmp	r3, #47	; 0x2f
 8012db8:	f000 8095 	beq.w	8012ee6 <follow_path+0x1e8>
 8012dbc:	2b5c      	cmp	r3, #92	; 0x5c
 8012dbe:	f000 8092 	beq.w	8012ee6 <follow_path+0x1e8>
 8012dc2:	2b2e      	cmp	r3, #46	; 0x2e
 8012dc4:	f000 80af 	beq.w	8012f26 <follow_path+0x228>
 8012dc8:	458c      	cmp	ip, r1
 8012dca:	d9c0      	bls.n	8012d4e <follow_path+0x50>
 8012dcc:	f013 0f80 	tst.w	r3, #128	; 0x80
 8012dd0:	d1d9      	bne.n	8012d86 <follow_path+0x88>
 8012dd2:	4658      	mov	r0, fp
 8012dd4:	f8df a164 	ldr.w	sl, [pc, #356]	; 8012f3c <follow_path+0x23e>
 8012dd8:	4283      	cmp	r3, r0
 8012dda:	d0d9      	beq.n	8012d90 <follow_path+0x92>
 8012ddc:	f81a 0f01 	ldrb.w	r0, [sl, #1]!
 8012de0:	2800      	cmp	r0, #0
 8012de2:	d1f9      	bne.n	8012dd8 <follow_path+0xda>
 8012de4:	e7d6      	b.n	8012d94 <follow_path+0x96>
 8012de6:	f1a3 0061 	sub.w	r0, r3, #97	; 0x61
 8012dea:	b2c0      	uxtb	r0, r0
 8012dec:	2819      	cmp	r0, #25
 8012dee:	d8d8      	bhi.n	8012da2 <follow_path+0xa4>
 8012df0:	f042 0201 	orr.w	r2, r2, #1
 8012df4:	3b20      	subs	r3, #32
 8012df6:	b2db      	uxtb	r3, r3
 8012df8:	e7d3      	b.n	8012da2 <follow_path+0xa4>
 8012dfa:	4641      	mov	r1, r8
 8012dfc:	4628      	mov	r0, r5
 8012dfe:	f7ff fef8 	bl	8012bf2 <dir_next>
 8012e02:	4603      	mov	r3, r0
 8012e04:	2800      	cmp	r0, #0
 8012e06:	d14f      	bne.n	8012ea8 <follow_path+0x1aa>
 8012e08:	6929      	ldr	r1, [r5, #16]
 8012e0a:	6828      	ldr	r0, [r5, #0]
 8012e0c:	f7ff fa5d 	bl	80122ca <move_window>
 8012e10:	4603      	mov	r3, r0
 8012e12:	2800      	cmp	r0, #0
 8012e14:	d148      	bne.n	8012ea8 <follow_path+0x1aa>
 8012e16:	6969      	ldr	r1, [r5, #20]
 8012e18:	780b      	ldrb	r3, [r1, #0]
 8012e1a:	2b00      	cmp	r3, #0
 8012e1c:	d054      	beq.n	8012ec8 <follow_path+0x1ca>
 8012e1e:	7ac8      	ldrb	r0, [r1, #11]
 8012e20:	f010 0308 	ands.w	r3, r0, #8
 8012e24:	d1e9      	bne.n	8012dfa <follow_path+0xfc>
 8012e26:	f8d5 e018 	ldr.w	lr, [r5, #24]
 8012e2a:	f101 090b 	add.w	r9, r1, #11
 8012e2e:	46f4      	mov	ip, lr
 8012e30:	460a      	mov	r2, r1
 8012e32:	f812 bb01 	ldrb.w	fp, [r2], #1
 8012e36:	f81c ab01 	ldrb.w	sl, [ip], #1
 8012e3a:	45d3      	cmp	fp, sl
 8012e3c:	d1dd      	bne.n	8012dfa <follow_path+0xfc>
 8012e3e:	454a      	cmp	r2, r9
 8012e40:	d1f7      	bne.n	8012e32 <follow_path+0x134>
 8012e42:	f89e 200b 	ldrb.w	r2, [lr, #11]
 8012e46:	f012 0f04 	tst.w	r2, #4
 8012e4a:	d13a      	bne.n	8012ec2 <follow_path+0x1c4>
 8012e4c:	f010 0f10 	tst.w	r0, #16
 8012e50:	d028      	beq.n	8012ea4 <follow_path+0x1a6>
 8012e52:	6828      	ldr	r0, [r5, #0]
 8012e54:	f7ff f994 	bl	8012180 <ld_clust>
 8012e58:	60a8      	str	r0, [r5, #8]
 8012e5a:	4621      	mov	r1, r4
 8012e5c:	460c      	mov	r4, r1
 8012e5e:	780b      	ldrb	r3, [r1, #0]
 8012e60:	4689      	mov	r9, r1
 8012e62:	3101      	adds	r1, #1
 8012e64:	2b2f      	cmp	r3, #47	; 0x2f
 8012e66:	d0f9      	beq.n	8012e5c <follow_path+0x15e>
 8012e68:	2b5c      	cmp	r3, #92	; 0x5c
 8012e6a:	d0f7      	beq.n	8012e5c <follow_path+0x15e>
 8012e6c:	f8d5 8018 	ldr.w	r8, [r5, #24]
 8012e70:	4632      	mov	r2, r6
 8012e72:	2120      	movs	r1, #32
 8012e74:	4640      	mov	r0, r8
 8012e76:	f7ff f97b 	bl	8012170 <mem_set>
 8012e7a:	7823      	ldrb	r3, [r4, #0]
 8012e7c:	2b2e      	cmp	r3, #46	; 0x2e
 8012e7e:	f43f af5b 	beq.w	8012d38 <follow_path+0x3a>
 8012e82:	2b20      	cmp	r3, #32
 8012e84:	d926      	bls.n	8012ed4 <follow_path+0x1d6>
 8012e86:	2200      	movs	r2, #0
 8012e88:	4611      	mov	r1, r2
 8012e8a:	f04f 0c08 	mov.w	ip, #8
 8012e8e:	f04f 0e01 	mov.w	lr, #1
 8012e92:	f04f 0b22 	mov.w	fp, #34	; 0x22
 8012e96:	e78e      	b.n	8012db6 <follow_path+0xb8>
 8012e98:	f012 0f04 	tst.w	r2, #4
 8012e9c:	bf14      	ite	ne
 8012e9e:	2304      	movne	r3, #4
 8012ea0:	2305      	moveq	r3, #5
 8012ea2:	e00e      	b.n	8012ec2 <follow_path+0x1c4>
 8012ea4:	2305      	movs	r3, #5
 8012ea6:	e00c      	b.n	8012ec2 <follow_path+0x1c4>
 8012ea8:	69aa      	ldr	r2, [r5, #24]
 8012eaa:	7ad2      	ldrb	r2, [r2, #11]
 8012eac:	2b04      	cmp	r3, #4
 8012eae:	d108      	bne.n	8012ec2 <follow_path+0x1c4>
 8012eb0:	f012 0f20 	tst.w	r2, #32
 8012eb4:	d0f0      	beq.n	8012e98 <follow_path+0x19a>
 8012eb6:	2300      	movs	r3, #0
 8012eb8:	60ab      	str	r3, [r5, #8]
 8012eba:	616b      	str	r3, [r5, #20]
 8012ebc:	f012 0f04 	tst.w	r2, #4
 8012ec0:	d0cb      	beq.n	8012e5a <follow_path+0x15c>
 8012ec2:	4618      	mov	r0, r3
 8012ec4:	e8bd 8ff8 	ldmia.w	sp!, {r3, r4, r5, r6, r7, r8, r9, sl, fp, pc}
 8012ec8:	69ab      	ldr	r3, [r5, #24]
 8012eca:	7ada      	ldrb	r2, [r3, #11]
 8012ecc:	e7f0      	b.n	8012eb0 <follow_path+0x1b2>
 8012ece:	440c      	add	r4, r1
 8012ed0:	2320      	movs	r3, #32
 8012ed2:	e74b      	b.n	8012d6c <follow_path+0x6e>
 8012ed4:	2200      	movs	r2, #0
 8012ed6:	4611      	mov	r1, r2
 8012ed8:	f04f 0c08 	mov.w	ip, #8
 8012edc:	f04f 0e01 	mov.w	lr, #1
 8012ee0:	4474      	add	r4, lr
 8012ee2:	2304      	movs	r3, #4
 8012ee4:	e001      	b.n	8012eea <follow_path+0x1ec>
 8012ee6:	4474      	add	r4, lr
 8012ee8:	2300      	movs	r3, #0
 8012eea:	2900      	cmp	r1, #0
 8012eec:	f43f af2f 	beq.w	8012d4e <follow_path+0x50>
 8012ef0:	f898 1000 	ldrb.w	r1, [r8]
 8012ef4:	29e5      	cmp	r1, #229	; 0xe5
 8012ef6:	bf04      	itt	eq
 8012ef8:	2105      	moveq	r1, #5
 8012efa:	f888 1000 	strbeq.w	r1, [r8]
 8012efe:	f1bc 0f08 	cmp.w	ip, #8
 8012f02:	bf04      	itt	eq
 8012f04:	0092      	lsleq	r2, r2, #2
 8012f06:	b2d2      	uxtbeq	r2, r2
 8012f08:	f002 0103 	and.w	r1, r2, #3
 8012f0c:	2901      	cmp	r1, #1
 8012f0e:	bf08      	it	eq
 8012f10:	f043 0310 	orreq.w	r3, r3, #16
 8012f14:	f002 020c 	and.w	r2, r2, #12
 8012f18:	2a04      	cmp	r2, #4
 8012f1a:	bf08      	it	eq
 8012f1c:	f043 0308 	orreq.w	r3, r3, #8
 8012f20:	f888 300b 	strb.w	r3, [r8, #11]
 8012f24:	e724      	b.n	8012d70 <follow_path+0x72>
 8012f26:	f1bc 0f08 	cmp.w	ip, #8
 8012f2a:	f47f af10 	bne.w	8012d4e <follow_path+0x50>
 8012f2e:	0092      	lsls	r2, r2, #2
 8012f30:	b2d2      	uxtb	r2, r2
 8012f32:	4661      	mov	r1, ip
 8012f34:	46b4      	mov	ip, r6
 8012f36:	e737      	b.n	8012da8 <follow_path+0xaa>
 8012f38:	080196f0 	.word	0x080196f0
 8012f3c:	080196d0 	.word	0x080196d0

08012f40 <dir_alloc>:
 8012f40:	b5f8      	push	{r3, r4, r5, r6, r7, lr}
 8012f42:	4604      	mov	r4, r0
 8012f44:	460e      	mov	r6, r1
 8012f46:	2100      	movs	r1, #0
 8012f48:	f7ff fcef 	bl	801292a <dir_sdi>
 8012f4c:	4603      	mov	r3, r0
 8012f4e:	b9c8      	cbnz	r0, 8012f84 <dir_alloc+0x44>
 8012f50:	2500      	movs	r5, #0
 8012f52:	2701      	movs	r7, #1
 8012f54:	e008      	b.n	8012f68 <dir_alloc+0x28>
 8012f56:	3501      	adds	r5, #1
 8012f58:	42b5      	cmp	r5, r6
 8012f5a:	d016      	beq.n	8012f8a <dir_alloc+0x4a>
 8012f5c:	4639      	mov	r1, r7
 8012f5e:	4620      	mov	r0, r4
 8012f60:	f7ff fe47 	bl	8012bf2 <dir_next>
 8012f64:	4603      	mov	r3, r0
 8012f66:	b968      	cbnz	r0, 8012f84 <dir_alloc+0x44>
 8012f68:	6921      	ldr	r1, [r4, #16]
 8012f6a:	6820      	ldr	r0, [r4, #0]
 8012f6c:	f7ff f9ad 	bl	80122ca <move_window>
 8012f70:	4603      	mov	r3, r0
 8012f72:	b938      	cbnz	r0, 8012f84 <dir_alloc+0x44>
 8012f74:	6962      	ldr	r2, [r4, #20]
 8012f76:	7812      	ldrb	r2, [r2, #0]
 8012f78:	2ae5      	cmp	r2, #229	; 0xe5
 8012f7a:	d0ec      	beq.n	8012f56 <dir_alloc+0x16>
 8012f7c:	2a00      	cmp	r2, #0
 8012f7e:	d0ea      	beq.n	8012f56 <dir_alloc+0x16>
 8012f80:	2500      	movs	r5, #0
 8012f82:	e7eb      	b.n	8012f5c <dir_alloc+0x1c>
 8012f84:	2b04      	cmp	r3, #4
 8012f86:	bf08      	it	eq
 8012f88:	2307      	moveq	r3, #7
 8012f8a:	4618      	mov	r0, r3
 8012f8c:	bdf8      	pop	{r3, r4, r5, r6, r7, pc}

08012f8e <dir_register>:
 8012f8e:	b538      	push	{r3, r4, r5, lr}
 8012f90:	4604      	mov	r4, r0
 8012f92:	2101      	movs	r1, #1
 8012f94:	f7ff ffd4 	bl	8012f40 <dir_alloc>
 8012f98:	4605      	mov	r5, r0
 8012f9a:	b108      	cbz	r0, 8012fa0 <dir_register+0x12>
 8012f9c:	4628      	mov	r0, r5
 8012f9e:	bd38      	pop	{r3, r4, r5, pc}
 8012fa0:	6921      	ldr	r1, [r4, #16]
 8012fa2:	6820      	ldr	r0, [r4, #0]
 8012fa4:	f7ff f991 	bl	80122ca <move_window>
 8012fa8:	4605      	mov	r5, r0
 8012faa:	2800      	cmp	r0, #0
 8012fac:	d1f6      	bne.n	8012f9c <dir_register+0xe>
 8012fae:	2220      	movs	r2, #32
 8012fb0:	2100      	movs	r1, #0
 8012fb2:	6960      	ldr	r0, [r4, #20]
 8012fb4:	f7ff f8dc 	bl	8012170 <mem_set>
 8012fb8:	220b      	movs	r2, #11
 8012fba:	69a1      	ldr	r1, [r4, #24]
 8012fbc:	6960      	ldr	r0, [r4, #20]
 8012fbe:	f7ff f8cd 	bl	801215c <mem_cpy>
 8012fc2:	6823      	ldr	r3, [r4, #0]
 8012fc4:	2201      	movs	r2, #1
 8012fc6:	711a      	strb	r2, [r3, #4]
 8012fc8:	e7e8      	b.n	8012f9c <dir_register+0xe>

08012fca <dir_read>:
 8012fca:	b5f8      	push	{r3, r4, r5, r6, r7, lr}
 8012fcc:	4604      	mov	r4, r0
 8012fce:	460e      	mov	r6, r1
 8012fd0:	2704      	movs	r7, #4
 8012fd2:	2500      	movs	r5, #0
 8012fd4:	e005      	b.n	8012fe2 <dir_read+0x18>
 8012fd6:	4629      	mov	r1, r5
 8012fd8:	4620      	mov	r0, r4
 8012fda:	f7ff fe0a 	bl	8012bf2 <dir_next>
 8012fde:	4607      	mov	r7, r0
 8012fe0:	b9e0      	cbnz	r0, 801301c <dir_read+0x52>
 8012fe2:	6921      	ldr	r1, [r4, #16]
 8012fe4:	b1b9      	cbz	r1, 8013016 <dir_read+0x4c>
 8012fe6:	6820      	ldr	r0, [r4, #0]
 8012fe8:	f7ff f96f 	bl	80122ca <move_window>
 8012fec:	4607      	mov	r7, r0
 8012fee:	b9a8      	cbnz	r0, 801301c <dir_read+0x52>
 8012ff0:	6963      	ldr	r3, [r4, #20]
 8012ff2:	781a      	ldrb	r2, [r3, #0]
 8012ff4:	b18a      	cbz	r2, 801301a <dir_read+0x50>
 8012ff6:	7adb      	ldrb	r3, [r3, #11]
 8012ff8:	f003 033f 	and.w	r3, r3, #63	; 0x3f
 8012ffc:	2ae5      	cmp	r2, #229	; 0xe5
 8012ffe:	d0ea      	beq.n	8012fd6 <dir_read+0xc>
 8013000:	2b0f      	cmp	r3, #15
 8013002:	d0e8      	beq.n	8012fd6 <dir_read+0xc>
 8013004:	f023 0320 	bic.w	r3, r3, #32
 8013008:	2b08      	cmp	r3, #8
 801300a:	bf14      	ite	ne
 801300c:	2300      	movne	r3, #0
 801300e:	2301      	moveq	r3, #1
 8013010:	42b3      	cmp	r3, r6
 8013012:	d1e0      	bne.n	8012fd6 <dir_read+0xc>
 8013014:	e004      	b.n	8013020 <dir_read+0x56>
 8013016:	b11f      	cbz	r7, 8013020 <dir_read+0x56>
 8013018:	e000      	b.n	801301c <dir_read+0x52>
 801301a:	2704      	movs	r7, #4
 801301c:	2300      	movs	r3, #0
 801301e:	6123      	str	r3, [r4, #16]
 8013020:	4638      	mov	r0, r7
 8013022:	bdf8      	pop	{r3, r4, r5, r6, r7, pc}

08013024 <remove_chain>:
 8013024:	2901      	cmp	r1, #1
 8013026:	d928      	bls.n	801307a <remove_chain+0x56>
 8013028:	b5f8      	push	{r3, r4, r5, r6, r7, lr}
 801302a:	4605      	mov	r5, r0
 801302c:	460c      	mov	r4, r1
 801302e:	6983      	ldr	r3, [r0, #24]
 8013030:	428b      	cmp	r3, r1
 8013032:	d925      	bls.n	8013080 <remove_chain+0x5c>
 8013034:	2600      	movs	r6, #0
 8013036:	e008      	b.n	801304a <remove_chain+0x26>
 8013038:	3301      	adds	r3, #1
 801303a:	612b      	str	r3, [r5, #16]
 801303c:	796b      	ldrb	r3, [r5, #5]
 801303e:	f043 0301 	orr.w	r3, r3, #1
 8013042:	716b      	strb	r3, [r5, #5]
 8013044:	69ab      	ldr	r3, [r5, #24]
 8013046:	42a3      	cmp	r3, r4
 8013048:	d91b      	bls.n	8013082 <remove_chain+0x5e>
 801304a:	4627      	mov	r7, r4
 801304c:	4621      	mov	r1, r4
 801304e:	4628      	mov	r0, r5
 8013050:	f7ff fbfa 	bl	8012848 <get_fat>
 8013054:	4604      	mov	r4, r0
 8013056:	b1b0      	cbz	r0, 8013086 <remove_chain+0x62>
 8013058:	2801      	cmp	r0, #1
 801305a:	d016      	beq.n	801308a <remove_chain+0x66>
 801305c:	f1b0 3fff 	cmp.w	r0, #4294967295	; 0xffffffff
 8013060:	d015      	beq.n	801308e <remove_chain+0x6a>
 8013062:	4632      	mov	r2, r6
 8013064:	4639      	mov	r1, r7
 8013066:	4628      	mov	r0, r5
 8013068:	f7ff fccb 	bl	8012a02 <put_fat>
 801306c:	4602      	mov	r2, r0
 801306e:	b940      	cbnz	r0, 8013082 <remove_chain+0x5e>
 8013070:	692b      	ldr	r3, [r5, #16]
 8013072:	f1b3 3fff 	cmp.w	r3, #4294967295	; 0xffffffff
 8013076:	d1df      	bne.n	8013038 <remove_chain+0x14>
 8013078:	e7e4      	b.n	8013044 <remove_chain+0x20>
 801307a:	2202      	movs	r2, #2
 801307c:	4610      	mov	r0, r2
 801307e:	4770      	bx	lr
 8013080:	2202      	movs	r2, #2
 8013082:	4610      	mov	r0, r2
 8013084:	bdf8      	pop	{r3, r4, r5, r6, r7, pc}
 8013086:	2200      	movs	r2, #0
 8013088:	e7fb      	b.n	8013082 <remove_chain+0x5e>
 801308a:	2202      	movs	r2, #2
 801308c:	e7f9      	b.n	8013082 <remove_chain+0x5e>
 801308e:	2201      	movs	r2, #1
 8013090:	e7f7      	b.n	8013082 <remove_chain+0x5e>

08013092 <f_mount>:
 8013092:	b510      	push	{r4, lr}
 8013094:	b084      	sub	sp, #16
 8013096:	9001      	str	r0, [sp, #4]
 8013098:	9100      	str	r1, [sp, #0]
 801309a:	4614      	mov	r4, r2
 801309c:	9103      	str	r1, [sp, #12]
 801309e:	a803      	add	r0, sp, #12
 80130a0:	f7ff f8bd 	bl	801221e <get_ldnumber>
 80130a4:	2800      	cmp	r0, #0
 80130a6:	db19      	blt.n	80130dc <f_mount+0x4a>
 80130a8:	4b11      	ldr	r3, [pc, #68]	; (80130f0 <f_mount+0x5e>)
 80130aa:	f853 3020 	ldr.w	r3, [r3, r0, lsl #2]
 80130ae:	b10b      	cbz	r3, 80130b4 <f_mount+0x22>
 80130b0:	2200      	movs	r2, #0
 80130b2:	701a      	strb	r2, [r3, #0]
 80130b4:	9b01      	ldr	r3, [sp, #4]
 80130b6:	b1ab      	cbz	r3, 80130e4 <f_mount+0x52>
 80130b8:	2200      	movs	r2, #0
 80130ba:	701a      	strb	r2, [r3, #0]
 80130bc:	9b01      	ldr	r3, [sp, #4]
 80130be:	4a0c      	ldr	r2, [pc, #48]	; (80130f0 <f_mount+0x5e>)
 80130c0:	f842 3020 	str.w	r3, [r2, r0, lsl #2]
 80130c4:	b163      	cbz	r3, 80130e0 <f_mount+0x4e>
 80130c6:	2c01      	cmp	r4, #1
 80130c8:	d002      	beq.n	80130d0 <f_mount+0x3e>
 80130ca:	2000      	movs	r0, #0
 80130cc:	b004      	add	sp, #16
 80130ce:	bd10      	pop	{r4, pc}
 80130d0:	2200      	movs	r2, #0
 80130d2:	4669      	mov	r1, sp
 80130d4:	a801      	add	r0, sp, #4
 80130d6:	f7ff f971 	bl	80123bc <find_volume>
 80130da:	e7f7      	b.n	80130cc <f_mount+0x3a>
 80130dc:	200b      	movs	r0, #11
 80130de:	e7f5      	b.n	80130cc <f_mount+0x3a>
 80130e0:	2000      	movs	r0, #0
 80130e2:	e7f3      	b.n	80130cc <f_mount+0x3a>
 80130e4:	2300      	movs	r3, #0
 80130e6:	4a02      	ldr	r2, [pc, #8]	; (80130f0 <f_mount+0x5e>)
 80130e8:	f842 3020 	str.w	r3, [r2, r0, lsl #2]
 80130ec:	4618      	mov	r0, r3
 80130ee:	e7ed      	b.n	80130cc <f_mount+0x3a>
 80130f0:	20000088 	.word	0x20000088

080130f4 <f_open>:
 80130f4:	e92d 47f0 	stmdb	sp!, {r4, r5, r6, r7, r8, r9, sl, lr}
 80130f8:	b08c      	sub	sp, #48	; 0x30
 80130fa:	9101      	str	r1, [sp, #4]
 80130fc:	2800      	cmp	r0, #0
 80130fe:	d071      	beq.n	80131e4 <f_open+0xf0>
 8013100:	4614      	mov	r4, r2
 8013102:	4605      	mov	r5, r0
 8013104:	2300      	movs	r3, #0
 8013106:	6003      	str	r3, [r0, #0]
 8013108:	f002 021e 	and.w	r2, r2, #30
 801310c:	a901      	add	r1, sp, #4
 801310e:	a805      	add	r0, sp, #20
 8013110:	f7ff f954 	bl	80123bc <find_volume>
 8013114:	4606      	mov	r6, r0
 8013116:	b118      	cbz	r0, 8013120 <f_open+0x2c>
 8013118:	4630      	mov	r0, r6
 801311a:	b00c      	add	sp, #48	; 0x30
 801311c:	e8bd 87f0 	ldmia.w	sp!, {r4, r5, r6, r7, r8, r9, sl, pc}
 8013120:	f004 081f 	and.w	r8, r4, #31
 8013124:	ab02      	add	r3, sp, #8
 8013126:	930b      	str	r3, [sp, #44]	; 0x2c
 8013128:	9901      	ldr	r1, [sp, #4]
 801312a:	a805      	add	r0, sp, #20
 801312c:	f7ff fde7 	bl	8012cfe <follow_path>
 8013130:	9f0a      	ldr	r7, [sp, #40]	; 0x28
 8013132:	4603      	mov	r3, r0
 8013134:	b968      	cbnz	r0, 8013152 <f_open+0x5e>
 8013136:	2f00      	cmp	r7, #0
 8013138:	d05e      	beq.n	80131f8 <f_open+0x104>
 801313a:	f014 0f1c 	tst.w	r4, #28
 801313e:	d063      	beq.n	8013208 <f_open+0x114>
 8013140:	7afb      	ldrb	r3, [r7, #11]
 8013142:	f013 0f11 	tst.w	r3, #17
 8013146:	d155      	bne.n	80131f4 <f_open+0x100>
 8013148:	f014 0f04 	tst.w	r4, #4
 801314c:	d010      	beq.n	8013170 <f_open+0x7c>
 801314e:	2608      	movs	r6, #8
 8013150:	e7e2      	b.n	8013118 <f_open+0x24>
 8013152:	f014 0f1c 	tst.w	r4, #28
 8013156:	d053      	beq.n	8013200 <f_open+0x10c>
 8013158:	2804      	cmp	r0, #4
 801315a:	d001      	beq.n	8013160 <f_open+0x6c>
 801315c:	461e      	mov	r6, r3
 801315e:	e7db      	b.n	8013118 <f_open+0x24>
 8013160:	a805      	add	r0, sp, #20
 8013162:	f7ff ff14 	bl	8012f8e <dir_register>
 8013166:	f048 0808 	orr.w	r8, r8, #8
 801316a:	2800      	cmp	r0, #0
 801316c:	d13c      	bne.n	80131e8 <f_open+0xf4>
 801316e:	9f0a      	ldr	r7, [sp, #40]	; 0x28
 8013170:	f018 0f08 	tst.w	r8, #8
 8013174:	d057      	beq.n	8013226 <f_open+0x132>
 8013176:	f001 fc3e 	bl	80149f6 <get_fattime>
 801317a:	b2c1      	uxtb	r1, r0
 801317c:	73b9      	strb	r1, [r7, #14]
 801317e:	f3c0 2207 	ubfx	r2, r0, #8, #8
 8013182:	73fa      	strb	r2, [r7, #15]
 8013184:	f3c0 4307 	ubfx	r3, r0, #16, #8
 8013188:	743b      	strb	r3, [r7, #16]
 801318a:	0e00      	lsrs	r0, r0, #24
 801318c:	7478      	strb	r0, [r7, #17]
 801318e:	75b9      	strb	r1, [r7, #22]
 8013190:	75fa      	strb	r2, [r7, #23]
 8013192:	763b      	strb	r3, [r7, #24]
 8013194:	7678      	strb	r0, [r7, #25]
 8013196:	2400      	movs	r4, #0
 8013198:	72fc      	strb	r4, [r7, #11]
 801319a:	773c      	strb	r4, [r7, #28]
 801319c:	777c      	strb	r4, [r7, #29]
 801319e:	77bc      	strb	r4, [r7, #30]
 80131a0:	77fc      	strb	r4, [r7, #31]
 80131a2:	f8dd 9014 	ldr.w	r9, [sp, #20]
 80131a6:	4639      	mov	r1, r7
 80131a8:	4648      	mov	r0, r9
 80131aa:	f7fe ffe9 	bl	8012180 <ld_clust>
 80131ae:	76bc      	strb	r4, [r7, #26]
 80131b0:	76fc      	strb	r4, [r7, #27]
 80131b2:	753c      	strb	r4, [r7, #20]
 80131b4:	757c      	strb	r4, [r7, #21]
 80131b6:	2301      	movs	r3, #1
 80131b8:	f889 3004 	strb.w	r3, [r9, #4]
 80131bc:	4604      	mov	r4, r0
 80131be:	b380      	cbz	r0, 8013222 <f_open+0x12e>
 80131c0:	f8d9 a030 	ldr.w	sl, [r9, #48]	; 0x30
 80131c4:	4601      	mov	r1, r0
 80131c6:	4648      	mov	r0, r9
 80131c8:	f7ff ff2c 	bl	8013024 <remove_chain>
 80131cc:	b108      	cbz	r0, 80131d2 <f_open+0xde>
 80131ce:	4606      	mov	r6, r0
 80131d0:	e7a2      	b.n	8013118 <f_open+0x24>
 80131d2:	9805      	ldr	r0, [sp, #20]
 80131d4:	3c01      	subs	r4, #1
 80131d6:	60c4      	str	r4, [r0, #12]
 80131d8:	4651      	mov	r1, sl
 80131da:	f7ff f876 	bl	80122ca <move_window>
 80131de:	b300      	cbz	r0, 8013222 <f_open+0x12e>
 80131e0:	4606      	mov	r6, r0
 80131e2:	e799      	b.n	8013118 <f_open+0x24>
 80131e4:	2609      	movs	r6, #9
 80131e6:	e797      	b.n	8013118 <f_open+0x24>
 80131e8:	4606      	mov	r6, r0
 80131ea:	e795      	b.n	8013118 <f_open+0x24>
 80131ec:	2607      	movs	r6, #7
 80131ee:	e793      	b.n	8013118 <f_open+0x24>
 80131f0:	2604      	movs	r6, #4
 80131f2:	e791      	b.n	8013118 <f_open+0x24>
 80131f4:	2607      	movs	r6, #7
 80131f6:	e78f      	b.n	8013118 <f_open+0x24>
 80131f8:	f014 0f1c 	tst.w	r4, #28
 80131fc:	d102      	bne.n	8013204 <f_open+0x110>
 80131fe:	2306      	movs	r3, #6
 8013200:	461e      	mov	r6, r3
 8013202:	e789      	b.n	8013118 <f_open+0x24>
 8013204:	2306      	movs	r3, #6
 8013206:	e7a9      	b.n	801315c <f_open+0x68>
 8013208:	7afb      	ldrb	r3, [r7, #11]
 801320a:	f013 0f10 	tst.w	r3, #16
 801320e:	d1ef      	bne.n	80131f0 <f_open+0xfc>
 8013210:	f014 0f02 	tst.w	r4, #2
 8013214:	d002      	beq.n	801321c <f_open+0x128>
 8013216:	f013 0f01 	tst.w	r3, #1
 801321a:	d1e7      	bne.n	80131ec <f_open+0xf8>
 801321c:	f014 0f08 	tst.w	r4, #8
 8013220:	d001      	beq.n	8013226 <f_open+0x132>
 8013222:	f048 0820 	orr.w	r8, r8, #32
 8013226:	9c05      	ldr	r4, [sp, #20]
 8013228:	6b23      	ldr	r3, [r4, #48]	; 0x30
 801322a:	61eb      	str	r3, [r5, #28]
 801322c:	622f      	str	r7, [r5, #32]
 801322e:	f885 8006 	strb.w	r8, [r5, #6]
 8013232:	f04f 0800 	mov.w	r8, #0
 8013236:	f885 8007 	strb.w	r8, [r5, #7]
 801323a:	4639      	mov	r1, r7
 801323c:	4620      	mov	r0, r4
 801323e:	f7fe ff9f 	bl	8012180 <ld_clust>
 8013242:	6128      	str	r0, [r5, #16]
 8013244:	7ffa      	ldrb	r2, [r7, #31]
 8013246:	7fbb      	ldrb	r3, [r7, #30]
 8013248:	041b      	lsls	r3, r3, #16
 801324a:	ea43 6302 	orr.w	r3, r3, r2, lsl #24
 801324e:	7f3a      	ldrb	r2, [r7, #28]
 8013250:	4313      	orrs	r3, r2
 8013252:	7f7a      	ldrb	r2, [r7, #29]
 8013254:	ea43 2302 	orr.w	r3, r3, r2, lsl #8
 8013258:	60eb      	str	r3, [r5, #12]
 801325a:	f8c5 8008 	str.w	r8, [r5, #8]
 801325e:	f8c5 8018 	str.w	r8, [r5, #24]
 8013262:	602c      	str	r4, [r5, #0]
 8013264:	88e3      	ldrh	r3, [r4, #6]
 8013266:	80ab      	strh	r3, [r5, #4]
 8013268:	e756      	b.n	8013118 <f_open+0x24>

0801326a <f_read>:
 801326a:	e92d 4ff0 	stmdb	sp!, {r4, r5, r6, r7, r8, r9, sl, fp, lr}
 801326e:	b085      	sub	sp, #20
 8013270:	4604      	mov	r4, r0
 8013272:	4688      	mov	r8, r1
 8013274:	4617      	mov	r7, r2
 8013276:	4699      	mov	r9, r3
 8013278:	2300      	movs	r3, #0
 801327a:	f8c9 3000 	str.w	r3, [r9]
 801327e:	f7ff f883 	bl	8012388 <validate>
 8013282:	9001      	str	r0, [sp, #4]
 8013284:	2800      	cmp	r0, #0
 8013286:	f040 80ab 	bne.w	80133e0 <f_read+0x176>
 801328a:	79e3      	ldrb	r3, [r4, #7]
 801328c:	9301      	str	r3, [sp, #4]
 801328e:	2b00      	cmp	r3, #0
 8013290:	f040 80a6 	bne.w	80133e0 <f_read+0x176>
 8013294:	79a3      	ldrb	r3, [r4, #6]
 8013296:	f013 0301 	ands.w	r3, r3, #1
 801329a:	9303      	str	r3, [sp, #12]
 801329c:	f000 80ae 	beq.w	80133fc <f_read+0x192>
 80132a0:	68e3      	ldr	r3, [r4, #12]
 80132a2:	68a2      	ldr	r2, [r4, #8]
 80132a4:	1a9b      	subs	r3, r3, r2
 80132a6:	429f      	cmp	r7, r3
 80132a8:	bf28      	it	cs
 80132aa:	461f      	movcs	r7, r3
 80132ac:	2f00      	cmp	r7, #0
 80132ae:	f000 8097 	beq.w	80133e0 <f_read+0x176>
 80132b2:	f104 0324 	add.w	r3, r4, #36	; 0x24
 80132b6:	9302      	str	r3, [sp, #8]
 80132b8:	e05a      	b.n	8013370 <f_read+0x106>
 80132ba:	6961      	ldr	r1, [r4, #20]
 80132bc:	f7ff fac4 	bl	8012848 <get_fat>
 80132c0:	e066      	b.n	8013390 <f_read+0x126>
 80132c2:	2302      	movs	r3, #2
 80132c4:	71e3      	strb	r3, [r4, #7]
 80132c6:	9301      	str	r3, [sp, #4]
 80132c8:	e08a      	b.n	80133e0 <f_read+0x176>
 80132ca:	2301      	movs	r3, #1
 80132cc:	71e3      	strb	r3, [r4, #7]
 80132ce:	9b03      	ldr	r3, [sp, #12]
 80132d0:	9301      	str	r3, [sp, #4]
 80132d2:	e085      	b.n	80133e0 <f_read+0x176>
 80132d4:	2302      	movs	r3, #2
 80132d6:	71e3      	strb	r3, [r4, #7]
 80132d8:	9301      	str	r3, [sp, #4]
 80132da:	e081      	b.n	80133e0 <f_read+0x176>
 80132dc:	79a3      	ldrb	r3, [r4, #6]
 80132de:	f013 0f40 	tst.w	r3, #64	; 0x40
 80132e2:	d004      	beq.n	80132ee <f_read+0x84>
 80132e4:	69a0      	ldr	r0, [r4, #24]
 80132e6:	eba0 000a 	sub.w	r0, r0, sl
 80132ea:	42a8      	cmp	r0, r5
 80132ec:	d301      	bcc.n	80132f2 <f_read+0x88>
 80132ee:	026d      	lsls	r5, r5, #9
 80132f0:	e033      	b.n	801335a <f_read+0xf0>
 80132f2:	f44f 7200 	mov.w	r2, #512	; 0x200
 80132f6:	9902      	ldr	r1, [sp, #8]
 80132f8:	eb08 2040 	add.w	r0, r8, r0, lsl #9
 80132fc:	f7fe ff2e 	bl	801215c <mem_cpy>
 8013300:	e7f5      	b.n	80132ee <f_read+0x84>
 8013302:	69a2      	ldr	r2, [r4, #24]
 8013304:	4552      	cmp	r2, sl
 8013306:	d018      	beq.n	801333a <f_read+0xd0>
 8013308:	79a3      	ldrb	r3, [r4, #6]
 801330a:	f013 0f40 	tst.w	r3, #64	; 0x40
 801330e:	d00b      	beq.n	8013328 <f_read+0xbe>
 8013310:	2301      	movs	r3, #1
 8013312:	9902      	ldr	r1, [sp, #8]
 8013314:	f89b 0001 	ldrb.w	r0, [fp, #1]
 8013318:	f001 fcbe 	bl	8014c98 <disk_write>
 801331c:	2800      	cmp	r0, #0
 801331e:	d163      	bne.n	80133e8 <f_read+0x17e>
 8013320:	79a3      	ldrb	r3, [r4, #6]
 8013322:	f023 0340 	bic.w	r3, r3, #64	; 0x40
 8013326:	71a3      	strb	r3, [r4, #6]
 8013328:	6820      	ldr	r0, [r4, #0]
 801332a:	2301      	movs	r3, #1
 801332c:	4652      	mov	r2, sl
 801332e:	9902      	ldr	r1, [sp, #8]
 8013330:	7840      	ldrb	r0, [r0, #1]
 8013332:	f001 fc69 	bl	8014c08 <disk_read>
 8013336:	2800      	cmp	r0, #0
 8013338:	d15b      	bne.n	80133f2 <f_read+0x188>
 801333a:	f8c4 a018 	str.w	sl, [r4, #24]
 801333e:	68a1      	ldr	r1, [r4, #8]
 8013340:	f3c1 0108 	ubfx	r1, r1, #0, #9
 8013344:	f5c1 7500 	rsb	r5, r1, #512	; 0x200
 8013348:	42bd      	cmp	r5, r7
 801334a:	bf28      	it	cs
 801334c:	463d      	movcs	r5, r7
 801334e:	3124      	adds	r1, #36	; 0x24
 8013350:	462a      	mov	r2, r5
 8013352:	4421      	add	r1, r4
 8013354:	4640      	mov	r0, r8
 8013356:	f7fe ff01 	bl	801215c <mem_cpy>
 801335a:	44a8      	add	r8, r5
 801335c:	68a3      	ldr	r3, [r4, #8]
 801335e:	442b      	add	r3, r5
 8013360:	60a3      	str	r3, [r4, #8]
 8013362:	f8d9 3000 	ldr.w	r3, [r9]
 8013366:	442b      	add	r3, r5
 8013368:	f8c9 3000 	str.w	r3, [r9]
 801336c:	1b7f      	subs	r7, r7, r5
 801336e:	d037      	beq.n	80133e0 <f_read+0x176>
 8013370:	68a3      	ldr	r3, [r4, #8]
 8013372:	f3c3 0208 	ubfx	r2, r3, #0, #9
 8013376:	2a00      	cmp	r2, #0
 8013378:	d1e1      	bne.n	801333e <f_read+0xd4>
 801337a:	6820      	ldr	r0, [r4, #0]
 801337c:	7886      	ldrb	r6, [r0, #2]
 801337e:	3e01      	subs	r6, #1
 8013380:	ea06 2653 	and.w	r6, r6, r3, lsr #9
 8013384:	f016 06ff 	ands.w	r6, r6, #255	; 0xff
 8013388:	d108      	bne.n	801339c <f_read+0x132>
 801338a:	2b00      	cmp	r3, #0
 801338c:	d195      	bne.n	80132ba <f_read+0x50>
 801338e:	6920      	ldr	r0, [r4, #16]
 8013390:	2801      	cmp	r0, #1
 8013392:	d996      	bls.n	80132c2 <f_read+0x58>
 8013394:	f1b0 3fff 	cmp.w	r0, #4294967295	; 0xffffffff
 8013398:	d097      	beq.n	80132ca <f_read+0x60>
 801339a:	6160      	str	r0, [r4, #20]
 801339c:	f8d4 b000 	ldr.w	fp, [r4]
 80133a0:	6961      	ldr	r1, [r4, #20]
 80133a2:	4658      	mov	r0, fp
 80133a4:	f7ff fa45 	bl	8012832 <clust2sect>
 80133a8:	4682      	mov	sl, r0
 80133aa:	2800      	cmp	r0, #0
 80133ac:	d092      	beq.n	80132d4 <f_read+0x6a>
 80133ae:	44b2      	add	sl, r6
 80133b0:	f5b7 7f00 	cmp.w	r7, #512	; 0x200
 80133b4:	d3a5      	bcc.n	8013302 <f_read+0x98>
 80133b6:	0a7d      	lsrs	r5, r7, #9
 80133b8:	f89b 3002 	ldrb.w	r3, [fp, #2]
 80133bc:	eb06 2257 	add.w	r2, r6, r7, lsr #9
 80133c0:	429a      	cmp	r2, r3
 80133c2:	bf88      	it	hi
 80133c4:	1b9d      	subhi	r5, r3, r6
 80133c6:	462b      	mov	r3, r5
 80133c8:	4652      	mov	r2, sl
 80133ca:	4641      	mov	r1, r8
 80133cc:	f89b 0001 	ldrb.w	r0, [fp, #1]
 80133d0:	f001 fc1a 	bl	8014c08 <disk_read>
 80133d4:	2800      	cmp	r0, #0
 80133d6:	d081      	beq.n	80132dc <f_read+0x72>
 80133d8:	2301      	movs	r3, #1
 80133da:	71e3      	strb	r3, [r4, #7]
 80133dc:	9b03      	ldr	r3, [sp, #12]
 80133de:	9301      	str	r3, [sp, #4]
 80133e0:	9801      	ldr	r0, [sp, #4]
 80133e2:	b005      	add	sp, #20
 80133e4:	e8bd 8ff0 	ldmia.w	sp!, {r4, r5, r6, r7, r8, r9, sl, fp, pc}
 80133e8:	2301      	movs	r3, #1
 80133ea:	71e3      	strb	r3, [r4, #7]
 80133ec:	9b03      	ldr	r3, [sp, #12]
 80133ee:	9301      	str	r3, [sp, #4]
 80133f0:	e7f6      	b.n	80133e0 <f_read+0x176>
 80133f2:	2301      	movs	r3, #1
 80133f4:	71e3      	strb	r3, [r4, #7]
 80133f6:	9b03      	ldr	r3, [sp, #12]
 80133f8:	9301      	str	r3, [sp, #4]
 80133fa:	e7f1      	b.n	80133e0 <f_read+0x176>
 80133fc:	2307      	movs	r3, #7
 80133fe:	9301      	str	r3, [sp, #4]
 8013400:	e7ee      	b.n	80133e0 <f_read+0x176>

08013402 <f_write>:
 8013402:	e92d 4ff0 	stmdb	sp!, {r4, r5, r6, r7, r8, r9, sl, fp, lr}
 8013406:	b083      	sub	sp, #12
 8013408:	4604      	mov	r4, r0
 801340a:	4688      	mov	r8, r1
 801340c:	4616      	mov	r6, r2
 801340e:	4699      	mov	r9, r3
 8013410:	2300      	movs	r3, #0
 8013412:	f8c9 3000 	str.w	r3, [r9]
 8013416:	f7fe ffb7 	bl	8012388 <validate>
 801341a:	9000      	str	r0, [sp, #0]
 801341c:	2800      	cmp	r0, #0
 801341e:	d146      	bne.n	80134ae <f_write+0xac>
 8013420:	79e3      	ldrb	r3, [r4, #7]
 8013422:	9300      	str	r3, [sp, #0]
 8013424:	2b00      	cmp	r3, #0
 8013426:	d142      	bne.n	80134ae <f_write+0xac>
 8013428:	79a3      	ldrb	r3, [r4, #6]
 801342a:	f013 0f02 	tst.w	r3, #2
 801342e:	f000 80c9 	beq.w	80135c4 <f_write+0x1c2>
 8013432:	68a3      	ldr	r3, [r4, #8]
 8013434:	42f3      	cmn	r3, r6
 8013436:	f080 80bb 	bcs.w	80135b0 <f_write+0x1ae>
 801343a:	2e00      	cmp	r6, #0
 801343c:	f000 80b8 	beq.w	80135b0 <f_write+0x1ae>
 8013440:	f104 0324 	add.w	r3, r4, #36	; 0x24
 8013444:	9301      	str	r3, [sp, #4]
 8013446:	e08c      	b.n	8013562 <f_write+0x160>
 8013448:	6961      	ldr	r1, [r4, #20]
 801344a:	f7ff fb75 	bl	8012b38 <create_chain>
 801344e:	4603      	mov	r3, r0
 8013450:	2b00      	cmp	r3, #0
 8013452:	f000 80ad 	beq.w	80135b0 <f_write+0x1ae>
 8013456:	2b01      	cmp	r3, #1
 8013458:	d02d      	beq.n	80134b6 <f_write+0xb4>
 801345a:	f1b3 3fff 	cmp.w	r3, #4294967295	; 0xffffffff
 801345e:	d02e      	beq.n	80134be <f_write+0xbc>
 8013460:	6163      	str	r3, [r4, #20]
 8013462:	6922      	ldr	r2, [r4, #16]
 8013464:	b902      	cbnz	r2, 8013468 <f_write+0x66>
 8013466:	6123      	str	r3, [r4, #16]
 8013468:	79a3      	ldrb	r3, [r4, #6]
 801346a:	f013 0f40 	tst.w	r3, #64	; 0x40
 801346e:	d12a      	bne.n	80134c6 <f_write+0xc4>
 8013470:	f8d4 b000 	ldr.w	fp, [r4]
 8013474:	6961      	ldr	r1, [r4, #20]
 8013476:	4658      	mov	r0, fp
 8013478:	f7ff f9db 	bl	8012832 <clust2sect>
 801347c:	4682      	mov	sl, r0
 801347e:	b398      	cbz	r0, 80134e8 <f_write+0xe6>
 8013480:	44ba      	add	sl, r7
 8013482:	f5b6 7f00 	cmp.w	r6, #512	; 0x200
 8013486:	d346      	bcc.n	8013516 <f_write+0x114>
 8013488:	0a75      	lsrs	r5, r6, #9
 801348a:	f89b 3002 	ldrb.w	r3, [fp, #2]
 801348e:	eb07 2256 	add.w	r2, r7, r6, lsr #9
 8013492:	429a      	cmp	r2, r3
 8013494:	bf88      	it	hi
 8013496:	1bdd      	subhi	r5, r3, r7
 8013498:	462b      	mov	r3, r5
 801349a:	4652      	mov	r2, sl
 801349c:	4641      	mov	r1, r8
 801349e:	f89b 0001 	ldrb.w	r0, [fp, #1]
 80134a2:	f001 fbf9 	bl	8014c98 <disk_write>
 80134a6:	b318      	cbz	r0, 80134f0 <f_write+0xee>
 80134a8:	2301      	movs	r3, #1
 80134aa:	71e3      	strb	r3, [r4, #7]
 80134ac:	9300      	str	r3, [sp, #0]
 80134ae:	9800      	ldr	r0, [sp, #0]
 80134b0:	b003      	add	sp, #12
 80134b2:	e8bd 8ff0 	ldmia.w	sp!, {r4, r5, r6, r7, r8, r9, sl, fp, pc}
 80134b6:	2302      	movs	r3, #2
 80134b8:	71e3      	strb	r3, [r4, #7]
 80134ba:	9300      	str	r3, [sp, #0]
 80134bc:	e7f7      	b.n	80134ae <f_write+0xac>
 80134be:	2301      	movs	r3, #1
 80134c0:	71e3      	strb	r3, [r4, #7]
 80134c2:	9300      	str	r3, [sp, #0]
 80134c4:	e7f3      	b.n	80134ae <f_write+0xac>
 80134c6:	6820      	ldr	r0, [r4, #0]
 80134c8:	2301      	movs	r3, #1
 80134ca:	69a2      	ldr	r2, [r4, #24]
 80134cc:	9901      	ldr	r1, [sp, #4]
 80134ce:	7840      	ldrb	r0, [r0, #1]
 80134d0:	f001 fbe2 	bl	8014c98 <disk_write>
 80134d4:	b920      	cbnz	r0, 80134e0 <f_write+0xde>
 80134d6:	79a3      	ldrb	r3, [r4, #6]
 80134d8:	f023 0340 	bic.w	r3, r3, #64	; 0x40
 80134dc:	71a3      	strb	r3, [r4, #6]
 80134de:	e7c7      	b.n	8013470 <f_write+0x6e>
 80134e0:	2301      	movs	r3, #1
 80134e2:	71e3      	strb	r3, [r4, #7]
 80134e4:	9300      	str	r3, [sp, #0]
 80134e6:	e7e2      	b.n	80134ae <f_write+0xac>
 80134e8:	2302      	movs	r3, #2
 80134ea:	71e3      	strb	r3, [r4, #7]
 80134ec:	9300      	str	r3, [sp, #0]
 80134ee:	e7de      	b.n	80134ae <f_write+0xac>
 80134f0:	69a1      	ldr	r1, [r4, #24]
 80134f2:	eba1 010a 	sub.w	r1, r1, sl
 80134f6:	42a9      	cmp	r1, r5
 80134f8:	d301      	bcc.n	80134fe <f_write+0xfc>
 80134fa:	026d      	lsls	r5, r5, #9
 80134fc:	e026      	b.n	801354c <f_write+0x14a>
 80134fe:	f44f 7200 	mov.w	r2, #512	; 0x200
 8013502:	eb08 2141 	add.w	r1, r8, r1, lsl #9
 8013506:	9801      	ldr	r0, [sp, #4]
 8013508:	f7fe fe28 	bl	801215c <mem_cpy>
 801350c:	79a3      	ldrb	r3, [r4, #6]
 801350e:	f023 0340 	bic.w	r3, r3, #64	; 0x40
 8013512:	71a3      	strb	r3, [r4, #6]
 8013514:	e7f1      	b.n	80134fa <f_write+0xf8>
 8013516:	69a3      	ldr	r3, [r4, #24]
 8013518:	4553      	cmp	r3, sl
 801351a:	d003      	beq.n	8013524 <f_write+0x122>
 801351c:	68a2      	ldr	r2, [r4, #8]
 801351e:	68e3      	ldr	r3, [r4, #12]
 8013520:	429a      	cmp	r2, r3
 8013522:	d338      	bcc.n	8013596 <f_write+0x194>
 8013524:	f8c4 a018 	str.w	sl, [r4, #24]
 8013528:	68a0      	ldr	r0, [r4, #8]
 801352a:	f3c0 0008 	ubfx	r0, r0, #0, #9
 801352e:	f5c0 7500 	rsb	r5, r0, #512	; 0x200
 8013532:	42b5      	cmp	r5, r6
 8013534:	bf28      	it	cs
 8013536:	4635      	movcs	r5, r6
 8013538:	3024      	adds	r0, #36	; 0x24
 801353a:	462a      	mov	r2, r5
 801353c:	4641      	mov	r1, r8
 801353e:	4420      	add	r0, r4
 8013540:	f7fe fe0c 	bl	801215c <mem_cpy>
 8013544:	79a3      	ldrb	r3, [r4, #6]
 8013546:	f043 0340 	orr.w	r3, r3, #64	; 0x40
 801354a:	71a3      	strb	r3, [r4, #6]
 801354c:	44a8      	add	r8, r5
 801354e:	68a3      	ldr	r3, [r4, #8]
 8013550:	442b      	add	r3, r5
 8013552:	60a3      	str	r3, [r4, #8]
 8013554:	f8d9 3000 	ldr.w	r3, [r9]
 8013558:	442b      	add	r3, r5
 801355a:	f8c9 3000 	str.w	r3, [r9]
 801355e:	1b76      	subs	r6, r6, r5
 8013560:	d026      	beq.n	80135b0 <f_write+0x1ae>
 8013562:	68a3      	ldr	r3, [r4, #8]
 8013564:	f3c3 0208 	ubfx	r2, r3, #0, #9
 8013568:	2a00      	cmp	r2, #0
 801356a:	d1dd      	bne.n	8013528 <f_write+0x126>
 801356c:	6820      	ldr	r0, [r4, #0]
 801356e:	7887      	ldrb	r7, [r0, #2]
 8013570:	3f01      	subs	r7, #1
 8013572:	ea07 2753 	and.w	r7, r7, r3, lsr #9
 8013576:	f017 07ff 	ands.w	r7, r7, #255	; 0xff
 801357a:	f47f af75 	bne.w	8013468 <f_write+0x66>
 801357e:	2b00      	cmp	r3, #0
 8013580:	f47f af62 	bne.w	8013448 <f_write+0x46>
 8013584:	6923      	ldr	r3, [r4, #16]
 8013586:	2b00      	cmp	r3, #0
 8013588:	f47f af65 	bne.w	8013456 <f_write+0x54>
 801358c:	2100      	movs	r1, #0
 801358e:	f7ff fad3 	bl	8012b38 <create_chain>
 8013592:	4603      	mov	r3, r0
 8013594:	e75c      	b.n	8013450 <f_write+0x4e>
 8013596:	2301      	movs	r3, #1
 8013598:	4652      	mov	r2, sl
 801359a:	9901      	ldr	r1, [sp, #4]
 801359c:	f89b 0001 	ldrb.w	r0, [fp, #1]
 80135a0:	f001 fb32 	bl	8014c08 <disk_read>
 80135a4:	2800      	cmp	r0, #0
 80135a6:	d0bd      	beq.n	8013524 <f_write+0x122>
 80135a8:	2301      	movs	r3, #1
 80135aa:	71e3      	strb	r3, [r4, #7]
 80135ac:	9300      	str	r3, [sp, #0]
 80135ae:	e77e      	b.n	80134ae <f_write+0xac>
 80135b0:	68a3      	ldr	r3, [r4, #8]
 80135b2:	68e2      	ldr	r2, [r4, #12]
 80135b4:	4293      	cmp	r3, r2
 80135b6:	bf88      	it	hi
 80135b8:	60e3      	strhi	r3, [r4, #12]
 80135ba:	79a3      	ldrb	r3, [r4, #6]
 80135bc:	f043 0320 	orr.w	r3, r3, #32
 80135c0:	71a3      	strb	r3, [r4, #6]
 80135c2:	e774      	b.n	80134ae <f_write+0xac>
 80135c4:	2307      	movs	r3, #7
 80135c6:	9300      	str	r3, [sp, #0]
 80135c8:	e771      	b.n	80134ae <f_write+0xac>

080135ca <putc_bfd>:
 80135ca:	b570      	push	{r4, r5, r6, lr}
 80135cc:	b082      	sub	sp, #8
 80135ce:	4604      	mov	r4, r0
 80135d0:	460d      	mov	r5, r1
 80135d2:	290a      	cmp	r1, #10
 80135d4:	d00d      	beq.n	80135f2 <putc_bfd+0x28>
 80135d6:	6863      	ldr	r3, [r4, #4]
 80135d8:	2b00      	cmp	r3, #0
 80135da:	db08      	blt.n	80135ee <putc_bfd+0x24>
 80135dc:	1c5e      	adds	r6, r3, #1
 80135de:	4423      	add	r3, r4
 80135e0:	731d      	strb	r5, [r3, #12]
 80135e2:	2e3c      	cmp	r6, #60	; 0x3c
 80135e4:	dc09      	bgt.n	80135fa <putc_bfd+0x30>
 80135e6:	6066      	str	r6, [r4, #4]
 80135e8:	68a3      	ldr	r3, [r4, #8]
 80135ea:	3301      	adds	r3, #1
 80135ec:	60a3      	str	r3, [r4, #8]
 80135ee:	b002      	add	sp, #8
 80135f0:	bd70      	pop	{r4, r5, r6, pc}
 80135f2:	210d      	movs	r1, #13
 80135f4:	f7ff ffe9 	bl	80135ca <putc_bfd>
 80135f8:	e7ed      	b.n	80135d6 <putc_bfd+0xc>
 80135fa:	4621      	mov	r1, r4
 80135fc:	f851 0b0c 	ldr.w	r0, [r1], #12
 8013600:	ab01      	add	r3, sp, #4
 8013602:	4632      	mov	r2, r6
 8013604:	f7ff fefd 	bl	8013402 <f_write>
 8013608:	9b01      	ldr	r3, [sp, #4]
 801360a:	1b9e      	subs	r6, r3, r6
 801360c:	bf18      	it	ne
 801360e:	f04f 36ff 	movne.w	r6, #4294967295	; 0xffffffff
 8013612:	e7e8      	b.n	80135e6 <putc_bfd+0x1c>

08013614 <f_sync>:
 8013614:	b538      	push	{r3, r4, r5, lr}
 8013616:	4604      	mov	r4, r0
 8013618:	f7fe feb6 	bl	8012388 <validate>
 801361c:	b9c8      	cbnz	r0, 8013652 <f_sync+0x3e>
 801361e:	79a3      	ldrb	r3, [r4, #6]
 8013620:	f013 0020 	ands.w	r0, r3, #32
 8013624:	d015      	beq.n	8013652 <f_sync+0x3e>
 8013626:	f013 0f40 	tst.w	r3, #64	; 0x40
 801362a:	d00d      	beq.n	8013648 <f_sync+0x34>
 801362c:	4621      	mov	r1, r4
 801362e:	f851 0b24 	ldr.w	r0, [r1], #36
 8013632:	2301      	movs	r3, #1
 8013634:	69a2      	ldr	r2, [r4, #24]
 8013636:	7840      	ldrb	r0, [r0, #1]
 8013638:	f001 fb2e 	bl	8014c98 <disk_write>
 801363c:	2800      	cmp	r0, #0
 801363e:	d138      	bne.n	80136b2 <f_sync+0x9e>
 8013640:	79a3      	ldrb	r3, [r4, #6]
 8013642:	f023 0340 	bic.w	r3, r3, #64	; 0x40
 8013646:	71a3      	strb	r3, [r4, #6]
 8013648:	69e1      	ldr	r1, [r4, #28]
 801364a:	6820      	ldr	r0, [r4, #0]
 801364c:	f7fe fe3d 	bl	80122ca <move_window>
 8013650:	b100      	cbz	r0, 8013654 <f_sync+0x40>
 8013652:	bd38      	pop	{r3, r4, r5, pc}
 8013654:	6a25      	ldr	r5, [r4, #32]
 8013656:	7aeb      	ldrb	r3, [r5, #11]
 8013658:	f043 0320 	orr.w	r3, r3, #32
 801365c:	72eb      	strb	r3, [r5, #11]
 801365e:	68e3      	ldr	r3, [r4, #12]
 8013660:	772b      	strb	r3, [r5, #28]
 8013662:	89a3      	ldrh	r3, [r4, #12]
 8013664:	0a1b      	lsrs	r3, r3, #8
 8013666:	776b      	strb	r3, [r5, #29]
 8013668:	89e3      	ldrh	r3, [r4, #14]
 801366a:	77ab      	strb	r3, [r5, #30]
 801366c:	7be3      	ldrb	r3, [r4, #15]
 801366e:	77eb      	strb	r3, [r5, #31]
 8013670:	6923      	ldr	r3, [r4, #16]
 8013672:	76ab      	strb	r3, [r5, #26]
 8013674:	f3c3 2207 	ubfx	r2, r3, #8, #8
 8013678:	76ea      	strb	r2, [r5, #27]
 801367a:	0c1b      	lsrs	r3, r3, #16
 801367c:	752b      	strb	r3, [r5, #20]
 801367e:	0a1b      	lsrs	r3, r3, #8
 8013680:	756b      	strb	r3, [r5, #21]
 8013682:	f001 f9b8 	bl	80149f6 <get_fattime>
 8013686:	75a8      	strb	r0, [r5, #22]
 8013688:	f3c0 2307 	ubfx	r3, r0, #8, #8
 801368c:	75eb      	strb	r3, [r5, #23]
 801368e:	0c03      	lsrs	r3, r0, #16
 8013690:	762b      	strb	r3, [r5, #24]
 8013692:	0e00      	lsrs	r0, r0, #24
 8013694:	7668      	strb	r0, [r5, #25]
 8013696:	2300      	movs	r3, #0
 8013698:	74ab      	strb	r3, [r5, #18]
 801369a:	74eb      	strb	r3, [r5, #19]
 801369c:	79a3      	ldrb	r3, [r4, #6]
 801369e:	f023 0320 	bic.w	r3, r3, #32
 80136a2:	71a3      	strb	r3, [r4, #6]
 80136a4:	6823      	ldr	r3, [r4, #0]
 80136a6:	2201      	movs	r2, #1
 80136a8:	711a      	strb	r2, [r3, #4]
 80136aa:	6820      	ldr	r0, [r4, #0]
 80136ac:	f7ff f866 	bl	801277c <sync_fs>
 80136b0:	e7cf      	b.n	8013652 <f_sync+0x3e>
 80136b2:	2001      	movs	r0, #1
 80136b4:	e7cd      	b.n	8013652 <f_sync+0x3e>

080136b6 <f_close>:
 80136b6:	b510      	push	{r4, lr}
 80136b8:	4604      	mov	r4, r0
 80136ba:	f7ff ffab 	bl	8013614 <f_sync>
 80136be:	b100      	cbz	r0, 80136c2 <f_close+0xc>
 80136c0:	bd10      	pop	{r4, pc}
 80136c2:	4620      	mov	r0, r4
 80136c4:	f7fe fe60 	bl	8012388 <validate>
 80136c8:	2800      	cmp	r0, #0
 80136ca:	d1f9      	bne.n	80136c0 <f_close+0xa>
 80136cc:	6020      	str	r0, [r4, #0]
 80136ce:	e7f7      	b.n	80136c0 <f_close+0xa>

080136d0 <f_chdir>:
 80136d0:	b530      	push	{r4, r5, lr}
 80136d2:	b08d      	sub	sp, #52	; 0x34
 80136d4:	9001      	str	r0, [sp, #4]
 80136d6:	2200      	movs	r2, #0
 80136d8:	a901      	add	r1, sp, #4
 80136da:	a805      	add	r0, sp, #20
 80136dc:	f7fe fe6e 	bl	80123bc <find_volume>
 80136e0:	4604      	mov	r4, r0
 80136e2:	b110      	cbz	r0, 80136ea <f_chdir+0x1a>
 80136e4:	4620      	mov	r0, r4
 80136e6:	b00d      	add	sp, #52	; 0x34
 80136e8:	bd30      	pop	{r4, r5, pc}
 80136ea:	ab02      	add	r3, sp, #8
 80136ec:	930b      	str	r3, [sp, #44]	; 0x2c
 80136ee:	9901      	ldr	r1, [sp, #4]
 80136f0:	a805      	add	r0, sp, #20
 80136f2:	f7ff fb04 	bl	8012cfe <follow_path>
 80136f6:	4604      	mov	r4, r0
 80136f8:	b978      	cbnz	r0, 801371a <f_chdir+0x4a>
 80136fa:	990a      	ldr	r1, [sp, #40]	; 0x28
 80136fc:	b149      	cbz	r1, 8013712 <f_chdir+0x42>
 80136fe:	7acb      	ldrb	r3, [r1, #11]
 8013700:	f013 0f10 	tst.w	r3, #16
 8013704:	d00e      	beq.n	8013724 <f_chdir+0x54>
 8013706:	9d05      	ldr	r5, [sp, #20]
 8013708:	4628      	mov	r0, r5
 801370a:	f7fe fd39 	bl	8012180 <ld_clust>
 801370e:	6168      	str	r0, [r5, #20]
 8013710:	e7e8      	b.n	80136e4 <f_chdir+0x14>
 8013712:	9b05      	ldr	r3, [sp, #20]
 8013714:	9a07      	ldr	r2, [sp, #28]
 8013716:	615a      	str	r2, [r3, #20]
 8013718:	e7e4      	b.n	80136e4 <f_chdir+0x14>
 801371a:	2804      	cmp	r0, #4
 801371c:	bf14      	ite	ne
 801371e:	4604      	movne	r4, r0
 8013720:	2405      	moveq	r4, #5
 8013722:	e7df      	b.n	80136e4 <f_chdir+0x14>
 8013724:	2405      	movs	r4, #5
 8013726:	e7dd      	b.n	80136e4 <f_chdir+0x14>

08013728 <f_getcwd>:
 8013728:	e92d 47f0 	stmdb	sp!, {r4, r5, r6, r7, r8, r9, sl, lr}
 801372c:	b092      	sub	sp, #72	; 0x48
 801372e:	9001      	str	r0, [sp, #4]
 8013730:	460f      	mov	r7, r1
 8013732:	2200      	movs	r2, #0
 8013734:	7002      	strb	r2, [r0, #0]
 8013736:	a901      	add	r1, sp, #4
 8013738:	a80b      	add	r0, sp, #44	; 0x2c
 801373a:	f7fe fe3f 	bl	80123bc <find_volume>
 801373e:	4680      	mov	r8, r0
 8013740:	2800      	cmp	r0, #0
 8013742:	d168      	bne.n	8013816 <f_getcwd+0xee>
 8013744:	ab02      	add	r3, sp, #8
 8013746:	9311      	str	r3, [sp, #68]	; 0x44
 8013748:	9b0b      	ldr	r3, [sp, #44]	; 0x2c
 801374a:	f8d3 a014 	ldr.w	sl, [r3, #20]
 801374e:	f8cd a034 	str.w	sl, [sp, #52]	; 0x34
 8013752:	f1ba 0f00 	cmp.w	sl, #0
 8013756:	f000 8086 	beq.w	8013866 <f_getcwd+0x13e>
 801375a:	463c      	mov	r4, r7
 801375c:	f04f 0901 	mov.w	r9, #1
 8013760:	2500      	movs	r5, #0
 8013762:	e029      	b.n	80137b8 <f_getcwd+0x90>
 8013764:	a905      	add	r1, sp, #20
 8013766:	a80b      	add	r0, sp, #44	; 0x2c
 8013768:	f7fe fd1a 	bl	80121a0 <get_fileinfo>
 801376c:	f89d 301d 	ldrb.w	r3, [sp, #29]
 8013770:	2b00      	cmp	r3, #0
 8013772:	d07f      	beq.n	8013874 <f_getcwd+0x14c>
 8013774:	f10d 011d 	add.w	r1, sp, #29
 8013778:	2200      	movs	r2, #0
 801377a:	4613      	mov	r3, r2
 801377c:	3201      	adds	r2, #1
 801377e:	f811 0f01 	ldrb.w	r0, [r1, #1]!
 8013782:	2800      	cmp	r0, #0
 8013784:	d1f9      	bne.n	801377a <f_getcwd+0x52>
 8013786:	1d19      	adds	r1, r3, #4
 8013788:	42a1      	cmp	r1, r4
 801378a:	d850      	bhi.n	801382e <f_getcwd+0x106>
 801378c:	2a00      	cmp	r2, #0
 801378e:	d046      	beq.n	801381e <f_getcwd+0xf6>
 8013790:	a912      	add	r1, sp, #72	; 0x48
 8013792:	440b      	add	r3, r1
 8013794:	3b2b      	subs	r3, #43	; 0x2b
 8013796:	1aa2      	subs	r2, r4, r2
 8013798:	3c01      	subs	r4, #1
 801379a:	f813 0901 	ldrb.w	r0, [r3], #-1
 801379e:	9901      	ldr	r1, [sp, #4]
 80137a0:	5508      	strb	r0, [r1, r4]
 80137a2:	4294      	cmp	r4, r2
 80137a4:	d1f8      	bne.n	8013798 <f_getcwd+0x70>
 80137a6:	1e54      	subs	r4, r2, #1
 80137a8:	9b01      	ldr	r3, [sp, #4]
 80137aa:	212f      	movs	r1, #47	; 0x2f
 80137ac:	5519      	strb	r1, [r3, r4]
 80137ae:	f8dd a034 	ldr.w	sl, [sp, #52]	; 0x34
 80137b2:	f1ba 0f00 	cmp.w	sl, #0
 80137b6:	d040      	beq.n	801383a <f_getcwd+0x112>
 80137b8:	4649      	mov	r1, r9
 80137ba:	a80b      	add	r0, sp, #44	; 0x2c
 80137bc:	f7ff f8b5 	bl	801292a <dir_sdi>
 80137c0:	bb78      	cbnz	r0, 8013822 <f_getcwd+0xfa>
 80137c2:	4629      	mov	r1, r5
 80137c4:	a80b      	add	r0, sp, #44	; 0x2c
 80137c6:	f7ff fc00 	bl	8012fca <dir_read>
 80137ca:	bb60      	cbnz	r0, 8013826 <f_getcwd+0xfe>
 80137cc:	9910      	ldr	r1, [sp, #64]	; 0x40
 80137ce:	980b      	ldr	r0, [sp, #44]	; 0x2c
 80137d0:	f7fe fcd6 	bl	8012180 <ld_clust>
 80137d4:	900d      	str	r0, [sp, #52]	; 0x34
 80137d6:	4629      	mov	r1, r5
 80137d8:	a80b      	add	r0, sp, #44	; 0x2c
 80137da:	f7ff f8a6 	bl	801292a <dir_sdi>
 80137de:	bb20      	cbnz	r0, 801382a <f_getcwd+0x102>
 80137e0:	4629      	mov	r1, r5
 80137e2:	a80b      	add	r0, sp, #44	; 0x2c
 80137e4:	f7ff fbf1 	bl	8012fca <dir_read>
 80137e8:	4606      	mov	r6, r0
 80137ea:	b960      	cbnz	r0, 8013806 <f_getcwd+0xde>
 80137ec:	9910      	ldr	r1, [sp, #64]	; 0x40
 80137ee:	980b      	ldr	r0, [sp, #44]	; 0x2c
 80137f0:	f7fe fcc6 	bl	8012180 <ld_clust>
 80137f4:	4550      	cmp	r0, sl
 80137f6:	d0b5      	beq.n	8013764 <f_getcwd+0x3c>
 80137f8:	4629      	mov	r1, r5
 80137fa:	a80b      	add	r0, sp, #44	; 0x2c
 80137fc:	f7ff f9f9 	bl	8012bf2 <dir_next>
 8013800:	4606      	mov	r6, r0
 8013802:	2800      	cmp	r0, #0
 8013804:	d0ec      	beq.n	80137e0 <f_getcwd+0xb8>
 8013806:	2e04      	cmp	r6, #4
 8013808:	bf14      	ite	ne
 801380a:	46b0      	movne	r8, r6
 801380c:	f04f 0802 	moveq.w	r8, #2
 8013810:	9d01      	ldr	r5, [sp, #4]
 8013812:	2200      	movs	r2, #0
 8013814:	702a      	strb	r2, [r5, #0]
 8013816:	4640      	mov	r0, r8
 8013818:	b012      	add	sp, #72	; 0x48
 801381a:	e8bd 87f0 	ldmia.w	sp!, {r4, r5, r6, r7, r8, r9, sl, pc}
 801381e:	4622      	mov	r2, r4
 8013820:	e7c1      	b.n	80137a6 <f_getcwd+0x7e>
 8013822:	4680      	mov	r8, r0
 8013824:	e7f4      	b.n	8013810 <f_getcwd+0xe8>
 8013826:	4680      	mov	r8, r0
 8013828:	e7f2      	b.n	8013810 <f_getcwd+0xe8>
 801382a:	4680      	mov	r8, r0
 801382c:	e7f0      	b.n	8013810 <f_getcwd+0xe8>
 801382e:	f04f 0811 	mov.w	r8, #17
 8013832:	e7ed      	b.n	8013810 <f_getcwd+0xe8>
 8013834:	f04f 0811 	mov.w	r8, #17
 8013838:	e7ea      	b.n	8013810 <f_getcwd+0xe8>
 801383a:	f8dd c004 	ldr.w	ip, [sp, #4]
 801383e:	42a7      	cmp	r7, r4
 8013840:	d013      	beq.n	801386a <f_getcwd+0x142>
 8013842:	4661      	mov	r1, ip
 8013844:	4623      	mov	r3, r4
 8013846:	4618      	mov	r0, r3
 8013848:	3301      	adds	r3, #1
 801384a:	9d01      	ldr	r5, [sp, #4]
 801384c:	5c28      	ldrb	r0, [r5, r0]
 801384e:	f801 0b01 	strb.w	r0, [r1], #1
 8013852:	429f      	cmp	r7, r3
 8013854:	d8f7      	bhi.n	8013846 <f_getcwd+0x11e>
 8013856:	1b3b      	subs	r3, r7, r4
 8013858:	4297      	cmp	r7, r2
 801385a:	bf38      	it	cc
 801385c:	2301      	movcc	r3, #1
 801385e:	eb0c 0503 	add.w	r5, ip, r3
 8013862:	46b0      	mov	r8, r6
 8013864:	e7d5      	b.n	8013812 <f_getcwd+0xea>
 8013866:	f8dd c004 	ldr.w	ip, [sp, #4]
 801386a:	4665      	mov	r5, ip
 801386c:	222f      	movs	r2, #47	; 0x2f
 801386e:	f805 2b01 	strb.w	r2, [r5], #1
 8013872:	e7ce      	b.n	8013812 <f_getcwd+0xea>
 8013874:	2c02      	cmp	r4, #2
 8013876:	d9dd      	bls.n	8013834 <f_getcwd+0x10c>
 8013878:	4622      	mov	r2, r4
 801387a:	e794      	b.n	80137a6 <f_getcwd+0x7e>

0801387c <f_lseek>:
 801387c:	e92d 41f0 	stmdb	sp!, {r4, r5, r6, r7, r8, lr}
 8013880:	4604      	mov	r4, r0
 8013882:	460e      	mov	r6, r1
 8013884:	f7fe fd80 	bl	8012388 <validate>
 8013888:	4680      	mov	r8, r0
 801388a:	2800      	cmp	r0, #0
 801388c:	f040 80ac 	bne.w	80139e8 <f_lseek+0x16c>
 8013890:	f894 8007 	ldrb.w	r8, [r4, #7]
 8013894:	f1b8 0f00 	cmp.w	r8, #0
 8013898:	f040 80a6 	bne.w	80139e8 <f_lseek+0x16c>
 801389c:	68e3      	ldr	r3, [r4, #12]
 801389e:	42b3      	cmp	r3, r6
 80138a0:	d204      	bcs.n	80138ac <f_lseek+0x30>
 80138a2:	79a2      	ldrb	r2, [r4, #6]
 80138a4:	f012 0f02 	tst.w	r2, #2
 80138a8:	bf08      	it	eq
 80138aa:	461e      	moveq	r6, r3
 80138ac:	68a3      	ldr	r3, [r4, #8]
 80138ae:	2200      	movs	r2, #0
 80138b0:	60a2      	str	r2, [r4, #8]
 80138b2:	2e00      	cmp	r6, #0
 80138b4:	f000 8098 	beq.w	80139e8 <f_lseek+0x16c>
 80138b8:	6820      	ldr	r0, [r4, #0]
 80138ba:	7887      	ldrb	r7, [r0, #2]
 80138bc:	027f      	lsls	r7, r7, #9
 80138be:	b16b      	cbz	r3, 80138dc <f_lseek+0x60>
 80138c0:	3b01      	subs	r3, #1
 80138c2:	1e72      	subs	r2, r6, #1
 80138c4:	fbb2 f2f7 	udiv	r2, r2, r7
 80138c8:	fbb3 f1f7 	udiv	r1, r3, r7
 80138cc:	428a      	cmp	r2, r1
 80138ce:	d305      	bcc.n	80138dc <f_lseek+0x60>
 80138d0:	427a      	negs	r2, r7
 80138d2:	4013      	ands	r3, r2
 80138d4:	60a3      	str	r3, [r4, #8]
 80138d6:	1af6      	subs	r6, r6, r3
 80138d8:	6965      	ldr	r5, [r4, #20]
 80138da:	e002      	b.n	80138e2 <f_lseek+0x66>
 80138dc:	6925      	ldr	r5, [r4, #16]
 80138de:	b12d      	cbz	r5, 80138ec <f_lseek+0x70>
 80138e0:	6165      	str	r5, [r4, #20]
 80138e2:	2d00      	cmp	r5, #0
 80138e4:	d056      	beq.n	8013994 <f_lseek+0x118>
 80138e6:	42be      	cmp	r6, r7
 80138e8:	d82a      	bhi.n	8013940 <f_lseek+0xc4>
 80138ea:	e035      	b.n	8013958 <f_lseek+0xdc>
 80138ec:	2100      	movs	r1, #0
 80138ee:	f7ff f923 	bl	8012b38 <create_chain>
 80138f2:	4605      	mov	r5, r0
 80138f4:	2801      	cmp	r0, #1
 80138f6:	d004      	beq.n	8013902 <f_lseek+0x86>
 80138f8:	f1b0 3fff 	cmp.w	r0, #4294967295	; 0xffffffff
 80138fc:	d006      	beq.n	801390c <f_lseek+0x90>
 80138fe:	6120      	str	r0, [r4, #16]
 8013900:	e7ee      	b.n	80138e0 <f_lseek+0x64>
 8013902:	f04f 0802 	mov.w	r8, #2
 8013906:	f884 8007 	strb.w	r8, [r4, #7]
 801390a:	e06d      	b.n	80139e8 <f_lseek+0x16c>
 801390c:	f04f 0801 	mov.w	r8, #1
 8013910:	f884 8007 	strb.w	r8, [r4, #7]
 8013914:	e068      	b.n	80139e8 <f_lseek+0x16c>
 8013916:	4629      	mov	r1, r5
 8013918:	6820      	ldr	r0, [r4, #0]
 801391a:	f7fe ff95 	bl	8012848 <get_fat>
 801391e:	4605      	mov	r5, r0
 8013920:	f1b5 3fff 	cmp.w	r5, #4294967295	; 0xffffffff
 8013924:	d026      	beq.n	8013974 <f_lseek+0xf8>
 8013926:	2d01      	cmp	r5, #1
 8013928:	d929      	bls.n	801397e <f_lseek+0x102>
 801392a:	6823      	ldr	r3, [r4, #0]
 801392c:	699b      	ldr	r3, [r3, #24]
 801392e:	42ab      	cmp	r3, r5
 8013930:	d925      	bls.n	801397e <f_lseek+0x102>
 8013932:	6165      	str	r5, [r4, #20]
 8013934:	68a3      	ldr	r3, [r4, #8]
 8013936:	443b      	add	r3, r7
 8013938:	60a3      	str	r3, [r4, #8]
 801393a:	1bf6      	subs	r6, r6, r7
 801393c:	42b7      	cmp	r7, r6
 801393e:	d20b      	bcs.n	8013958 <f_lseek+0xdc>
 8013940:	79a3      	ldrb	r3, [r4, #6]
 8013942:	f013 0f02 	tst.w	r3, #2
 8013946:	d0e6      	beq.n	8013916 <f_lseek+0x9a>
 8013948:	4629      	mov	r1, r5
 801394a:	6820      	ldr	r0, [r4, #0]
 801394c:	f7ff f8f4 	bl	8012b38 <create_chain>
 8013950:	4605      	mov	r5, r0
 8013952:	2800      	cmp	r0, #0
 8013954:	d1e4      	bne.n	8013920 <f_lseek+0xa4>
 8013956:	463e      	mov	r6, r7
 8013958:	68a3      	ldr	r3, [r4, #8]
 801395a:	4433      	add	r3, r6
 801395c:	60a3      	str	r3, [r4, #8]
 801395e:	f3c6 0308 	ubfx	r3, r6, #0, #9
 8013962:	b1b3      	cbz	r3, 8013992 <f_lseek+0x116>
 8013964:	4629      	mov	r1, r5
 8013966:	6820      	ldr	r0, [r4, #0]
 8013968:	f7fe ff63 	bl	8012832 <clust2sect>
 801396c:	b160      	cbz	r0, 8013988 <f_lseek+0x10c>
 801396e:	eb00 2556 	add.w	r5, r0, r6, lsr #9
 8013972:	e00f      	b.n	8013994 <f_lseek+0x118>
 8013974:	f04f 0801 	mov.w	r8, #1
 8013978:	f884 8007 	strb.w	r8, [r4, #7]
 801397c:	e034      	b.n	80139e8 <f_lseek+0x16c>
 801397e:	f04f 0802 	mov.w	r8, #2
 8013982:	f884 8007 	strb.w	r8, [r4, #7]
 8013986:	e02f      	b.n	80139e8 <f_lseek+0x16c>
 8013988:	f04f 0802 	mov.w	r8, #2
 801398c:	f884 8007 	strb.w	r8, [r4, #7]
 8013990:	e02a      	b.n	80139e8 <f_lseek+0x16c>
 8013992:	461d      	mov	r5, r3
 8013994:	68a3      	ldr	r3, [r4, #8]
 8013996:	f3c3 0308 	ubfx	r3, r3, #0, #9
 801399a:	b1e3      	cbz	r3, 80139d6 <f_lseek+0x15a>
 801399c:	69a2      	ldr	r2, [r4, #24]
 801399e:	42aa      	cmp	r2, r5
 80139a0:	d019      	beq.n	80139d6 <f_lseek+0x15a>
 80139a2:	79a3      	ldrb	r3, [r4, #6]
 80139a4:	f013 0f40 	tst.w	r3, #64	; 0x40
 80139a8:	d00b      	beq.n	80139c2 <f_lseek+0x146>
 80139aa:	4621      	mov	r1, r4
 80139ac:	f851 0b24 	ldr.w	r0, [r1], #36
 80139b0:	2301      	movs	r3, #1
 80139b2:	7840      	ldrb	r0, [r0, #1]
 80139b4:	f001 f970 	bl	8014c98 <disk_write>
 80139b8:	b9c8      	cbnz	r0, 80139ee <f_lseek+0x172>
 80139ba:	79a3      	ldrb	r3, [r4, #6]
 80139bc:	f023 0340 	bic.w	r3, r3, #64	; 0x40
 80139c0:	71a3      	strb	r3, [r4, #6]
 80139c2:	4621      	mov	r1, r4
 80139c4:	f851 0b24 	ldr.w	r0, [r1], #36
 80139c8:	2301      	movs	r3, #1
 80139ca:	462a      	mov	r2, r5
 80139cc:	7840      	ldrb	r0, [r0, #1]
 80139ce:	f001 f91b 	bl	8014c08 <disk_read>
 80139d2:	b988      	cbnz	r0, 80139f8 <f_lseek+0x17c>
 80139d4:	61a5      	str	r5, [r4, #24]
 80139d6:	68a3      	ldr	r3, [r4, #8]
 80139d8:	68e2      	ldr	r2, [r4, #12]
 80139da:	4293      	cmp	r3, r2
 80139dc:	d904      	bls.n	80139e8 <f_lseek+0x16c>
 80139de:	60e3      	str	r3, [r4, #12]
 80139e0:	79a3      	ldrb	r3, [r4, #6]
 80139e2:	f043 0320 	orr.w	r3, r3, #32
 80139e6:	71a3      	strb	r3, [r4, #6]
 80139e8:	4640      	mov	r0, r8
 80139ea:	e8bd 81f0 	ldmia.w	sp!, {r4, r5, r6, r7, r8, pc}
 80139ee:	f04f 0801 	mov.w	r8, #1
 80139f2:	f884 8007 	strb.w	r8, [r4, #7]
 80139f6:	e7f7      	b.n	80139e8 <f_lseek+0x16c>
 80139f8:	f04f 0801 	mov.w	r8, #1
 80139fc:	f884 8007 	strb.w	r8, [r4, #7]
 8013a00:	e7f2      	b.n	80139e8 <f_lseek+0x16c>

08013a02 <f_opendir>:
 8013a02:	b510      	push	{r4, lr}
 8013a04:	b086      	sub	sp, #24
 8013a06:	9101      	str	r1, [sp, #4]
 8013a08:	2800      	cmp	r0, #0
 8013a0a:	d031      	beq.n	8013a70 <f_opendir+0x6e>
 8013a0c:	4604      	mov	r4, r0
 8013a0e:	2200      	movs	r2, #0
 8013a10:	a901      	add	r1, sp, #4
 8013a12:	a805      	add	r0, sp, #20
 8013a14:	f7fe fcd2 	bl	80123bc <find_volume>
 8013a18:	4603      	mov	r3, r0
 8013a1a:	b120      	cbz	r0, 8013a26 <f_opendir+0x24>
 8013a1c:	2200      	movs	r2, #0
 8013a1e:	6022      	str	r2, [r4, #0]
 8013a20:	4618      	mov	r0, r3
 8013a22:	b006      	add	sp, #24
 8013a24:	bd10      	pop	{r4, pc}
 8013a26:	9b05      	ldr	r3, [sp, #20]
 8013a28:	6023      	str	r3, [r4, #0]
 8013a2a:	ab02      	add	r3, sp, #8
 8013a2c:	61a3      	str	r3, [r4, #24]
 8013a2e:	9901      	ldr	r1, [sp, #4]
 8013a30:	4620      	mov	r0, r4
 8013a32:	f7ff f964 	bl	8012cfe <follow_path>
 8013a36:	4603      	mov	r3, r0
 8013a38:	b988      	cbnz	r0, 8013a5e <f_opendir+0x5c>
 8013a3a:	6961      	ldr	r1, [r4, #20]
 8013a3c:	b139      	cbz	r1, 8013a4e <f_opendir+0x4c>
 8013a3e:	7acb      	ldrb	r3, [r1, #11]
 8013a40:	f013 0f10 	tst.w	r3, #16
 8013a44:	d010      	beq.n	8013a68 <f_opendir+0x66>
 8013a46:	9805      	ldr	r0, [sp, #20]
 8013a48:	f7fe fb9a 	bl	8012180 <ld_clust>
 8013a4c:	60a0      	str	r0, [r4, #8]
 8013a4e:	9b05      	ldr	r3, [sp, #20]
 8013a50:	88db      	ldrh	r3, [r3, #6]
 8013a52:	80a3      	strh	r3, [r4, #4]
 8013a54:	2100      	movs	r1, #0
 8013a56:	4620      	mov	r0, r4
 8013a58:	f7fe ff67 	bl	801292a <dir_sdi>
 8013a5c:	4603      	mov	r3, r0
 8013a5e:	2b04      	cmp	r3, #4
 8013a60:	d004      	beq.n	8013a6c <f_opendir+0x6a>
 8013a62:	2b00      	cmp	r3, #0
 8013a64:	d0dc      	beq.n	8013a20 <f_opendir+0x1e>
 8013a66:	e7d9      	b.n	8013a1c <f_opendir+0x1a>
 8013a68:	2305      	movs	r3, #5
 8013a6a:	e7d7      	b.n	8013a1c <f_opendir+0x1a>
 8013a6c:	2305      	movs	r3, #5
 8013a6e:	e7d5      	b.n	8013a1c <f_opendir+0x1a>
 8013a70:	2309      	movs	r3, #9
 8013a72:	e7d5      	b.n	8013a20 <f_opendir+0x1e>

08013a74 <f_closedir>:
 8013a74:	b510      	push	{r4, lr}
 8013a76:	4604      	mov	r4, r0
 8013a78:	f7fe fc86 	bl	8012388 <validate>
 8013a7c:	b900      	cbnz	r0, 8013a80 <f_closedir+0xc>
 8013a7e:	6020      	str	r0, [r4, #0]
 8013a80:	bd10      	pop	{r4, pc}

08013a82 <f_readdir>:
 8013a82:	b570      	push	{r4, r5, r6, lr}
 8013a84:	b084      	sub	sp, #16
 8013a86:	4604      	mov	r4, r0
 8013a88:	460d      	mov	r5, r1
 8013a8a:	f7fe fc7d 	bl	8012388 <validate>
 8013a8e:	4606      	mov	r6, r0
 8013a90:	b9f0      	cbnz	r0, 8013ad0 <f_readdir+0x4e>
 8013a92:	b155      	cbz	r5, 8013aaa <f_readdir+0x28>
 8013a94:	ab01      	add	r3, sp, #4
 8013a96:	61a3      	str	r3, [r4, #24]
 8013a98:	2100      	movs	r1, #0
 8013a9a:	4620      	mov	r0, r4
 8013a9c:	f7ff fa95 	bl	8012fca <dir_read>
 8013aa0:	2804      	cmp	r0, #4
 8013aa2:	d008      	beq.n	8013ab6 <f_readdir+0x34>
 8013aa4:	b148      	cbz	r0, 8013aba <f_readdir+0x38>
 8013aa6:	4606      	mov	r6, r0
 8013aa8:	e012      	b.n	8013ad0 <f_readdir+0x4e>
 8013aaa:	2100      	movs	r1, #0
 8013aac:	4620      	mov	r0, r4
 8013aae:	f7fe ff3c 	bl	801292a <dir_sdi>
 8013ab2:	4606      	mov	r6, r0
 8013ab4:	e00c      	b.n	8013ad0 <f_readdir+0x4e>
 8013ab6:	2300      	movs	r3, #0
 8013ab8:	6123      	str	r3, [r4, #16]
 8013aba:	4629      	mov	r1, r5
 8013abc:	4620      	mov	r0, r4
 8013abe:	f7fe fb6f 	bl	80121a0 <get_fileinfo>
 8013ac2:	2100      	movs	r1, #0
 8013ac4:	4620      	mov	r0, r4
 8013ac6:	f7ff f894 	bl	8012bf2 <dir_next>
 8013aca:	2804      	cmp	r0, #4
 8013acc:	d003      	beq.n	8013ad6 <f_readdir+0x54>
 8013ace:	4606      	mov	r6, r0
 8013ad0:	4630      	mov	r0, r6
 8013ad2:	b004      	add	sp, #16
 8013ad4:	bd70      	pop	{r4, r5, r6, pc}
 8013ad6:	2300      	movs	r3, #0
 8013ad8:	6123      	str	r3, [r4, #16]
 8013ada:	e7f9      	b.n	8013ad0 <f_readdir+0x4e>

08013adc <f_stat>:
 8013adc:	b530      	push	{r4, r5, lr}
 8013ade:	b08d      	sub	sp, #52	; 0x34
 8013ae0:	9001      	str	r0, [sp, #4]
 8013ae2:	460c      	mov	r4, r1
 8013ae4:	2200      	movs	r2, #0
 8013ae6:	a901      	add	r1, sp, #4
 8013ae8:	a805      	add	r0, sp, #20
 8013aea:	f7fe fc67 	bl	80123bc <find_volume>
 8013aee:	4605      	mov	r5, r0
 8013af0:	b110      	cbz	r0, 8013af8 <f_stat+0x1c>
 8013af2:	4628      	mov	r0, r5
 8013af4:	b00d      	add	sp, #52	; 0x34
 8013af6:	bd30      	pop	{r4, r5, pc}
 8013af8:	ab02      	add	r3, sp, #8
 8013afa:	930b      	str	r3, [sp, #44]	; 0x2c
 8013afc:	9901      	ldr	r1, [sp, #4]
 8013afe:	a805      	add	r0, sp, #20
 8013b00:	f7ff f8fd 	bl	8012cfe <follow_path>
 8013b04:	4605      	mov	r5, r0
 8013b06:	2800      	cmp	r0, #0
 8013b08:	d1f3      	bne.n	8013af2 <f_stat+0x16>
 8013b0a:	9b0a      	ldr	r3, [sp, #40]	; 0x28
 8013b0c:	b133      	cbz	r3, 8013b1c <f_stat+0x40>
 8013b0e:	2c00      	cmp	r4, #0
 8013b10:	d0ef      	beq.n	8013af2 <f_stat+0x16>
 8013b12:	4621      	mov	r1, r4
 8013b14:	a805      	add	r0, sp, #20
 8013b16:	f7fe fb43 	bl	80121a0 <get_fileinfo>
 8013b1a:	e7ea      	b.n	8013af2 <f_stat+0x16>
 8013b1c:	2506      	movs	r5, #6
 8013b1e:	e7e8      	b.n	8013af2 <f_stat+0x16>

08013b20 <f_getfree>:
 8013b20:	e92d 47f0 	stmdb	sp!, {r4, r5, r6, r7, r8, r9, sl, lr}
 8013b24:	b082      	sub	sp, #8
 8013b26:	9001      	str	r0, [sp, #4]
 8013b28:	460f      	mov	r7, r1
 8013b2a:	4614      	mov	r4, r2
 8013b2c:	2200      	movs	r2, #0
 8013b2e:	a901      	add	r1, sp, #4
 8013b30:	4620      	mov	r0, r4
 8013b32:	f7fe fc43 	bl	80123bc <find_volume>
 8013b36:	4681      	mov	r9, r0
 8013b38:	b930      	cbnz	r0, 8013b48 <f_getfree+0x28>
 8013b3a:	6825      	ldr	r5, [r4, #0]
 8013b3c:	692b      	ldr	r3, [r5, #16]
 8013b3e:	69ac      	ldr	r4, [r5, #24]
 8013b40:	1ea2      	subs	r2, r4, #2
 8013b42:	4293      	cmp	r3, r2
 8013b44:	d804      	bhi.n	8013b50 <f_getfree+0x30>
 8013b46:	603b      	str	r3, [r7, #0]
 8013b48:	4648      	mov	r0, r9
 8013b4a:	b002      	add	sp, #8
 8013b4c:	e8bd 87f0 	ldmia.w	sp!, {r4, r5, r6, r7, r8, r9, sl, pc}
 8013b50:	f895 8000 	ldrb.w	r8, [r5]
 8013b54:	f1b8 0f01 	cmp.w	r8, #1
 8013b58:	d004      	beq.n	8013b64 <f_getfree+0x44>
 8013b5a:	6a69      	ldr	r1, [r5, #36]	; 0x24
 8013b5c:	2200      	movs	r2, #0
 8013b5e:	4610      	mov	r0, r2
 8013b60:	4616      	mov	r6, r2
 8013b62:	e035      	b.n	8013bd0 <f_getfree+0xb0>
 8013b64:	2402      	movs	r4, #2
 8013b66:	2600      	movs	r6, #0
 8013b68:	e003      	b.n	8013b72 <f_getfree+0x52>
 8013b6a:	3401      	adds	r4, #1
 8013b6c:	69ab      	ldr	r3, [r5, #24]
 8013b6e:	42a3      	cmp	r3, r4
 8013b70:	d943      	bls.n	8013bfa <f_getfree+0xda>
 8013b72:	4621      	mov	r1, r4
 8013b74:	4628      	mov	r0, r5
 8013b76:	f7fe fe67 	bl	8012848 <get_fat>
 8013b7a:	f1b0 3fff 	cmp.w	r0, #4294967295	; 0xffffffff
 8013b7e:	d036      	beq.n	8013bee <f_getfree+0xce>
 8013b80:	2801      	cmp	r0, #1
 8013b82:	d036      	beq.n	8013bf2 <f_getfree+0xd2>
 8013b84:	2800      	cmp	r0, #0
 8013b86:	d1f0      	bne.n	8013b6a <f_getfree+0x4a>
 8013b88:	3601      	adds	r6, #1
 8013b8a:	e7ee      	b.n	8013b6a <f_getfree+0x4a>
 8013b8c:	f101 0a01 	add.w	sl, r1, #1
 8013b90:	4628      	mov	r0, r5
 8013b92:	f7fe fb9a 	bl	80122ca <move_window>
 8013b96:	bb78      	cbnz	r0, 8013bf8 <f_getfree+0xd8>
 8013b98:	f105 0234 	add.w	r2, r5, #52	; 0x34
 8013b9c:	4651      	mov	r1, sl
 8013b9e:	f44f 7000 	mov.w	r0, #512	; 0x200
 8013ba2:	e017      	b.n	8013bd4 <f_getfree+0xb4>
 8013ba4:	f892 c003 	ldrb.w	ip, [r2, #3]
 8013ba8:	7893      	ldrb	r3, [r2, #2]
 8013baa:	041b      	lsls	r3, r3, #16
 8013bac:	ea43 630c 	orr.w	r3, r3, ip, lsl #24
 8013bb0:	f892 c000 	ldrb.w	ip, [r2]
 8013bb4:	ea43 030c 	orr.w	r3, r3, ip
 8013bb8:	f892 c001 	ldrb.w	ip, [r2, #1]
 8013bbc:	ea43 230c 	orr.w	r3, r3, ip, lsl #8
 8013bc0:	f033 4370 	bics.w	r3, r3, #4026531840	; 0xf0000000
 8013bc4:	bf08      	it	eq
 8013bc6:	3601      	addeq	r6, #1
 8013bc8:	3204      	adds	r2, #4
 8013bca:	3804      	subs	r0, #4
 8013bcc:	3c01      	subs	r4, #1
 8013bce:	d014      	beq.n	8013bfa <f_getfree+0xda>
 8013bd0:	2800      	cmp	r0, #0
 8013bd2:	d0db      	beq.n	8013b8c <f_getfree+0x6c>
 8013bd4:	f1b8 0f02 	cmp.w	r8, #2
 8013bd8:	d1e4      	bne.n	8013ba4 <f_getfree+0x84>
 8013bda:	f892 c001 	ldrb.w	ip, [r2, #1]
 8013bde:	7813      	ldrb	r3, [r2, #0]
 8013be0:	ea53 230c 	orrs.w	r3, r3, ip, lsl #8
 8013be4:	bf08      	it	eq
 8013be6:	3601      	addeq	r6, #1
 8013be8:	3202      	adds	r2, #2
 8013bea:	3802      	subs	r0, #2
 8013bec:	e7ee      	b.n	8013bcc <f_getfree+0xac>
 8013bee:	46c1      	mov	r9, r8
 8013bf0:	e003      	b.n	8013bfa <f_getfree+0xda>
 8013bf2:	f04f 0902 	mov.w	r9, #2
 8013bf6:	e000      	b.n	8013bfa <f_getfree+0xda>
 8013bf8:	4681      	mov	r9, r0
 8013bfa:	612e      	str	r6, [r5, #16]
 8013bfc:	796b      	ldrb	r3, [r5, #5]
 8013bfe:	f043 0301 	orr.w	r3, r3, #1
 8013c02:	716b      	strb	r3, [r5, #5]
 8013c04:	603e      	str	r6, [r7, #0]
 8013c06:	e79f      	b.n	8013b48 <f_getfree+0x28>

08013c08 <f_truncate>:
 8013c08:	b570      	push	{r4, r5, r6, lr}
 8013c0a:	4604      	mov	r4, r0
 8013c0c:	f7fe fbbc 	bl	8012388 <validate>
 8013c10:	4605      	mov	r5, r0
 8013c12:	2800      	cmp	r0, #0
 8013c14:	d14b      	bne.n	8013cae <f_truncate+0xa6>
 8013c16:	79e5      	ldrb	r5, [r4, #7]
 8013c18:	2d00      	cmp	r5, #0
 8013c1a:	d148      	bne.n	8013cae <f_truncate+0xa6>
 8013c1c:	79a2      	ldrb	r2, [r4, #6]
 8013c1e:	f012 0f02 	tst.w	r2, #2
 8013c22:	d03e      	beq.n	8013ca2 <f_truncate+0x9a>
 8013c24:	68a3      	ldr	r3, [r4, #8]
 8013c26:	68e1      	ldr	r1, [r4, #12]
 8013c28:	4299      	cmp	r1, r3
 8013c2a:	d940      	bls.n	8013cae <f_truncate+0xa6>
 8013c2c:	60e3      	str	r3, [r4, #12]
 8013c2e:	f042 0220 	orr.w	r2, r2, #32
 8013c32:	71a2      	strb	r2, [r4, #6]
 8013c34:	b9c3      	cbnz	r3, 8013c68 <f_truncate+0x60>
 8013c36:	6921      	ldr	r1, [r4, #16]
 8013c38:	6820      	ldr	r0, [r4, #0]
 8013c3a:	f7ff f9f3 	bl	8013024 <remove_chain>
 8013c3e:	2300      	movs	r3, #0
 8013c40:	6123      	str	r3, [r4, #16]
 8013c42:	bb80      	cbnz	r0, 8013ca6 <f_truncate+0x9e>
 8013c44:	79a3      	ldrb	r3, [r4, #6]
 8013c46:	f013 0f40 	tst.w	r3, #64	; 0x40
 8013c4a:	d030      	beq.n	8013cae <f_truncate+0xa6>
 8013c4c:	4621      	mov	r1, r4
 8013c4e:	f851 0b24 	ldr.w	r0, [r1], #36
 8013c52:	2301      	movs	r3, #1
 8013c54:	69a2      	ldr	r2, [r4, #24]
 8013c56:	7840      	ldrb	r0, [r0, #1]
 8013c58:	f001 f81e 	bl	8014c98 <disk_write>
 8013c5c:	b9f8      	cbnz	r0, 8013c9e <f_truncate+0x96>
 8013c5e:	79a3      	ldrb	r3, [r4, #6]
 8013c60:	f023 0340 	bic.w	r3, r3, #64	; 0x40
 8013c64:	71a3      	strb	r3, [r4, #6]
 8013c66:	e022      	b.n	8013cae <f_truncate+0xa6>
 8013c68:	6961      	ldr	r1, [r4, #20]
 8013c6a:	6820      	ldr	r0, [r4, #0]
 8013c6c:	f7fe fdec 	bl	8012848 <get_fat>
 8013c70:	4606      	mov	r6, r0
 8013c72:	2801      	cmp	r0, #1
 8013c74:	d019      	beq.n	8013caa <f_truncate+0xa2>
 8013c76:	f1b0 3fff 	cmp.w	r0, #4294967295	; 0xffffffff
 8013c7a:	d01a      	beq.n	8013cb2 <f_truncate+0xaa>
 8013c7c:	6820      	ldr	r0, [r4, #0]
 8013c7e:	6983      	ldr	r3, [r0, #24]
 8013c80:	42b3      	cmp	r3, r6
 8013c82:	d9df      	bls.n	8013c44 <f_truncate+0x3c>
 8013c84:	f06f 4270 	mvn.w	r2, #4026531840	; 0xf0000000
 8013c88:	6961      	ldr	r1, [r4, #20]
 8013c8a:	f7fe feba 	bl	8012a02 <put_fat>
 8013c8e:	b108      	cbz	r0, 8013c94 <f_truncate+0x8c>
 8013c90:	4605      	mov	r5, r0
 8013c92:	e00b      	b.n	8013cac <f_truncate+0xa4>
 8013c94:	4631      	mov	r1, r6
 8013c96:	6820      	ldr	r0, [r4, #0]
 8013c98:	f7ff f9c4 	bl	8013024 <remove_chain>
 8013c9c:	e7d1      	b.n	8013c42 <f_truncate+0x3a>
 8013c9e:	2501      	movs	r5, #1
 8013ca0:	e004      	b.n	8013cac <f_truncate+0xa4>
 8013ca2:	2507      	movs	r5, #7
 8013ca4:	e003      	b.n	8013cae <f_truncate+0xa6>
 8013ca6:	4605      	mov	r5, r0
 8013ca8:	e000      	b.n	8013cac <f_truncate+0xa4>
 8013caa:	2502      	movs	r5, #2
 8013cac:	71e5      	strb	r5, [r4, #7]
 8013cae:	4628      	mov	r0, r5
 8013cb0:	bd70      	pop	{r4, r5, r6, pc}
 8013cb2:	2501      	movs	r5, #1
 8013cb4:	e7fa      	b.n	8013cac <f_truncate+0xa4>

08013cb6 <f_unlink>:
 8013cb6:	b570      	push	{r4, r5, r6, lr}
 8013cb8:	b094      	sub	sp, #80	; 0x50
 8013cba:	9001      	str	r0, [sp, #4]
 8013cbc:	2201      	movs	r2, #1
 8013cbe:	a901      	add	r1, sp, #4
 8013cc0:	a80d      	add	r0, sp, #52	; 0x34
 8013cc2:	f7fe fb7b 	bl	80123bc <find_volume>
 8013cc6:	b108      	cbz	r0, 8013ccc <f_unlink+0x16>
 8013cc8:	b014      	add	sp, #80	; 0x50
 8013cca:	bd70      	pop	{r4, r5, r6, pc}
 8013ccc:	ab03      	add	r3, sp, #12
 8013cce:	9313      	str	r3, [sp, #76]	; 0x4c
 8013cd0:	9901      	ldr	r1, [sp, #4]
 8013cd2:	a80d      	add	r0, sp, #52	; 0x34
 8013cd4:	f7ff f813 	bl	8012cfe <follow_path>
 8013cd8:	2800      	cmp	r0, #0
 8013cda:	d1f5      	bne.n	8013cc8 <f_unlink+0x12>
 8013cdc:	9b13      	ldr	r3, [sp, #76]	; 0x4c
 8013cde:	7adb      	ldrb	r3, [r3, #11]
 8013ce0:	f013 0f20 	tst.w	r3, #32
 8013ce4:	d12b      	bne.n	8013d3e <f_unlink+0x88>
 8013ce6:	9912      	ldr	r1, [sp, #72]	; 0x48
 8013ce8:	b369      	cbz	r1, 8013d46 <f_unlink+0x90>
 8013cea:	7acc      	ldrb	r4, [r1, #11]
 8013cec:	f014 0f01 	tst.w	r4, #1
 8013cf0:	d12b      	bne.n	8013d4a <f_unlink+0x94>
 8013cf2:	9d0d      	ldr	r5, [sp, #52]	; 0x34
 8013cf4:	4628      	mov	r0, r5
 8013cf6:	f7fe fa43 	bl	8012180 <ld_clust>
 8013cfa:	4606      	mov	r6, r0
 8013cfc:	2800      	cmp	r0, #0
 8013cfe:	d034      	beq.n	8013d6a <f_unlink+0xb4>
 8013d00:	f014 0f10 	tst.w	r4, #16
 8013d04:	d025      	beq.n	8013d52 <f_unlink+0x9c>
 8013d06:	696b      	ldr	r3, [r5, #20]
 8013d08:	4283      	cmp	r3, r0
 8013d0a:	d01a      	beq.n	8013d42 <f_unlink+0x8c>
 8013d0c:	221c      	movs	r2, #28
 8013d0e:	a90d      	add	r1, sp, #52	; 0x34
 8013d10:	a806      	add	r0, sp, #24
 8013d12:	f7fe fa23 	bl	801215c <mem_cpy>
 8013d16:	9608      	str	r6, [sp, #32]
 8013d18:	2102      	movs	r1, #2
 8013d1a:	a806      	add	r0, sp, #24
 8013d1c:	f7fe fe05 	bl	801292a <dir_sdi>
 8013d20:	2800      	cmp	r0, #0
 8013d22:	d1d1      	bne.n	8013cc8 <f_unlink+0x12>
 8013d24:	2100      	movs	r1, #0
 8013d26:	a806      	add	r0, sp, #24
 8013d28:	f7ff f94f 	bl	8012fca <dir_read>
 8013d2c:	b178      	cbz	r0, 8013d4e <f_unlink+0x98>
 8013d2e:	2804      	cmp	r0, #4
 8013d30:	d1ca      	bne.n	8013cc8 <f_unlink+0x12>
 8013d32:	a80d      	add	r0, sp, #52	; 0x34
 8013d34:	f7fe fe49 	bl	80129ca <dir_remove>
 8013d38:	2800      	cmp	r0, #0
 8013d3a:	d1c5      	bne.n	8013cc8 <f_unlink+0x12>
 8013d3c:	e00e      	b.n	8013d5c <f_unlink+0xa6>
 8013d3e:	2006      	movs	r0, #6
 8013d40:	e7c2      	b.n	8013cc8 <f_unlink+0x12>
 8013d42:	2007      	movs	r0, #7
 8013d44:	e7c0      	b.n	8013cc8 <f_unlink+0x12>
 8013d46:	2006      	movs	r0, #6
 8013d48:	e7be      	b.n	8013cc8 <f_unlink+0x12>
 8013d4a:	2007      	movs	r0, #7
 8013d4c:	e7bc      	b.n	8013cc8 <f_unlink+0x12>
 8013d4e:	2007      	movs	r0, #7
 8013d50:	e7ba      	b.n	8013cc8 <f_unlink+0x12>
 8013d52:	a80d      	add	r0, sp, #52	; 0x34
 8013d54:	f7fe fe39 	bl	80129ca <dir_remove>
 8013d58:	2800      	cmp	r0, #0
 8013d5a:	d1b5      	bne.n	8013cc8 <f_unlink+0x12>
 8013d5c:	4631      	mov	r1, r6
 8013d5e:	980d      	ldr	r0, [sp, #52]	; 0x34
 8013d60:	f7ff f960 	bl	8013024 <remove_chain>
 8013d64:	2800      	cmp	r0, #0
 8013d66:	d1af      	bne.n	8013cc8 <f_unlink+0x12>
 8013d68:	e004      	b.n	8013d74 <f_unlink+0xbe>
 8013d6a:	a80d      	add	r0, sp, #52	; 0x34
 8013d6c:	f7fe fe2d 	bl	80129ca <dir_remove>
 8013d70:	2800      	cmp	r0, #0
 8013d72:	d1a9      	bne.n	8013cc8 <f_unlink+0x12>
 8013d74:	980d      	ldr	r0, [sp, #52]	; 0x34
 8013d76:	f7fe fd01 	bl	801277c <sync_fs>
 8013d7a:	e7a5      	b.n	8013cc8 <f_unlink+0x12>

08013d7c <f_mkdir>:
 8013d7c:	e92d 4ff0 	stmdb	sp!, {r4, r5, r6, r7, r8, r9, sl, fp, lr}
 8013d80:	b095      	sub	sp, #84	; 0x54
 8013d82:	9009      	str	r0, [sp, #36]	; 0x24
 8013d84:	f000 fe37 	bl	80149f6 <get_fattime>
 8013d88:	4681      	mov	r9, r0
 8013d8a:	2201      	movs	r2, #1
 8013d8c:	a909      	add	r1, sp, #36	; 0x24
 8013d8e:	a80d      	add	r0, sp, #52	; 0x34
 8013d90:	f7fe fb14 	bl	80123bc <find_volume>
 8013d94:	4604      	mov	r4, r0
 8013d96:	b118      	cbz	r0, 8013da0 <f_mkdir+0x24>
 8013d98:	4620      	mov	r0, r4
 8013d9a:	b015      	add	sp, #84	; 0x54
 8013d9c:	e8bd 8ff0 	ldmia.w	sp!, {r4, r5, r6, r7, r8, r9, sl, fp, pc}
 8013da0:	ab0a      	add	r3, sp, #40	; 0x28
 8013da2:	9313      	str	r3, [sp, #76]	; 0x4c
 8013da4:	9909      	ldr	r1, [sp, #36]	; 0x24
 8013da6:	a80d      	add	r0, sp, #52	; 0x34
 8013da8:	f7fe ffa9 	bl	8012cfe <follow_path>
 8013dac:	4604      	mov	r4, r0
 8013dae:	2800      	cmp	r0, #0
 8013db0:	f000 80bf 	beq.w	8013f32 <f_mkdir+0x1b6>
 8013db4:	2804      	cmp	r0, #4
 8013db6:	d1ef      	bne.n	8013d98 <f_mkdir+0x1c>
 8013db8:	9b13      	ldr	r3, [sp, #76]	; 0x4c
 8013dba:	7adb      	ldrb	r3, [r3, #11]
 8013dbc:	f013 0f20 	tst.w	r3, #32
 8013dc0:	f040 80af 	bne.w	8013f22 <f_mkdir+0x1a6>
 8013dc4:	2100      	movs	r1, #0
 8013dc6:	980d      	ldr	r0, [sp, #52]	; 0x34
 8013dc8:	f7fe feb6 	bl	8012b38 <create_chain>
 8013dcc:	4680      	mov	r8, r0
 8013dce:	2800      	cmp	r0, #0
 8013dd0:	f000 80a9 	beq.w	8013f26 <f_mkdir+0x1aa>
 8013dd4:	f1b8 0f01 	cmp.w	r8, #1
 8013dd8:	f040 80ad 	bne.w	8013f36 <f_mkdir+0x1ba>
 8013ddc:	2402      	movs	r4, #2
 8013dde:	e0a3      	b.n	8013f28 <f_mkdir+0x1ac>
 8013de0:	980d      	ldr	r0, [sp, #52]	; 0x34
 8013de2:	f7fe fa45 	bl	8012270 <sync_window>
 8013de6:	4604      	mov	r4, r0
 8013de8:	2800      	cmp	r0, #0
 8013dea:	f040 809d 	bne.w	8013f28 <f_mkdir+0x1ac>
 8013dee:	9c0d      	ldr	r4, [sp, #52]	; 0x34
 8013df0:	4641      	mov	r1, r8
 8013df2:	4620      	mov	r0, r4
 8013df4:	f7fe fd1d 	bl	8012832 <clust2sect>
 8013df8:	4605      	mov	r5, r0
 8013dfa:	f104 0734 	add.w	r7, r4, #52	; 0x34
 8013dfe:	f44f 7200 	mov.w	r2, #512	; 0x200
 8013e02:	2100      	movs	r1, #0
 8013e04:	4638      	mov	r0, r7
 8013e06:	f7fe f9b3 	bl	8012170 <mem_set>
 8013e0a:	220b      	movs	r2, #11
 8013e0c:	2120      	movs	r1, #32
 8013e0e:	4638      	mov	r0, r7
 8013e10:	f7fe f9ae 	bl	8012170 <mem_set>
 8013e14:	262e      	movs	r6, #46	; 0x2e
 8013e16:	f884 6034 	strb.w	r6, [r4, #52]	; 0x34
 8013e1a:	2310      	movs	r3, #16
 8013e1c:	f884 303f 	strb.w	r3, [r4, #63]	; 0x3f
 8013e20:	fa5f f389 	uxtb.w	r3, r9
 8013e24:	9301      	str	r3, [sp, #4]
 8013e26:	f884 304a 	strb.w	r3, [r4, #74]	; 0x4a
 8013e2a:	f3c9 2307 	ubfx	r3, r9, #8, #8
 8013e2e:	9302      	str	r3, [sp, #8]
 8013e30:	f884 304b 	strb.w	r3, [r4, #75]	; 0x4b
 8013e34:	f3c9 4307 	ubfx	r3, r9, #16, #8
 8013e38:	9303      	str	r3, [sp, #12]
 8013e3a:	f884 304c 	strb.w	r3, [r4, #76]	; 0x4c
 8013e3e:	ea4f 6319 	mov.w	r3, r9, lsr #24
 8013e42:	9304      	str	r3, [sp, #16]
 8013e44:	f884 304d 	strb.w	r3, [r4, #77]	; 0x4d
 8013e48:	fa5f f388 	uxtb.w	r3, r8
 8013e4c:	9305      	str	r3, [sp, #20]
 8013e4e:	f884 304e 	strb.w	r3, [r4, #78]	; 0x4e
 8013e52:	f3c8 2307 	ubfx	r3, r8, #8, #8
 8013e56:	9306      	str	r3, [sp, #24]
 8013e58:	f884 304f 	strb.w	r3, [r4, #79]	; 0x4f
 8013e5c:	f3c8 4307 	ubfx	r3, r8, #16, #8
 8013e60:	9307      	str	r3, [sp, #28]
 8013e62:	f884 3048 	strb.w	r3, [r4, #72]	; 0x48
 8013e66:	ea4f 6318 	mov.w	r3, r8, lsr #24
 8013e6a:	9308      	str	r3, [sp, #32]
 8013e6c:	f884 3049 	strb.w	r3, [r4, #73]	; 0x49
 8013e70:	2220      	movs	r2, #32
 8013e72:	4639      	mov	r1, r7
 8013e74:	f104 0054 	add.w	r0, r4, #84	; 0x54
 8013e78:	f7fe f970 	bl	801215c <mem_cpy>
 8013e7c:	f884 6055 	strb.w	r6, [r4, #85]	; 0x55
 8013e80:	9b0f      	ldr	r3, [sp, #60]	; 0x3c
 8013e82:	9a0d      	ldr	r2, [sp, #52]	; 0x34
 8013e84:	7811      	ldrb	r1, [r2, #0]
 8013e86:	2903      	cmp	r1, #3
 8013e88:	d046      	beq.n	8013f18 <f_mkdir+0x19c>
 8013e8a:	f884 306e 	strb.w	r3, [r4, #110]	; 0x6e
 8013e8e:	f3c3 2107 	ubfx	r1, r3, #8, #8
 8013e92:	f884 106f 	strb.w	r1, [r4, #111]	; 0x6f
 8013e96:	0c1b      	lsrs	r3, r3, #16
 8013e98:	f884 3068 	strb.w	r3, [r4, #104]	; 0x68
 8013e9c:	0a1b      	lsrs	r3, r3, #8
 8013e9e:	f884 3069 	strb.w	r3, [r4, #105]	; 0x69
 8013ea2:	7896      	ldrb	r6, [r2, #2]
 8013ea4:	b1ce      	cbz	r6, 8013eda <f_mkdir+0x15e>
 8013ea6:	3e01      	subs	r6, #1
 8013ea8:	b2f6      	uxtb	r6, r6
 8013eaa:	3601      	adds	r6, #1
 8013eac:	442e      	add	r6, r5
 8013eae:	f04f 0901 	mov.w	r9, #1
 8013eb2:	f44f 7b00 	mov.w	fp, #512	; 0x200
 8013eb6:	f04f 0a00 	mov.w	sl, #0
 8013eba:	980d      	ldr	r0, [sp, #52]	; 0x34
 8013ebc:	6305      	str	r5, [r0, #48]	; 0x30
 8013ebe:	3501      	adds	r5, #1
 8013ec0:	f880 9004 	strb.w	r9, [r0, #4]
 8013ec4:	f7fe f9d4 	bl	8012270 <sync_window>
 8013ec8:	4604      	mov	r4, r0
 8013eca:	bb68      	cbnz	r0, 8013f28 <f_mkdir+0x1ac>
 8013ecc:	465a      	mov	r2, fp
 8013ece:	4651      	mov	r1, sl
 8013ed0:	4638      	mov	r0, r7
 8013ed2:	f7fe f94d 	bl	8012170 <mem_set>
 8013ed6:	42b5      	cmp	r5, r6
 8013ed8:	d1ef      	bne.n	8013eba <f_mkdir+0x13e>
 8013eda:	a80d      	add	r0, sp, #52	; 0x34
 8013edc:	f7ff f857 	bl	8012f8e <dir_register>
 8013ee0:	4604      	mov	r4, r0
 8013ee2:	bb08      	cbnz	r0, 8013f28 <f_mkdir+0x1ac>
 8013ee4:	9b12      	ldr	r3, [sp, #72]	; 0x48
 8013ee6:	2210      	movs	r2, #16
 8013ee8:	72da      	strb	r2, [r3, #11]
 8013eea:	9a01      	ldr	r2, [sp, #4]
 8013eec:	759a      	strb	r2, [r3, #22]
 8013eee:	9a02      	ldr	r2, [sp, #8]
 8013ef0:	75da      	strb	r2, [r3, #23]
 8013ef2:	9a03      	ldr	r2, [sp, #12]
 8013ef4:	761a      	strb	r2, [r3, #24]
 8013ef6:	9a04      	ldr	r2, [sp, #16]
 8013ef8:	765a      	strb	r2, [r3, #25]
 8013efa:	9a05      	ldr	r2, [sp, #20]
 8013efc:	769a      	strb	r2, [r3, #26]
 8013efe:	9a06      	ldr	r2, [sp, #24]
 8013f00:	76da      	strb	r2, [r3, #27]
 8013f02:	9a07      	ldr	r2, [sp, #28]
 8013f04:	751a      	strb	r2, [r3, #20]
 8013f06:	9a08      	ldr	r2, [sp, #32]
 8013f08:	755a      	strb	r2, [r3, #21]
 8013f0a:	980d      	ldr	r0, [sp, #52]	; 0x34
 8013f0c:	2301      	movs	r3, #1
 8013f0e:	7103      	strb	r3, [r0, #4]
 8013f10:	f7fe fc34 	bl	801277c <sync_fs>
 8013f14:	4604      	mov	r4, r0
 8013f16:	e73f      	b.n	8013d98 <f_mkdir+0x1c>
 8013f18:	6a91      	ldr	r1, [r2, #40]	; 0x28
 8013f1a:	4299      	cmp	r1, r3
 8013f1c:	bf08      	it	eq
 8013f1e:	2300      	moveq	r3, #0
 8013f20:	e7b3      	b.n	8013e8a <f_mkdir+0x10e>
 8013f22:	2406      	movs	r4, #6
 8013f24:	e738      	b.n	8013d98 <f_mkdir+0x1c>
 8013f26:	2407      	movs	r4, #7
 8013f28:	4641      	mov	r1, r8
 8013f2a:	980d      	ldr	r0, [sp, #52]	; 0x34
 8013f2c:	f7ff f87a 	bl	8013024 <remove_chain>
 8013f30:	e732      	b.n	8013d98 <f_mkdir+0x1c>
 8013f32:	2408      	movs	r4, #8
 8013f34:	e730      	b.n	8013d98 <f_mkdir+0x1c>
 8013f36:	f1b8 3fff 	cmp.w	r8, #4294967295	; 0xffffffff
 8013f3a:	f47f af51 	bne.w	8013de0 <f_mkdir+0x64>
 8013f3e:	2401      	movs	r4, #1
 8013f40:	e7f2      	b.n	8013f28 <f_mkdir+0x1ac>

08013f42 <f_chmod>:
 8013f42:	b530      	push	{r4, r5, lr}
 8013f44:	b08d      	sub	sp, #52	; 0x34
 8013f46:	9001      	str	r0, [sp, #4]
 8013f48:	460d      	mov	r5, r1
 8013f4a:	4614      	mov	r4, r2
 8013f4c:	2201      	movs	r2, #1
 8013f4e:	a901      	add	r1, sp, #4
 8013f50:	a805      	add	r0, sp, #20
 8013f52:	f7fe fa33 	bl	80123bc <find_volume>
 8013f56:	b108      	cbz	r0, 8013f5c <f_chmod+0x1a>
 8013f58:	b00d      	add	sp, #52	; 0x34
 8013f5a:	bd30      	pop	{r4, r5, pc}
 8013f5c:	ab02      	add	r3, sp, #8
 8013f5e:	930b      	str	r3, [sp, #44]	; 0x2c
 8013f60:	9901      	ldr	r1, [sp, #4]
 8013f62:	a805      	add	r0, sp, #20
 8013f64:	f7fe fecb 	bl	8012cfe <follow_path>
 8013f68:	2800      	cmp	r0, #0
 8013f6a:	d1f5      	bne.n	8013f58 <f_chmod+0x16>
 8013f6c:	9b0b      	ldr	r3, [sp, #44]	; 0x2c
 8013f6e:	7adb      	ldrb	r3, [r3, #11]
 8013f70:	f013 0f20 	tst.w	r3, #32
 8013f74:	d10f      	bne.n	8013f96 <f_chmod+0x54>
 8013f76:	990a      	ldr	r1, [sp, #40]	; 0x28
 8013f78:	b179      	cbz	r1, 8013f9a <f_chmod+0x58>
 8013f7a:	7acb      	ldrb	r3, [r1, #11]
 8013f7c:	ea83 0205 	eor.w	r2, r3, r5
 8013f80:	4022      	ands	r2, r4
 8013f82:	f002 0227 	and.w	r2, r2, #39	; 0x27
 8013f86:	405a      	eors	r2, r3
 8013f88:	72ca      	strb	r2, [r1, #11]
 8013f8a:	9805      	ldr	r0, [sp, #20]
 8013f8c:	2301      	movs	r3, #1
 8013f8e:	7103      	strb	r3, [r0, #4]
 8013f90:	f7fe fbf4 	bl	801277c <sync_fs>
 8013f94:	e7e0      	b.n	8013f58 <f_chmod+0x16>
 8013f96:	2006      	movs	r0, #6
 8013f98:	e7de      	b.n	8013f58 <f_chmod+0x16>
 8013f9a:	2006      	movs	r0, #6
 8013f9c:	e7dc      	b.n	8013f58 <f_chmod+0x16>

08013f9e <f_rename>:
 8013f9e:	b530      	push	{r4, r5, lr}
 8013fa0:	b09b      	sub	sp, #108	; 0x6c
 8013fa2:	9001      	str	r0, [sp, #4]
 8013fa4:	9100      	str	r1, [sp, #0]
 8013fa6:	2201      	movs	r2, #1
 8013fa8:	a901      	add	r1, sp, #4
 8013faa:	a813      	add	r0, sp, #76	; 0x4c
 8013fac:	f7fe fa06 	bl	80123bc <find_volume>
 8013fb0:	b108      	cbz	r0, 8013fb6 <f_rename+0x18>
 8013fb2:	b01b      	add	sp, #108	; 0x6c
 8013fb4:	bd30      	pop	{r4, r5, pc}
 8013fb6:	9b13      	ldr	r3, [sp, #76]	; 0x4c
 8013fb8:	930c      	str	r3, [sp, #48]	; 0x30
 8013fba:	ab03      	add	r3, sp, #12
 8013fbc:	9319      	str	r3, [sp, #100]	; 0x64
 8013fbe:	9901      	ldr	r1, [sp, #4]
 8013fc0:	a813      	add	r0, sp, #76	; 0x4c
 8013fc2:	f7fe fe9c 	bl	8012cfe <follow_path>
 8013fc6:	2800      	cmp	r0, #0
 8013fc8:	d1f3      	bne.n	8013fb2 <f_rename+0x14>
 8013fca:	9b19      	ldr	r3, [sp, #100]	; 0x64
 8013fcc:	7adb      	ldrb	r3, [r3, #11]
 8013fce:	f013 0f20 	tst.w	r3, #32
 8013fd2:	d167      	bne.n	80140a4 <f_rename+0x106>
 8013fd4:	9918      	ldr	r1, [sp, #96]	; 0x60
 8013fd6:	2900      	cmp	r1, #0
 8013fd8:	d066      	beq.n	80140a8 <f_rename+0x10a>
 8013fda:	2215      	movs	r2, #21
 8013fdc:	310b      	adds	r1, #11
 8013fde:	a806      	add	r0, sp, #24
 8013fe0:	f7fe f8bc 	bl	801215c <mem_cpy>
 8013fe4:	221c      	movs	r2, #28
 8013fe6:	a913      	add	r1, sp, #76	; 0x4c
 8013fe8:	a80c      	add	r0, sp, #48	; 0x30
 8013fea:	f7fe f8b7 	bl	801215c <mem_cpy>
 8013fee:	4668      	mov	r0, sp
 8013ff0:	f7fe f915 	bl	801221e <get_ldnumber>
 8013ff4:	2800      	cmp	r0, #0
 8013ff6:	da01      	bge.n	8013ffc <f_rename+0x5e>
 8013ff8:	200b      	movs	r0, #11
 8013ffa:	e7da      	b.n	8013fb2 <f_rename+0x14>
 8013ffc:	9900      	ldr	r1, [sp, #0]
 8013ffe:	a80c      	add	r0, sp, #48	; 0x30
 8014000:	f7fe fe7d 	bl	8012cfe <follow_path>
 8014004:	2800      	cmp	r0, #0
 8014006:	d051      	beq.n	80140ac <f_rename+0x10e>
 8014008:	2804      	cmp	r0, #4
 801400a:	d1d2      	bne.n	8013fb2 <f_rename+0x14>
 801400c:	a80c      	add	r0, sp, #48	; 0x30
 801400e:	f7fe ffbe 	bl	8012f8e <dir_register>
 8014012:	2800      	cmp	r0, #0
 8014014:	d1cd      	bne.n	8013fb2 <f_rename+0x14>
 8014016:	9c11      	ldr	r4, [sp, #68]	; 0x44
 8014018:	2213      	movs	r2, #19
 801401a:	f10d 011a 	add.w	r1, sp, #26
 801401e:	f104 000d 	add.w	r0, r4, #13
 8014022:	f7fe f89b 	bl	801215c <mem_cpy>
 8014026:	f89d 3018 	ldrb.w	r3, [sp, #24]
 801402a:	f043 0320 	orr.w	r3, r3, #32
 801402e:	72e3      	strb	r3, [r4, #11]
 8014030:	9d13      	ldr	r5, [sp, #76]	; 0x4c
 8014032:	2301      	movs	r3, #1
 8014034:	712b      	strb	r3, [r5, #4]
 8014036:	7ae3      	ldrb	r3, [r4, #11]
 8014038:	f013 0f10 	tst.w	r3, #16
 801403c:	d019      	beq.n	8014072 <f_rename+0xd4>
 801403e:	9a15      	ldr	r2, [sp, #84]	; 0x54
 8014040:	9b0e      	ldr	r3, [sp, #56]	; 0x38
 8014042:	429a      	cmp	r2, r3
 8014044:	d015      	beq.n	8014072 <f_rename+0xd4>
 8014046:	4621      	mov	r1, r4
 8014048:	4628      	mov	r0, r5
 801404a:	f7fe f899 	bl	8012180 <ld_clust>
 801404e:	4601      	mov	r1, r0
 8014050:	4628      	mov	r0, r5
 8014052:	f7fe fbee 	bl	8012832 <clust2sect>
 8014056:	4601      	mov	r1, r0
 8014058:	b908      	cbnz	r0, 801405e <f_rename+0xc0>
 801405a:	2002      	movs	r0, #2
 801405c:	e7a9      	b.n	8013fb2 <f_rename+0x14>
 801405e:	4628      	mov	r0, r5
 8014060:	f7fe f933 	bl	80122ca <move_window>
 8014064:	2800      	cmp	r0, #0
 8014066:	d1a4      	bne.n	8013fb2 <f_rename+0x14>
 8014068:	9a13      	ldr	r2, [sp, #76]	; 0x4c
 801406a:	f892 3055 	ldrb.w	r3, [r2, #85]	; 0x55
 801406e:	2b2e      	cmp	r3, #46	; 0x2e
 8014070:	d008      	beq.n	8014084 <f_rename+0xe6>
 8014072:	a813      	add	r0, sp, #76	; 0x4c
 8014074:	f7fe fca9 	bl	80129ca <dir_remove>
 8014078:	2800      	cmp	r0, #0
 801407a:	d19a      	bne.n	8013fb2 <f_rename+0x14>
 801407c:	9813      	ldr	r0, [sp, #76]	; 0x4c
 801407e:	f7fe fb7d 	bl	801277c <sync_fs>
 8014082:	e796      	b.n	8013fb2 <f_rename+0x14>
 8014084:	9b0e      	ldr	r3, [sp, #56]	; 0x38
 8014086:	f882 306e 	strb.w	r3, [r2, #110]	; 0x6e
 801408a:	f3c3 2107 	ubfx	r1, r3, #8, #8
 801408e:	f882 106f 	strb.w	r1, [r2, #111]	; 0x6f
 8014092:	0c1b      	lsrs	r3, r3, #16
 8014094:	f882 3068 	strb.w	r3, [r2, #104]	; 0x68
 8014098:	0a1b      	lsrs	r3, r3, #8
 801409a:	f882 3069 	strb.w	r3, [r2, #105]	; 0x69
 801409e:	2301      	movs	r3, #1
 80140a0:	7113      	strb	r3, [r2, #4]
 80140a2:	e7e6      	b.n	8014072 <f_rename+0xd4>
 80140a4:	2006      	movs	r0, #6
 80140a6:	e784      	b.n	8013fb2 <f_rename+0x14>
 80140a8:	2004      	movs	r0, #4
 80140aa:	e782      	b.n	8013fb2 <f_rename+0x14>
 80140ac:	2008      	movs	r0, #8
 80140ae:	e780      	b.n	8013fb2 <f_rename+0x14>

080140b0 <f_utime>:
 80140b0:	b510      	push	{r4, lr}
 80140b2:	b08c      	sub	sp, #48	; 0x30
 80140b4:	9001      	str	r0, [sp, #4]
 80140b6:	460c      	mov	r4, r1
 80140b8:	2201      	movs	r2, #1
 80140ba:	a901      	add	r1, sp, #4
 80140bc:	a805      	add	r0, sp, #20
 80140be:	f7fe f97d 	bl	80123bc <find_volume>
 80140c2:	b108      	cbz	r0, 80140c8 <f_utime+0x18>
 80140c4:	b00c      	add	sp, #48	; 0x30
 80140c6:	bd10      	pop	{r4, pc}
 80140c8:	ab02      	add	r3, sp, #8
 80140ca:	930b      	str	r3, [sp, #44]	; 0x2c
 80140cc:	9901      	ldr	r1, [sp, #4]
 80140ce:	a805      	add	r0, sp, #20
 80140d0:	f7fe fe15 	bl	8012cfe <follow_path>
 80140d4:	2800      	cmp	r0, #0
 80140d6:	d1f5      	bne.n	80140c4 <f_utime+0x14>
 80140d8:	9b0b      	ldr	r3, [sp, #44]	; 0x2c
 80140da:	7adb      	ldrb	r3, [r3, #11]
 80140dc:	f013 0f20 	tst.w	r3, #32
 80140e0:	d111      	bne.n	8014106 <f_utime+0x56>
 80140e2:	9b0a      	ldr	r3, [sp, #40]	; 0x28
 80140e4:	b18b      	cbz	r3, 801410a <f_utime+0x5a>
 80140e6:	88e2      	ldrh	r2, [r4, #6]
 80140e8:	759a      	strb	r2, [r3, #22]
 80140ea:	88e2      	ldrh	r2, [r4, #6]
 80140ec:	0a12      	lsrs	r2, r2, #8
 80140ee:	75da      	strb	r2, [r3, #23]
 80140f0:	88a2      	ldrh	r2, [r4, #4]
 80140f2:	761a      	strb	r2, [r3, #24]
 80140f4:	88a2      	ldrh	r2, [r4, #4]
 80140f6:	0a12      	lsrs	r2, r2, #8
 80140f8:	765a      	strb	r2, [r3, #25]
 80140fa:	9805      	ldr	r0, [sp, #20]
 80140fc:	2301      	movs	r3, #1
 80140fe:	7103      	strb	r3, [r0, #4]
 8014100:	f7fe fb3c 	bl	801277c <sync_fs>
 8014104:	e7de      	b.n	80140c4 <f_utime+0x14>
 8014106:	2006      	movs	r0, #6
 8014108:	e7dc      	b.n	80140c4 <f_utime+0x14>
 801410a:	2006      	movs	r0, #6
 801410c:	e7da      	b.n	80140c4 <f_utime+0x14>

0801410e <f_getlabel>:
 801410e:	b570      	push	{r4, r5, r6, lr}
 8014110:	b08a      	sub	sp, #40	; 0x28
 8014112:	9001      	str	r0, [sp, #4]
 8014114:	460c      	mov	r4, r1
 8014116:	4615      	mov	r5, r2
 8014118:	2200      	movs	r2, #0
 801411a:	a901      	add	r1, sp, #4
 801411c:	a803      	add	r0, sp, #12
 801411e:	f7fe f94d 	bl	80123bc <find_volume>
 8014122:	4606      	mov	r6, r0
 8014124:	b938      	cbnz	r0, 8014136 <f_getlabel+0x28>
 8014126:	b194      	cbz	r4, 801414e <f_getlabel+0x40>
 8014128:	2100      	movs	r1, #0
 801412a:	9105      	str	r1, [sp, #20]
 801412c:	a803      	add	r0, sp, #12
 801412e:	f7fe fbfc 	bl	801292a <dir_sdi>
 8014132:	b118      	cbz	r0, 801413c <f_getlabel+0x2e>
 8014134:	4606      	mov	r6, r0
 8014136:	4630      	mov	r0, r6
 8014138:	b00a      	add	sp, #40	; 0x28
 801413a:	bd70      	pop	{r4, r5, r6, pc}
 801413c:	2101      	movs	r1, #1
 801413e:	a803      	add	r0, sp, #12
 8014140:	f7fe ff43 	bl	8012fca <dir_read>
 8014144:	b318      	cbz	r0, 801418e <f_getlabel+0x80>
 8014146:	2804      	cmp	r0, #4
 8014148:	d134      	bne.n	80141b4 <f_getlabel+0xa6>
 801414a:	2300      	movs	r3, #0
 801414c:	7023      	strb	r3, [r4, #0]
 801414e:	2d00      	cmp	r5, #0
 8014150:	d0f1      	beq.n	8014136 <f_getlabel+0x28>
 8014152:	9803      	ldr	r0, [sp, #12]
 8014154:	6a01      	ldr	r1, [r0, #32]
 8014156:	f7fe f8b8 	bl	80122ca <move_window>
 801415a:	4606      	mov	r6, r0
 801415c:	2800      	cmp	r0, #0
 801415e:	d1ea      	bne.n	8014136 <f_getlabel+0x28>
 8014160:	9903      	ldr	r1, [sp, #12]
 8014162:	780b      	ldrb	r3, [r1, #0]
 8014164:	2b03      	cmp	r3, #3
 8014166:	bf0c      	ite	eq
 8014168:	2043      	moveq	r0, #67	; 0x43
 801416a:	2027      	movne	r0, #39	; 0x27
 801416c:	f100 0234 	add.w	r2, r0, #52	; 0x34
 8014170:	440a      	add	r2, r1
 8014172:	78d4      	ldrb	r4, [r2, #3]
 8014174:	7893      	ldrb	r3, [r2, #2]
 8014176:	041b      	lsls	r3, r3, #16
 8014178:	ea43 6304 	orr.w	r3, r3, r4, lsl #24
 801417c:	4401      	add	r1, r0
 801417e:	f891 1034 	ldrb.w	r1, [r1, #52]	; 0x34
 8014182:	430b      	orrs	r3, r1
 8014184:	7852      	ldrb	r2, [r2, #1]
 8014186:	ea43 2302 	orr.w	r3, r3, r2, lsl #8
 801418a:	602b      	str	r3, [r5, #0]
 801418c:	e7d3      	b.n	8014136 <f_getlabel+0x28>
 801418e:	220b      	movs	r2, #11
 8014190:	9908      	ldr	r1, [sp, #32]
 8014192:	4620      	mov	r0, r4
 8014194:	f7fd ffe2 	bl	801215c <mem_cpy>
 8014198:	4623      	mov	r3, r4
 801419a:	2200      	movs	r2, #0
 801419c:	f803 2f0b 	strb.w	r2, [r3, #11]!
 80141a0:	4621      	mov	r1, r4
 80141a2:	4610      	mov	r0, r2
 80141a4:	f813 2d01 	ldrb.w	r2, [r3, #-1]!
 80141a8:	2a20      	cmp	r2, #32
 80141aa:	d1d0      	bne.n	801414e <f_getlabel+0x40>
 80141ac:	7018      	strb	r0, [r3, #0]
 80141ae:	428b      	cmp	r3, r1
 80141b0:	d1f8      	bne.n	80141a4 <f_getlabel+0x96>
 80141b2:	e7cc      	b.n	801414e <f_getlabel+0x40>
 80141b4:	4606      	mov	r6, r0
 80141b6:	e7be      	b.n	8014136 <f_getlabel+0x28>

080141b8 <f_setlabel>:
 80141b8:	e92d 41f0 	stmdb	sp!, {r4, r5, r6, r7, r8, lr}
 80141bc:	b08c      	sub	sp, #48	; 0x30
 80141be:	9001      	str	r0, [sp, #4]
 80141c0:	2201      	movs	r2, #1
 80141c2:	a901      	add	r1, sp, #4
 80141c4:	a805      	add	r0, sp, #20
 80141c6:	f7fe f8f9 	bl	80123bc <find_volume>
 80141ca:	2800      	cmp	r0, #0
 80141cc:	d15c      	bne.n	8014288 <f_setlabel+0xd0>
 80141ce:	f88d 0008 	strb.w	r0, [sp, #8]
 80141d2:	9d01      	ldr	r5, [sp, #4]
 80141d4:	782b      	ldrb	r3, [r5, #0]
 80141d6:	b14b      	cbz	r3, 80141ec <f_setlabel+0x34>
 80141d8:	462b      	mov	r3, r5
 80141da:	f1c5 0001 	rsb	r0, r5, #1
 80141de:	18c2      	adds	r2, r0, r3
 80141e0:	f813 1f01 	ldrb.w	r1, [r3, #1]!
 80141e4:	2900      	cmp	r1, #0
 80141e6:	d1fa      	bne.n	80141de <f_setlabel+0x26>
 80141e8:	18ab      	adds	r3, r5, r2
 80141ea:	e002      	b.n	80141f2 <f_setlabel+0x3a>
 80141ec:	2200      	movs	r2, #0
 80141ee:	e7fb      	b.n	80141e8 <f_setlabel+0x30>
 80141f0:	4602      	mov	r2, r0
 80141f2:	2a00      	cmp	r2, #0
 80141f4:	d042      	beq.n	801427c <f_setlabel+0xc4>
 80141f6:	1e50      	subs	r0, r2, #1
 80141f8:	f813 1d01 	ldrb.w	r1, [r3, #-1]!
 80141fc:	2920      	cmp	r1, #32
 80141fe:	d0f7      	beq.n	80141f0 <f_setlabel+0x38>
 8014200:	3d01      	subs	r5, #1
 8014202:	ae02      	add	r6, sp, #8
 8014204:	2000      	movs	r0, #0
 8014206:	f8df e138 	ldr.w	lr, [pc, #312]	; 8014340 <f_setlabel+0x188>
 801420a:	2722      	movs	r7, #34	; 0x22
 801420c:	e011      	b.n	8014232 <f_setlabel+0x7a>
 801420e:	2b7f      	cmp	r3, #127	; 0x7f
 8014210:	bf84      	itt	hi
 8014212:	4471      	addhi	r1, lr
 8014214:	f811 3c80 	ldrbhi.w	r3, [r1, #-128]
 8014218:	b9bb      	cbnz	r3, 801424a <f_setlabel+0x92>
 801421a:	2006      	movs	r0, #6
 801421c:	e034      	b.n	8014288 <f_setlabel+0xd0>
 801421e:	2900      	cmp	r1, #0
 8014220:	f040 8085 	bne.w	801432e <f_setlabel+0x176>
 8014224:	280c      	cmp	r0, #12
 8014226:	f000 8084 	beq.w	8014332 <f_setlabel+0x17a>
 801422a:	f806 3b01 	strb.w	r3, [r6], #1
 801422e:	4282      	cmp	r2, r0
 8014230:	d916      	bls.n	8014260 <f_setlabel+0xa8>
 8014232:	4684      	mov	ip, r0
 8014234:	3001      	adds	r0, #1
 8014236:	f815 1f01 	ldrb.w	r1, [r5, #1]!
 801423a:	b28b      	uxth	r3, r1
 801423c:	f1a1 0461 	sub.w	r4, r1, #97	; 0x61
 8014240:	b2a4      	uxth	r4, r4
 8014242:	2c19      	cmp	r4, #25
 8014244:	d8e3      	bhi.n	801420e <f_setlabel+0x56>
 8014246:	3b20      	subs	r3, #32
 8014248:	b29b      	uxth	r3, r3
 801424a:	4639      	mov	r1, r7
 801424c:	4c3b      	ldr	r4, [pc, #236]	; (801433c <f_setlabel+0x184>)
 801424e:	fa1f f881 	uxth.w	r8, r1
 8014252:	4543      	cmp	r3, r8
 8014254:	d0e3      	beq.n	801421e <f_setlabel+0x66>
 8014256:	f814 1f01 	ldrb.w	r1, [r4, #1]!
 801425a:	2900      	cmp	r1, #0
 801425c:	d1f7      	bne.n	801424e <f_setlabel+0x96>
 801425e:	e7e1      	b.n	8014224 <f_setlabel+0x6c>
 8014260:	280a      	cmp	r0, #10
 8014262:	d807      	bhi.n	8014274 <f_setlabel+0xbc>
 8014264:	ab02      	add	r3, sp, #8
 8014266:	449c      	add	ip, r3
 8014268:	330a      	adds	r3, #10
 801426a:	2220      	movs	r2, #32
 801426c:	f80c 2f01 	strb.w	r2, [ip, #1]!
 8014270:	4563      	cmp	r3, ip
 8014272:	d1fb      	bne.n	801426c <f_setlabel+0xb4>
 8014274:	f89d 3008 	ldrb.w	r3, [sp, #8]
 8014278:	2be5      	cmp	r3, #229	; 0xe5
 801427a:	d05c      	beq.n	8014336 <f_setlabel+0x17e>
 801427c:	2100      	movs	r1, #0
 801427e:	9107      	str	r1, [sp, #28]
 8014280:	a805      	add	r0, sp, #20
 8014282:	f7fe fb52 	bl	801292a <dir_sdi>
 8014286:	b110      	cbz	r0, 801428e <f_setlabel+0xd6>
 8014288:	b00c      	add	sp, #48	; 0x30
 801428a:	e8bd 81f0 	ldmia.w	sp!, {r4, r5, r6, r7, r8, pc}
 801428e:	2101      	movs	r1, #1
 8014290:	a805      	add	r0, sp, #20
 8014292:	f7fe fe9a 	bl	8012fca <dir_read>
 8014296:	b9f0      	cbnz	r0, 80142d6 <f_setlabel+0x11e>
 8014298:	f89d 3008 	ldrb.w	r3, [sp, #8]
 801429c:	b943      	cbnz	r3, 80142b0 <f_setlabel+0xf8>
 801429e:	9b0a      	ldr	r3, [sp, #40]	; 0x28
 80142a0:	22e5      	movs	r2, #229	; 0xe5
 80142a2:	701a      	strb	r2, [r3, #0]
 80142a4:	9805      	ldr	r0, [sp, #20]
 80142a6:	2301      	movs	r3, #1
 80142a8:	7103      	strb	r3, [r0, #4]
 80142aa:	f7fe fa67 	bl	801277c <sync_fs>
 80142ae:	e7eb      	b.n	8014288 <f_setlabel+0xd0>
 80142b0:	220b      	movs	r2, #11
 80142b2:	a902      	add	r1, sp, #8
 80142b4:	980a      	ldr	r0, [sp, #40]	; 0x28
 80142b6:	f7fd ff51 	bl	801215c <mem_cpy>
 80142ba:	f000 fb9c 	bl	80149f6 <get_fattime>
 80142be:	9b0a      	ldr	r3, [sp, #40]	; 0x28
 80142c0:	7598      	strb	r0, [r3, #22]
 80142c2:	f3c0 2207 	ubfx	r2, r0, #8, #8
 80142c6:	9b0a      	ldr	r3, [sp, #40]	; 0x28
 80142c8:	75da      	strb	r2, [r3, #23]
 80142ca:	9b0a      	ldr	r3, [sp, #40]	; 0x28
 80142cc:	0c02      	lsrs	r2, r0, #16
 80142ce:	761a      	strb	r2, [r3, #24]
 80142d0:	0e00      	lsrs	r0, r0, #24
 80142d2:	7658      	strb	r0, [r3, #25]
 80142d4:	e7e6      	b.n	80142a4 <f_setlabel+0xec>
 80142d6:	2804      	cmp	r0, #4
 80142d8:	d1d6      	bne.n	8014288 <f_setlabel+0xd0>
 80142da:	f89d 0008 	ldrb.w	r0, [sp, #8]
 80142de:	2800      	cmp	r0, #0
 80142e0:	d0d2      	beq.n	8014288 <f_setlabel+0xd0>
 80142e2:	2101      	movs	r1, #1
 80142e4:	a805      	add	r0, sp, #20
 80142e6:	f7fe fe2b 	bl	8012f40 <dir_alloc>
 80142ea:	2800      	cmp	r0, #0
 80142ec:	d1cc      	bne.n	8014288 <f_setlabel+0xd0>
 80142ee:	2220      	movs	r2, #32
 80142f0:	2100      	movs	r1, #0
 80142f2:	980a      	ldr	r0, [sp, #40]	; 0x28
 80142f4:	f7fd ff3c 	bl	8012170 <mem_set>
 80142f8:	220b      	movs	r2, #11
 80142fa:	a902      	add	r1, sp, #8
 80142fc:	980a      	ldr	r0, [sp, #40]	; 0x28
 80142fe:	f7fd ff2d 	bl	801215c <mem_cpy>
 8014302:	9b0a      	ldr	r3, [sp, #40]	; 0x28
 8014304:	2208      	movs	r2, #8
 8014306:	72da      	strb	r2, [r3, #11]
 8014308:	f000 fb75 	bl	80149f6 <get_fattime>
 801430c:	9a0a      	ldr	r2, [sp, #40]	; 0x28
 801430e:	7590      	strb	r0, [r2, #22]
 8014310:	f3c0 2107 	ubfx	r1, r0, #8, #8
 8014314:	9a0a      	ldr	r2, [sp, #40]	; 0x28
 8014316:	75d1      	strb	r1, [r2, #23]
 8014318:	9a0a      	ldr	r2, [sp, #40]	; 0x28
 801431a:	0c01      	lsrs	r1, r0, #16
 801431c:	7611      	strb	r1, [r2, #24]
 801431e:	0e03      	lsrs	r3, r0, #24
 8014320:	7653      	strb	r3, [r2, #25]
 8014322:	9805      	ldr	r0, [sp, #20]
 8014324:	2301      	movs	r3, #1
 8014326:	7103      	strb	r3, [r0, #4]
 8014328:	f7fe fa28 	bl	801277c <sync_fs>
 801432c:	e7ac      	b.n	8014288 <f_setlabel+0xd0>
 801432e:	2006      	movs	r0, #6
 8014330:	e7aa      	b.n	8014288 <f_setlabel+0xd0>
 8014332:	2006      	movs	r0, #6
 8014334:	e7a8      	b.n	8014288 <f_setlabel+0xd0>
 8014336:	2006      	movs	r0, #6
 8014338:	e7a6      	b.n	8014288 <f_setlabel+0xd0>
 801433a:	bf00      	nop
 801433c:	080196e0 	.word	0x080196e0
 8014340:	080196f0 	.word	0x080196f0

08014344 <f_gets>:
 8014344:	e92d 41f0 	stmdb	sp!, {r4, r5, r6, r7, r8, lr}
 8014348:	b082      	sub	sp, #8
 801434a:	4680      	mov	r8, r0
 801434c:	4617      	mov	r7, r2
 801434e:	4605      	mov	r5, r0
 8014350:	2400      	movs	r4, #0
 8014352:	1e4e      	subs	r6, r1, #1
 8014354:	42a6      	cmp	r6, r4
 8014356:	dd11      	ble.n	801437c <f_gets+0x38>
 8014358:	466b      	mov	r3, sp
 801435a:	2201      	movs	r2, #1
 801435c:	a901      	add	r1, sp, #4
 801435e:	4638      	mov	r0, r7
 8014360:	f7fe ff83 	bl	801326a <f_read>
 8014364:	9b00      	ldr	r3, [sp, #0]
 8014366:	2b01      	cmp	r3, #1
 8014368:	d108      	bne.n	801437c <f_gets+0x38>
 801436a:	f89d 3004 	ldrb.w	r3, [sp, #4]
 801436e:	2b0d      	cmp	r3, #13
 8014370:	d0f0      	beq.n	8014354 <f_gets+0x10>
 8014372:	f805 3b01 	strb.w	r3, [r5], #1
 8014376:	3401      	adds	r4, #1
 8014378:	2b0a      	cmp	r3, #10
 801437a:	d1eb      	bne.n	8014354 <f_gets+0x10>
 801437c:	2300      	movs	r3, #0
 801437e:	702b      	strb	r3, [r5, #0]
 8014380:	429c      	cmp	r4, r3
 8014382:	bf14      	ite	ne
 8014384:	4640      	movne	r0, r8
 8014386:	4618      	moveq	r0, r3
 8014388:	b002      	add	sp, #8
 801438a:	e8bd 81f0 	ldmia.w	sp!, {r4, r5, r6, r7, r8, pc}

0801438e <f_putc>:
 801438e:	b500      	push	{lr}
 8014390:	b095      	sub	sp, #84	; 0x54
 8014392:	9101      	str	r1, [sp, #4]
 8014394:	2300      	movs	r3, #0
 8014396:	9302      	str	r3, [sp, #8]
 8014398:	9303      	str	r3, [sp, #12]
 801439a:	4601      	mov	r1, r0
 801439c:	a801      	add	r0, sp, #4
 801439e:	f7ff f914 	bl	80135ca <putc_bfd>
 80143a2:	9a02      	ldr	r2, [sp, #8]
 80143a4:	2a00      	cmp	r2, #0
 80143a6:	db0d      	blt.n	80143c4 <f_putc+0x36>
 80143a8:	466b      	mov	r3, sp
 80143aa:	a904      	add	r1, sp, #16
 80143ac:	9801      	ldr	r0, [sp, #4]
 80143ae:	f7ff f828 	bl	8013402 <f_write>
 80143b2:	b950      	cbnz	r0, 80143ca <f_putc+0x3c>
 80143b4:	9a02      	ldr	r2, [sp, #8]
 80143b6:	9b00      	ldr	r3, [sp, #0]
 80143b8:	429a      	cmp	r2, r3
 80143ba:	d109      	bne.n	80143d0 <f_putc+0x42>
 80143bc:	9803      	ldr	r0, [sp, #12]
 80143be:	b015      	add	sp, #84	; 0x54
 80143c0:	f85d fb04 	ldr.w	pc, [sp], #4
 80143c4:	f06f 0001 	mvn.w	r0, #1
 80143c8:	e7f9      	b.n	80143be <f_putc+0x30>
 80143ca:	f06f 0001 	mvn.w	r0, #1
 80143ce:	e7f6      	b.n	80143be <f_putc+0x30>
 80143d0:	f06f 0001 	mvn.w	r0, #1
 80143d4:	e7f3      	b.n	80143be <f_putc+0x30>

080143d6 <f_puts>:
 80143d6:	b510      	push	{r4, lr}
 80143d8:	b094      	sub	sp, #80	; 0x50
 80143da:	4604      	mov	r4, r0
 80143dc:	9101      	str	r1, [sp, #4]
 80143de:	2300      	movs	r3, #0
 80143e0:	9302      	str	r3, [sp, #8]
 80143e2:	9303      	str	r3, [sp, #12]
 80143e4:	7801      	ldrb	r1, [r0, #0]
 80143e6:	b1b1      	cbz	r1, 8014416 <f_puts+0x40>
 80143e8:	a801      	add	r0, sp, #4
 80143ea:	f7ff f8ee 	bl	80135ca <putc_bfd>
 80143ee:	f814 1f01 	ldrb.w	r1, [r4, #1]!
 80143f2:	2900      	cmp	r1, #0
 80143f4:	d1f8      	bne.n	80143e8 <f_puts+0x12>
 80143f6:	9a02      	ldr	r2, [sp, #8]
 80143f8:	2a00      	cmp	r2, #0
 80143fa:	db0e      	blt.n	801441a <f_puts+0x44>
 80143fc:	466b      	mov	r3, sp
 80143fe:	a904      	add	r1, sp, #16
 8014400:	9801      	ldr	r0, [sp, #4]
 8014402:	f7fe fffe 	bl	8013402 <f_write>
 8014406:	b958      	cbnz	r0, 8014420 <f_puts+0x4a>
 8014408:	9a02      	ldr	r2, [sp, #8]
 801440a:	9b00      	ldr	r3, [sp, #0]
 801440c:	429a      	cmp	r2, r3
 801440e:	d10a      	bne.n	8014426 <f_puts+0x50>
 8014410:	9803      	ldr	r0, [sp, #12]
 8014412:	b014      	add	sp, #80	; 0x50
 8014414:	bd10      	pop	{r4, pc}
 8014416:	2200      	movs	r2, #0
 8014418:	e7f0      	b.n	80143fc <f_puts+0x26>
 801441a:	f06f 0001 	mvn.w	r0, #1
 801441e:	e7f8      	b.n	8014412 <f_puts+0x3c>
 8014420:	f06f 0001 	mvn.w	r0, #1
 8014424:	e7f5      	b.n	8014412 <f_puts+0x3c>
 8014426:	f06f 0001 	mvn.w	r0, #1
 801442a:	e7f2      	b.n	8014412 <f_puts+0x3c>

0801442c <f_printf>:
 801442c:	b40e      	push	{r1, r2, r3}
 801442e:	e92d 4ff0 	stmdb	sp!, {r4, r5, r6, r7, r8, r9, sl, fp, lr}
 8014432:	b09a      	sub	sp, #104	; 0x68
 8014434:	ab23      	add	r3, sp, #140	; 0x8c
 8014436:	f853 6b04 	ldr.w	r6, [r3], #4
 801443a:	9001      	str	r0, [sp, #4]
 801443c:	2200      	movs	r2, #0
 801443e:	9202      	str	r2, [sp, #8]
 8014440:	9203      	str	r2, [sp, #12]
 8014442:	9319      	str	r3, [sp, #100]	; 0x64
 8014444:	4634      	mov	r4, r6
 8014446:	f814 1b01 	ldrb.w	r1, [r4], #1
 801444a:	2900      	cmp	r1, #0
 801444c:	f000 810f 	beq.w	801466e <f_printf+0x242>
 8014450:	f04f 0802 	mov.w	r8, #2
 8014454:	e009      	b.n	801446a <f_printf+0x3e>
 8014456:	a801      	add	r0, sp, #4
 8014458:	f7ff f8b7 	bl	80135ca <putc_bfd>
 801445c:	4626      	mov	r6, r4
 801445e:	4634      	mov	r4, r6
 8014460:	f814 1b01 	ldrb.w	r1, [r4], #1
 8014464:	2900      	cmp	r1, #0
 8014466:	f000 8102 	beq.w	801466e <f_printf+0x242>
 801446a:	2925      	cmp	r1, #37	; 0x25
 801446c:	d1f3      	bne.n	8014456 <f_printf+0x2a>
 801446e:	7871      	ldrb	r1, [r6, #1]
 8014470:	2930      	cmp	r1, #48	; 0x30
 8014472:	d047      	beq.n	8014504 <f_printf+0xd8>
 8014474:	292d      	cmp	r1, #45	; 0x2d
 8014476:	d04a      	beq.n	801450e <f_printf+0xe2>
 8014478:	3602      	adds	r6, #2
 801447a:	f04f 0c00 	mov.w	ip, #0
 801447e:	f1a1 0330 	sub.w	r3, r1, #48	; 0x30
 8014482:	b2db      	uxtb	r3, r3
 8014484:	2b09      	cmp	r3, #9
 8014486:	d846      	bhi.n	8014516 <f_printf+0xea>
 8014488:	2500      	movs	r5, #0
 801448a:	eb05 0585 	add.w	r5, r5, r5, lsl #2
 801448e:	eb01 0545 	add.w	r5, r1, r5, lsl #1
 8014492:	3d30      	subs	r5, #48	; 0x30
 8014494:	f816 1b01 	ldrb.w	r1, [r6], #1
 8014498:	f1a1 0330 	sub.w	r3, r1, #48	; 0x30
 801449c:	b2db      	uxtb	r3, r3
 801449e:	2b09      	cmp	r3, #9
 80144a0:	d9f3      	bls.n	801448a <f_printf+0x5e>
 80144a2:	f001 03df 	and.w	r3, r1, #223	; 0xdf
 80144a6:	2b4c      	cmp	r3, #76	; 0x4c
 80144a8:	bf04      	itt	eq
 80144aa:	f04c 0c04 	orreq.w	ip, ip, #4
 80144ae:	f816 1b01 	ldrbeq.w	r1, [r6], #1
 80144b2:	2900      	cmp	r1, #0
 80144b4:	f000 80db 	beq.w	801466e <f_printf+0x242>
 80144b8:	f1a1 0361 	sub.w	r3, r1, #97	; 0x61
 80144bc:	b2db      	uxtb	r3, r3
 80144be:	2b19      	cmp	r3, #25
 80144c0:	bf9a      	itte	ls
 80144c2:	f1a1 0320 	subls.w	r3, r1, #32
 80144c6:	b2db      	uxtbls	r3, r3
 80144c8:	460b      	movhi	r3, r1
 80144ca:	f1a3 0242 	sub.w	r2, r3, #66	; 0x42
 80144ce:	2a16      	cmp	r2, #22
 80144d0:	d853      	bhi.n	801457a <f_printf+0x14e>
 80144d2:	e8df f012 	tbh	[pc, r2, lsl #1]
 80144d6:	00fd      	.short	0x00fd
 80144d8:	0056004a 	.word	0x0056004a
 80144dc:	00520052 	.word	0x00520052
 80144e0:	00520052 	.word	0x00520052
 80144e4:	00520052 	.word	0x00520052
 80144e8:	00520052 	.word	0x00520052
 80144ec:	00520052 	.word	0x00520052
 80144f0:	00520108 	.word	0x00520108
 80144f4:	00520052 	.word	0x00520052
 80144f8:	00520022 	.word	0x00520022
 80144fc:	00520056 	.word	0x00520056
 8014500:	00e80052 	.word	0x00e80052
 8014504:	78b1      	ldrb	r1, [r6, #2]
 8014506:	3603      	adds	r6, #3
 8014508:	f04f 0c01 	mov.w	ip, #1
 801450c:	e7b7      	b.n	801447e <f_printf+0x52>
 801450e:	78b1      	ldrb	r1, [r6, #2]
 8014510:	3603      	adds	r6, #3
 8014512:	46c4      	mov	ip, r8
 8014514:	e7b3      	b.n	801447e <f_printf+0x52>
 8014516:	2500      	movs	r5, #0
 8014518:	e7c3      	b.n	80144a2 <f_printf+0x76>
 801451a:	9b19      	ldr	r3, [sp, #100]	; 0x64
 801451c:	1d1a      	adds	r2, r3, #4
 801451e:	9219      	str	r2, [sp, #100]	; 0x64
 8014520:	681c      	ldr	r4, [r3, #0]
 8014522:	7821      	ldrb	r1, [r4, #0]
 8014524:	2900      	cmp	r1, #0
 8014526:	f000 80c8 	beq.w	80146ba <f_printf+0x28e>
 801452a:	4623      	mov	r3, r4
 801452c:	f1c4 0001 	rsb	r0, r4, #1
 8014530:	18c7      	adds	r7, r0, r3
 8014532:	f813 2f01 	ldrb.w	r2, [r3, #1]!
 8014536:	2a00      	cmp	r2, #0
 8014538:	d1fa      	bne.n	8014530 <f_printf+0x104>
 801453a:	f01c 0f02 	tst.w	ip, #2
 801453e:	f000 80da 	beq.w	80146f6 <f_printf+0x2ca>
 8014542:	a801      	add	r0, sp, #4
 8014544:	f7ff f841 	bl	80135ca <putc_bfd>
 8014548:	f814 1f01 	ldrb.w	r1, [r4, #1]!
 801454c:	2900      	cmp	r1, #0
 801454e:	d1f8      	bne.n	8014542 <f_printf+0x116>
 8014550:	1c7c      	adds	r4, r7, #1
 8014552:	42af      	cmp	r7, r5
 8014554:	d283      	bcs.n	801445e <f_printf+0x32>
 8014556:	2720      	movs	r7, #32
 8014558:	4639      	mov	r1, r7
 801455a:	a801      	add	r0, sp, #4
 801455c:	f7ff f835 	bl	80135ca <putc_bfd>
 8014560:	42a5      	cmp	r5, r4
 8014562:	f104 0401 	add.w	r4, r4, #1
 8014566:	d1f7      	bne.n	8014558 <f_printf+0x12c>
 8014568:	e779      	b.n	801445e <f_printf+0x32>
 801456a:	9b19      	ldr	r3, [sp, #100]	; 0x64
 801456c:	1d1a      	adds	r2, r3, #4
 801456e:	9219      	str	r2, [sp, #100]	; 0x64
 8014570:	7819      	ldrb	r1, [r3, #0]
 8014572:	a801      	add	r0, sp, #4
 8014574:	f7ff f829 	bl	80135ca <putc_bfd>
 8014578:	e771      	b.n	801445e <f_printf+0x32>
 801457a:	a801      	add	r0, sp, #4
 801457c:	f7ff f825 	bl	80135ca <putc_bfd>
 8014580:	e76d      	b.n	801445e <f_printf+0x32>
 8014582:	f01c 0f04 	tst.w	ip, #4
 8014586:	d018      	beq.n	80145ba <f_printf+0x18e>
 8014588:	200a      	movs	r0, #10
 801458a:	e000      	b.n	801458e <f_printf+0x162>
 801458c:	2010      	movs	r0, #16
 801458e:	9a19      	ldr	r2, [sp, #100]	; 0x64
 8014590:	1d14      	adds	r4, r2, #4
 8014592:	9419      	str	r4, [sp, #100]	; 0x64
 8014594:	6812      	ldr	r2, [r2, #0]
 8014596:	2b44      	cmp	r3, #68	; 0x44
 8014598:	d104      	bne.n	80145a4 <f_printf+0x178>
 801459a:	2a00      	cmp	r2, #0
 801459c:	bfbc      	itt	lt
 801459e:	4252      	neglt	r2, r2
 80145a0:	f04c 0c08 	orrlt.w	ip, ip, #8
 80145a4:	2978      	cmp	r1, #120	; 0x78
 80145a6:	bf0c      	ite	eq
 80145a8:	f04f 0b27 	moveq.w	fp, #39	; 0x27
 80145ac:	f04f 0b07 	movne.w	fp, #7
 80145b0:	af14      	add	r7, sp, #80	; 0x50
 80145b2:	46be      	mov	lr, r7
 80145b4:	2100      	movs	r1, #0
 80145b6:	4682      	mov	sl, r0
 80145b8:	e008      	b.n	80145cc <f_printf+0x1a0>
 80145ba:	200a      	movs	r0, #10
 80145bc:	2b44      	cmp	r3, #68	; 0x44
 80145be:	d177      	bne.n	80146b0 <f_printf+0x284>
 80145c0:	9b19      	ldr	r3, [sp, #100]	; 0x64
 80145c2:	1d1a      	adds	r2, r3, #4
 80145c4:	9219      	str	r2, [sp, #100]	; 0x64
 80145c6:	681a      	ldr	r2, [r3, #0]
 80145c8:	e7e7      	b.n	801459a <f_printf+0x16e>
 80145ca:	4621      	mov	r1, r4
 80145cc:	fbb2 f4f0 	udiv	r4, r2, r0
 80145d0:	fb00 2314 	mls	r3, r0, r4, r2
 80145d4:	b2db      	uxtb	r3, r3
 80145d6:	4691      	mov	r9, r2
 80145d8:	4622      	mov	r2, r4
 80145da:	2b09      	cmp	r3, #9
 80145dc:	bf84      	itt	hi
 80145de:	445b      	addhi	r3, fp
 80145e0:	b2db      	uxtbhi	r3, r3
 80145e2:	1c4c      	adds	r4, r1, #1
 80145e4:	3330      	adds	r3, #48	; 0x30
 80145e6:	f80e 3b01 	strb.w	r3, [lr], #1
 80145ea:	45ca      	cmp	sl, r9
 80145ec:	d802      	bhi.n	80145f4 <f_printf+0x1c8>
 80145ee:	2c10      	cmp	r4, #16
 80145f0:	d1eb      	bne.n	80145ca <f_printf+0x19e>
 80145f2:	210f      	movs	r1, #15
 80145f4:	f01c 0f08 	tst.w	ip, #8
 80145f8:	d005      	beq.n	8014606 <f_printf+0x1da>
 80145fa:	ab1a      	add	r3, sp, #104	; 0x68
 80145fc:	441c      	add	r4, r3
 80145fe:	232d      	movs	r3, #45	; 0x2d
 8014600:	f804 3c18 	strb.w	r3, [r4, #-24]
 8014604:	1c8c      	adds	r4, r1, #2
 8014606:	f01c 0f01 	tst.w	ip, #1
 801460a:	bf14      	ite	ne
 801460c:	f04f 0930 	movne.w	r9, #48	; 0x30
 8014610:	f04f 0920 	moveq.w	r9, #32
 8014614:	f01c 0f02 	tst.w	ip, #2
 8014618:	d127      	bne.n	801466a <f_printf+0x23e>
 801461a:	f104 0a01 	add.w	sl, r4, #1
 801461e:	42ac      	cmp	r4, r5
 8014620:	d209      	bcs.n	8014636 <f_printf+0x20a>
 8014622:	4649      	mov	r1, r9
 8014624:	a801      	add	r0, sp, #4
 8014626:	f7fe ffd0 	bl	80135ca <putc_bfd>
 801462a:	4555      	cmp	r5, sl
 801462c:	f10a 0a01 	add.w	sl, sl, #1
 8014630:	d1f7      	bne.n	8014622 <f_printf+0x1f6>
 8014632:	f105 0a01 	add.w	sl, r5, #1
 8014636:	ab1a      	add	r3, sp, #104	; 0x68
 8014638:	441c      	add	r4, r3
 801463a:	3c19      	subs	r4, #25
 801463c:	7821      	ldrb	r1, [r4, #0]
 801463e:	46a3      	mov	fp, r4
 8014640:	a801      	add	r0, sp, #4
 8014642:	f7fe ffc2 	bl	80135ca <putc_bfd>
 8014646:	42bc      	cmp	r4, r7
 8014648:	f104 34ff 	add.w	r4, r4, #4294967295	; 0xffffffff
 801464c:	d1f6      	bne.n	801463c <f_printf+0x210>
 801464e:	f10a 0401 	add.w	r4, sl, #1
 8014652:	45aa      	cmp	sl, r5
 8014654:	f4bf af03 	bcs.w	801445e <f_printf+0x32>
 8014658:	4649      	mov	r1, r9
 801465a:	a801      	add	r0, sp, #4
 801465c:	f7fe ffb5 	bl	80135ca <putc_bfd>
 8014660:	42a5      	cmp	r5, r4
 8014662:	f104 0401 	add.w	r4, r4, #1
 8014666:	d1f7      	bne.n	8014658 <f_printf+0x22c>
 8014668:	e6f9      	b.n	801445e <f_printf+0x32>
 801466a:	46a2      	mov	sl, r4
 801466c:	e7e3      	b.n	8014636 <f_printf+0x20a>
 801466e:	9a02      	ldr	r2, [sp, #8]
 8014670:	2a00      	cmp	r2, #0
 8014672:	db0f      	blt.n	8014694 <f_printf+0x268>
 8014674:	ab18      	add	r3, sp, #96	; 0x60
 8014676:	a904      	add	r1, sp, #16
 8014678:	9801      	ldr	r0, [sp, #4]
 801467a:	f7fe fec2 	bl	8013402 <f_write>
 801467e:	b960      	cbnz	r0, 801469a <f_printf+0x26e>
 8014680:	9a02      	ldr	r2, [sp, #8]
 8014682:	9b18      	ldr	r3, [sp, #96]	; 0x60
 8014684:	429a      	cmp	r2, r3
 8014686:	d10b      	bne.n	80146a0 <f_printf+0x274>
 8014688:	9803      	ldr	r0, [sp, #12]
 801468a:	b01a      	add	sp, #104	; 0x68
 801468c:	e8bd 4ff0 	ldmia.w	sp!, {r4, r5, r6, r7, r8, r9, sl, fp, lr}
 8014690:	b003      	add	sp, #12
 8014692:	4770      	bx	lr
 8014694:	f06f 0001 	mvn.w	r0, #1
 8014698:	e7f7      	b.n	801468a <f_printf+0x25e>
 801469a:	f06f 0001 	mvn.w	r0, #1
 801469e:	e7f4      	b.n	801468a <f_printf+0x25e>
 80146a0:	f06f 0001 	mvn.w	r0, #1
 80146a4:	e7f1      	b.n	801468a <f_printf+0x25e>
 80146a6:	f01c 0f04 	tst.w	ip, #4
 80146aa:	f47f af6f 	bne.w	801458c <f_printf+0x160>
 80146ae:	2010      	movs	r0, #16
 80146b0:	9b19      	ldr	r3, [sp, #100]	; 0x64
 80146b2:	1d1a      	adds	r2, r3, #4
 80146b4:	9219      	str	r2, [sp, #100]	; 0x64
 80146b6:	681a      	ldr	r2, [r3, #0]
 80146b8:	e774      	b.n	80145a4 <f_printf+0x178>
 80146ba:	f01c 0f02 	tst.w	ip, #2
 80146be:	d031      	beq.n	8014724 <f_printf+0x2f8>
 80146c0:	2700      	movs	r7, #0
 80146c2:	e745      	b.n	8014550 <f_printf+0x124>
 80146c4:	9b19      	ldr	r3, [sp, #100]	; 0x64
 80146c6:	1d1a      	adds	r2, r3, #4
 80146c8:	9219      	str	r2, [sp, #100]	; 0x64
 80146ca:	681a      	ldr	r2, [r3, #0]
 80146cc:	4640      	mov	r0, r8
 80146ce:	e769      	b.n	80145a4 <f_printf+0x178>
 80146d0:	f01c 0f04 	tst.w	ip, #4
 80146d4:	d1f6      	bne.n	80146c4 <f_printf+0x298>
 80146d6:	4640      	mov	r0, r8
 80146d8:	e770      	b.n	80145bc <f_printf+0x190>
 80146da:	9b19      	ldr	r3, [sp, #100]	; 0x64
 80146dc:	1d1a      	adds	r2, r3, #4
 80146de:	9219      	str	r2, [sp, #100]	; 0x64
 80146e0:	681a      	ldr	r2, [r3, #0]
 80146e2:	2008      	movs	r0, #8
 80146e4:	e75e      	b.n	80145a4 <f_printf+0x178>
 80146e6:	f01c 0f04 	tst.w	ip, #4
 80146ea:	d1f6      	bne.n	80146da <f_printf+0x2ae>
 80146ec:	2008      	movs	r0, #8
 80146ee:	e7df      	b.n	80146b0 <f_printf+0x284>
 80146f0:	7821      	ldrb	r1, [r4, #0]
 80146f2:	4657      	mov	r7, sl
 80146f4:	e725      	b.n	8014542 <f_printf+0x116>
 80146f6:	f107 0a01 	add.w	sl, r7, #1
 80146fa:	42bd      	cmp	r5, r7
 80146fc:	d9f8      	bls.n	80146f0 <f_printf+0x2c4>
 80146fe:	46d1      	mov	r9, sl
 8014700:	f04f 0b20 	mov.w	fp, #32
 8014704:	4659      	mov	r1, fp
 8014706:	a801      	add	r0, sp, #4
 8014708:	f7fe ff5f 	bl	80135ca <putc_bfd>
 801470c:	454d      	cmp	r5, r9
 801470e:	f109 0901 	add.w	r9, r9, #1
 8014712:	d1f7      	bne.n	8014704 <f_printf+0x2d8>
 8014714:	ebaa 0707 	sub.w	r7, sl, r7
 8014718:	442f      	add	r7, r5
 801471a:	7821      	ldrb	r1, [r4, #0]
 801471c:	2900      	cmp	r1, #0
 801471e:	f47f af10 	bne.w	8014542 <f_printf+0x116>
 8014722:	e715      	b.n	8014550 <f_printf+0x124>
 8014724:	2701      	movs	r7, #1
 8014726:	2d00      	cmp	r5, #0
 8014728:	f43f af12 	beq.w	8014550 <f_printf+0x124>
 801472c:	2700      	movs	r7, #0
 801472e:	f04f 0a01 	mov.w	sl, #1
 8014732:	e7e4      	b.n	80146fe <f_printf+0x2d2>

08014734 <_sd_send_command>:
 8014734:	b5f8      	push	{r3, r4, r5, r6, r7, lr}
 8014736:	4606      	mov	r6, r0
 8014738:	460c      	mov	r4, r1
 801473a:	4b26      	ldr	r3, [pc, #152]	; (80147d4 <_sd_send_command+0xa0>)
 801473c:	681b      	ldr	r3, [r3, #0]
 801473e:	b95b      	cbnz	r3, 8014758 <_sd_send_command+0x24>
 8014740:	f1a0 0311 	sub.w	r3, r0, #17
 8014744:	b2db      	uxtb	r3, r3
 8014746:	2b10      	cmp	r3, #16
 8014748:	d806      	bhi.n	8014758 <_sd_send_command+0x24>
 801474a:	2201      	movs	r2, #1
 801474c:	fa02 f303 	lsl.w	r3, r2, r3
 8014750:	4a21      	ldr	r2, [pc, #132]	; (80147d8 <_sd_send_command+0xa4>)
 8014752:	4213      	tst	r3, r2
 8014754:	bf18      	it	ne
 8014756:	024c      	lslne	r4, r1, #9
 8014758:	f046 0040 	orr.w	r0, r6, #64	; 0x40
 801475c:	f7fd fba2 	bl	8011ea4 <spi_sendrecv>
 8014760:	0e20      	lsrs	r0, r4, #24
 8014762:	f7fd fb9f 	bl	8011ea4 <spi_sendrecv>
 8014766:	f3c4 4007 	ubfx	r0, r4, #16, #8
 801476a:	f7fd fb9b 	bl	8011ea4 <spi_sendrecv>
 801476e:	f3c4 2007 	ubfx	r0, r4, #8, #8
 8014772:	f7fd fb97 	bl	8011ea4 <spi_sendrecv>
 8014776:	b2e0      	uxtb	r0, r4
 8014778:	f7fd fb94 	bl	8011ea4 <spi_sendrecv>
 801477c:	2e08      	cmp	r6, #8
 801477e:	bf0c      	ite	eq
 8014780:	2087      	moveq	r0, #135	; 0x87
 8014782:	2095      	movne	r0, #149	; 0x95
 8014784:	f7fd fb8e 	bl	8011ea4 <spi_sendrecv>
 8014788:	4d14      	ldr	r5, [pc, #80]	; (80147dc <_sd_send_command+0xa8>)
 801478a:	27ff      	movs	r7, #255	; 0xff
 801478c:	4638      	mov	r0, r7
 801478e:	f7fd fb89 	bl	8011ea4 <spi_sendrecv>
 8014792:	4604      	mov	r4, r0
 8014794:	28ff      	cmp	r0, #255	; 0xff
 8014796:	d102      	bne.n	801479e <_sd_send_command+0x6a>
 8014798:	3d01      	subs	r5, #1
 801479a:	d1f7      	bne.n	801478c <_sd_send_command+0x58>
 801479c:	e001      	b.n	80147a2 <_sd_send_command+0x6e>
 801479e:	2e3a      	cmp	r6, #58	; 0x3a
 80147a0:	d004      	beq.n	80147ac <_sd_send_command+0x78>
 80147a2:	20ff      	movs	r0, #255	; 0xff
 80147a4:	f7fd fb7e 	bl	8011ea4 <spi_sendrecv>
 80147a8:	4620      	mov	r0, r4
 80147aa:	bdf8      	pop	{r3, r4, r5, r6, r7, pc}
 80147ac:	2800      	cmp	r0, #0
 80147ae:	d1f8      	bne.n	80147a2 <_sd_send_command+0x6e>
 80147b0:	20ff      	movs	r0, #255	; 0xff
 80147b2:	f7fd fb77 	bl	8011ea4 <spi_sendrecv>
 80147b6:	f3c0 1080 	ubfx	r0, r0, #6, #1
 80147ba:	4a06      	ldr	r2, [pc, #24]	; (80147d4 <_sd_send_command+0xa0>)
 80147bc:	6010      	str	r0, [r2, #0]
 80147be:	20ff      	movs	r0, #255	; 0xff
 80147c0:	f7fd fb70 	bl	8011ea4 <spi_sendrecv>
 80147c4:	20ff      	movs	r0, #255	; 0xff
 80147c6:	f7fd fb6d 	bl	8011ea4 <spi_sendrecv>
 80147ca:	20ff      	movs	r0, #255	; 0xff
 80147cc:	f7fd fb6a 	bl	8011ea4 <spi_sendrecv>
 80147d0:	e7e7      	b.n	80147a2 <_sd_send_command+0x6e>
 80147d2:	bf00      	nop
 80147d4:	20000090 	.word	0x20000090
 80147d8:	00018081 	.word	0x00018081
 80147dc:	000186a0 	.word	0x000186a0

080147e0 <wait_ready>:
 80147e0:	b570      	push	{r4, r5, r6, lr}
 80147e2:	b082      	sub	sp, #8
 80147e4:	f241 3488 	movw	r4, #5000	; 0x1388
 80147e8:	25ff      	movs	r5, #255	; 0xff
 80147ea:	26c8      	movs	r6, #200	; 0xc8
 80147ec:	e002      	b.n	80147f4 <wait_ready+0x14>
 80147ee:	3c01      	subs	r4, #1
 80147f0:	b2a4      	uxth	r4, r4
 80147f2:	b17c      	cbz	r4, 8014814 <wait_ready+0x34>
 80147f4:	4628      	mov	r0, r5
 80147f6:	f7fd fb39 	bl	8011e6c <transfer>
 80147fa:	28ff      	cmp	r0, #255	; 0xff
 80147fc:	d00a      	beq.n	8014814 <wait_ready+0x34>
 80147fe:	9601      	str	r6, [sp, #4]
 8014800:	9b01      	ldr	r3, [sp, #4]
 8014802:	2b00      	cmp	r3, #0
 8014804:	ddf3      	ble.n	80147ee <wait_ready+0xe>
 8014806:	9b01      	ldr	r3, [sp, #4]
 8014808:	3b01      	subs	r3, #1
 801480a:	9301      	str	r3, [sp, #4]
 801480c:	9b01      	ldr	r3, [sp, #4]
 801480e:	2b00      	cmp	r3, #0
 8014810:	dcf9      	bgt.n	8014806 <wait_ready+0x26>
 8014812:	e7ec      	b.n	80147ee <wait_ready+0xe>
 8014814:	1e20      	subs	r0, r4, #0
 8014816:	bf18      	it	ne
 8014818:	2001      	movne	r0, #1
 801481a:	b002      	add	sp, #8
 801481c:	bd70      	pop	{r4, r5, r6, pc}

0801481e <deselect>:
 801481e:	b508      	push	{r3, lr}
 8014820:	2201      	movs	r2, #1
 8014822:	2104      	movs	r1, #4
 8014824:	4803      	ldr	r0, [pc, #12]	; (8014834 <deselect+0x16>)
 8014826:	f7fd fc6b 	bl	8012100 <hw_set_pin>
 801482a:	20ff      	movs	r0, #255	; 0xff
 801482c:	f7fd fb1e 	bl	8011e6c <transfer>
 8014830:	bd08      	pop	{r3, pc}
 8014832:	bf00      	nop
 8014834:	40020000 	.word	0x40020000

08014838 <select>:
 8014838:	b510      	push	{r4, lr}
 801483a:	2200      	movs	r2, #0
 801483c:	2104      	movs	r1, #4
 801483e:	4808      	ldr	r0, [pc, #32]	; (8014860 <select+0x28>)
 8014840:	f7fd fc5e 	bl	8012100 <hw_set_pin>
 8014844:	20ff      	movs	r0, #255	; 0xff
 8014846:	f7fd fb11 	bl	8011e6c <transfer>
 801484a:	f7ff ffc9 	bl	80147e0 <wait_ready>
 801484e:	b110      	cbz	r0, 8014856 <select+0x1e>
 8014850:	2401      	movs	r4, #1
 8014852:	4620      	mov	r0, r4
 8014854:	bd10      	pop	{r4, pc}
 8014856:	4604      	mov	r4, r0
 8014858:	f7ff ffe1 	bl	801481e <deselect>
 801485c:	e7f9      	b.n	8014852 <select+0x1a>
 801485e:	bf00      	nop
 8014860:	40020000 	.word	0x40020000

08014864 <rcvr_datablock>:
 8014864:	e92d 41f0 	stmdb	sp!, {r4, r5, r6, r7, r8, lr}
 8014868:	b082      	sub	sp, #8
 801486a:	4605      	mov	r5, r0
 801486c:	4688      	mov	r8, r1
 801486e:	f44f 64fa 	mov.w	r4, #2000	; 0x7d0
 8014872:	26ff      	movs	r6, #255	; 0xff
 8014874:	27c8      	movs	r7, #200	; 0xc8
 8014876:	e002      	b.n	801487e <rcvr_datablock+0x1a>
 8014878:	3c01      	subs	r4, #1
 801487a:	b2a4      	uxth	r4, r4
 801487c:	b17c      	cbz	r4, 801489e <rcvr_datablock+0x3a>
 801487e:	4630      	mov	r0, r6
 8014880:	f7fd faf4 	bl	8011e6c <transfer>
 8014884:	28ff      	cmp	r0, #255	; 0xff
 8014886:	d10c      	bne.n	80148a2 <rcvr_datablock+0x3e>
 8014888:	9701      	str	r7, [sp, #4]
 801488a:	9b01      	ldr	r3, [sp, #4]
 801488c:	2b00      	cmp	r3, #0
 801488e:	ddf3      	ble.n	8014878 <rcvr_datablock+0x14>
 8014890:	9b01      	ldr	r3, [sp, #4]
 8014892:	3b01      	subs	r3, #1
 8014894:	9301      	str	r3, [sp, #4]
 8014896:	9b01      	ldr	r3, [sp, #4]
 8014898:	2b00      	cmp	r3, #0
 801489a:	dcf9      	bgt.n	8014890 <rcvr_datablock+0x2c>
 801489c:	e7ec      	b.n	8014878 <rcvr_datablock+0x14>
 801489e:	2000      	movs	r0, #0
 80148a0:	e015      	b.n	80148ce <rcvr_datablock+0x6a>
 80148a2:	28fe      	cmp	r0, #254	; 0xfe
 80148a4:	d116      	bne.n	80148d4 <rcvr_datablock+0x70>
 80148a6:	f108 34ff 	add.w	r4, r8, #4294967295	; 0xffffffff
 80148aa:	b2a4      	uxth	r4, r4
 80148ac:	3401      	adds	r4, #1
 80148ae:	442c      	add	r4, r5
 80148b0:	26ff      	movs	r6, #255	; 0xff
 80148b2:	4630      	mov	r0, r6
 80148b4:	f7fd fada 	bl	8011e6c <transfer>
 80148b8:	f805 0b01 	strb.w	r0, [r5], #1
 80148bc:	42a5      	cmp	r5, r4
 80148be:	d1f8      	bne.n	80148b2 <rcvr_datablock+0x4e>
 80148c0:	20ff      	movs	r0, #255	; 0xff
 80148c2:	f7fd fad3 	bl	8011e6c <transfer>
 80148c6:	20ff      	movs	r0, #255	; 0xff
 80148c8:	f7fd fad0 	bl	8011e6c <transfer>
 80148cc:	2001      	movs	r0, #1
 80148ce:	b002      	add	sp, #8
 80148d0:	e8bd 81f0 	ldmia.w	sp!, {r4, r5, r6, r7, r8, pc}
 80148d4:	2000      	movs	r0, #0
 80148d6:	e7fa      	b.n	80148ce <rcvr_datablock+0x6a>

080148d8 <xmit_datablock>:
 80148d8:	b538      	push	{r3, r4, r5, lr}
 80148da:	4604      	mov	r4, r0
 80148dc:	460d      	mov	r5, r1
 80148de:	f7ff ff7f 	bl	80147e0 <wait_ready>
 80148e2:	4603      	mov	r3, r0
 80148e4:	b908      	cbnz	r0, 80148ea <xmit_datablock+0x12>
 80148e6:	4618      	mov	r0, r3
 80148e8:	bd38      	pop	{r3, r4, r5, pc}
 80148ea:	4628      	mov	r0, r5
 80148ec:	f7fd fabe 	bl	8011e6c <transfer>
 80148f0:	2dfd      	cmp	r5, #253	; 0xfd
 80148f2:	d017      	beq.n	8014924 <xmit_datablock+0x4c>
 80148f4:	f504 7500 	add.w	r5, r4, #512	; 0x200
 80148f8:	f814 0b01 	ldrb.w	r0, [r4], #1
 80148fc:	f7fd fab6 	bl	8011e6c <transfer>
 8014900:	42ac      	cmp	r4, r5
 8014902:	d1f9      	bne.n	80148f8 <xmit_datablock+0x20>
 8014904:	20ff      	movs	r0, #255	; 0xff
 8014906:	f7fd fab1 	bl	8011e6c <transfer>
 801490a:	20ff      	movs	r0, #255	; 0xff
 801490c:	f7fd faae 	bl	8011e6c <transfer>
 8014910:	20ff      	movs	r0, #255	; 0xff
 8014912:	f7fd faab 	bl	8011e6c <transfer>
 8014916:	f000 031f 	and.w	r3, r0, #31
 801491a:	2b05      	cmp	r3, #5
 801491c:	bf14      	ite	ne
 801491e:	2300      	movne	r3, #0
 8014920:	2301      	moveq	r3, #1
 8014922:	e7e0      	b.n	80148e6 <xmit_datablock+0xe>
 8014924:	2301      	movs	r3, #1
 8014926:	e7de      	b.n	80148e6 <xmit_datablock+0xe>

08014928 <__send_cmd>:
 8014928:	b538      	push	{r3, r4, r5, lr}
 801492a:	4605      	mov	r5, r0
 801492c:	460c      	mov	r4, r1
 801492e:	280c      	cmp	r0, #12
 8014930:	d029      	beq.n	8014986 <__send_cmd+0x5e>
 8014932:	f7ff ff74 	bl	801481e <deselect>
 8014936:	f7ff ff7f 	bl	8014838 <select>
 801493a:	b310      	cbz	r0, 8014982 <__send_cmd+0x5a>
 801493c:	f045 0040 	orr.w	r0, r5, #64	; 0x40
 8014940:	f7fd fa94 	bl	8011e6c <transfer>
 8014944:	0e20      	lsrs	r0, r4, #24
 8014946:	f7fd fa91 	bl	8011e6c <transfer>
 801494a:	f3c4 4007 	ubfx	r0, r4, #16, #8
 801494e:	f7fd fa8d 	bl	8011e6c <transfer>
 8014952:	f3c4 2007 	ubfx	r0, r4, #8, #8
 8014956:	f7fd fa89 	bl	8011e6c <transfer>
 801495a:	b2e0      	uxtb	r0, r4
 801495c:	f7fd fa86 	bl	8011e6c <transfer>
 8014960:	bb7d      	cbnz	r5, 80149c2 <__send_cmd+0x9a>
 8014962:	2095      	movs	r0, #149	; 0x95
 8014964:	f7fd fa82 	bl	8011e6c <transfer>
 8014968:	240a      	movs	r4, #10
 801496a:	25ff      	movs	r5, #255	; 0xff
 801496c:	4628      	mov	r0, r5
 801496e:	f7fd fa7d 	bl	8011e6c <transfer>
 8014972:	f010 0f80 	tst.w	r0, #128	; 0x80
 8014976:	d003      	beq.n	8014980 <__send_cmd+0x58>
 8014978:	1e63      	subs	r3, r4, #1
 801497a:	f013 04ff 	ands.w	r4, r3, #255	; 0xff
 801497e:	d1f5      	bne.n	801496c <__send_cmd+0x44>
 8014980:	bd38      	pop	{r3, r4, r5, pc}
 8014982:	20ff      	movs	r0, #255	; 0xff
 8014984:	e7fc      	b.n	8014980 <__send_cmd+0x58>
 8014986:	204c      	movs	r0, #76	; 0x4c
 8014988:	f7fd fa70 	bl	8011e6c <transfer>
 801498c:	0e20      	lsrs	r0, r4, #24
 801498e:	f7fd fa6d 	bl	8011e6c <transfer>
 8014992:	f3c4 4007 	ubfx	r0, r4, #16, #8
 8014996:	f7fd fa69 	bl	8011e6c <transfer>
 801499a:	f3c4 2007 	ubfx	r0, r4, #8, #8
 801499e:	f7fd fa65 	bl	8011e6c <transfer>
 80149a2:	b2e0      	uxtb	r0, r4
 80149a4:	f7fd fa62 	bl	8011e6c <transfer>
 80149a8:	2001      	movs	r0, #1
 80149aa:	f7fd fa5f 	bl	8011e6c <transfer>
 80149ae:	2d0c      	cmp	r5, #12
 80149b0:	d1da      	bne.n	8014968 <__send_cmd+0x40>
 80149b2:	20ff      	movs	r0, #255	; 0xff
 80149b4:	f7fd fa5a 	bl	8011e6c <transfer>
 80149b8:	e7d6      	b.n	8014968 <__send_cmd+0x40>
 80149ba:	2001      	movs	r0, #1
 80149bc:	f7fd fa56 	bl	8011e6c <transfer>
 80149c0:	e7d2      	b.n	8014968 <__send_cmd+0x40>
 80149c2:	2d08      	cmp	r5, #8
 80149c4:	d1f9      	bne.n	80149ba <__send_cmd+0x92>
 80149c6:	2087      	movs	r0, #135	; 0x87
 80149c8:	f7fd fa50 	bl	8011e6c <transfer>
 80149cc:	e7cc      	b.n	8014968 <__send_cmd+0x40>

080149ce <send_cmd>:
 80149ce:	b538      	push	{r3, r4, r5, lr}
 80149d0:	4604      	mov	r4, r0
 80149d2:	460d      	mov	r5, r1
 80149d4:	f010 0f80 	tst.w	r0, #128	; 0x80
 80149d8:	d104      	bne.n	80149e4 <send_cmd+0x16>
 80149da:	4629      	mov	r1, r5
 80149dc:	4620      	mov	r0, r4
 80149de:	f7ff ffa3 	bl	8014928 <__send_cmd>
 80149e2:	bd38      	pop	{r3, r4, r5, pc}
 80149e4:	2100      	movs	r1, #0
 80149e6:	2037      	movs	r0, #55	; 0x37
 80149e8:	f7ff ff9e 	bl	8014928 <__send_cmd>
 80149ec:	2801      	cmp	r0, #1
 80149ee:	d8f8      	bhi.n	80149e2 <send_cmd+0x14>
 80149f0:	f004 047f 	and.w	r4, r4, #127	; 0x7f
 80149f4:	e7f1      	b.n	80149da <send_cmd+0xc>

080149f6 <get_fattime>:
 80149f6:	4801      	ldr	r0, [pc, #4]	; (80149fc <get_fattime+0x6>)
 80149f8:	4770      	bx	lr
 80149fa:	bf00      	nop
 80149fc:	431e6800 	.word	0x431e6800

08014a00 <disk_initialize>:
 8014a00:	e92d 43f0 	stmdb	sp!, {r4, r5, r6, r7, r8, r9, lr}
 8014a04:	b085      	sub	sp, #20
 8014a06:	2800      	cmp	r0, #0
 8014a08:	d154      	bne.n	8014ab4 <disk_initialize+0xb4>
 8014a0a:	4b75      	ldr	r3, [pc, #468]	; (8014be0 <disk_initialize+0x1e0>)
 8014a0c:	781b      	ldrb	r3, [r3, #0]
 8014a0e:	f013 0f02 	tst.w	r3, #2
 8014a12:	d154      	bne.n	8014abe <disk_initialize+0xbe>
 8014a14:	f7fd fa1a 	bl	8011e4c <spi_init>
 8014a18:	4a72      	ldr	r2, [pc, #456]	; (8014be4 <disk_initialize+0x1e4>)
 8014a1a:	6b13      	ldr	r3, [r2, #48]	; 0x30
 8014a1c:	f043 0301 	orr.w	r3, r3, #1
 8014a20:	6313      	str	r3, [r2, #48]	; 0x30
 8014a22:	4c71      	ldr	r4, [pc, #452]	; (8014be8 <disk_initialize+0x1e8>)
 8014a24:	f240 32a5 	movw	r2, #933	; 0x3a5
 8014a28:	2105      	movs	r1, #5
 8014a2a:	4620      	mov	r0, r4
 8014a2c:	f7fd fb22 	bl	8012074 <hw_cfg_pin>
 8014a30:	f240 32a5 	movw	r2, #933	; 0x3a5
 8014a34:	2106      	movs	r1, #6
 8014a36:	4620      	mov	r0, r4
 8014a38:	f7fd fb1c 	bl	8012074 <hw_cfg_pin>
 8014a3c:	f240 32a5 	movw	r2, #933	; 0x3a5
 8014a40:	2107      	movs	r1, #7
 8014a42:	4620      	mov	r0, r4
 8014a44:	f7fd fb16 	bl	8012074 <hw_cfg_pin>
 8014a48:	f44f 7264 	mov.w	r2, #912	; 0x390
 8014a4c:	2104      	movs	r1, #4
 8014a4e:	4620      	mov	r0, r4
 8014a50:	f7fd fb10 	bl	8012074 <hw_cfg_pin>
 8014a54:	2201      	movs	r2, #1
 8014a56:	2104      	movs	r1, #4
 8014a58:	4620      	mov	r0, r4
 8014a5a:	f7fd fb51 	bl	8012100 <hw_set_pin>
 8014a5e:	f7ff feeb 	bl	8014838 <select>
 8014a62:	23c8      	movs	r3, #200	; 0xc8
 8014a64:	9300      	str	r3, [sp, #0]
 8014a66:	9b00      	ldr	r3, [sp, #0]
 8014a68:	2b00      	cmp	r3, #0
 8014a6a:	dd05      	ble.n	8014a78 <disk_initialize+0x78>
 8014a6c:	9b00      	ldr	r3, [sp, #0]
 8014a6e:	3b01      	subs	r3, #1
 8014a70:	9300      	str	r3, [sp, #0]
 8014a72:	9b00      	ldr	r3, [sp, #0]
 8014a74:	2b00      	cmp	r3, #0
 8014a76:	dcf9      	bgt.n	8014a6c <disk_initialize+0x6c>
 8014a78:	240a      	movs	r4, #10
 8014a7a:	25ff      	movs	r5, #255	; 0xff
 8014a7c:	4628      	mov	r0, r5
 8014a7e:	f7fd f9f5 	bl	8011e6c <transfer>
 8014a82:	1e63      	subs	r3, r4, #1
 8014a84:	f013 04ff 	ands.w	r4, r3, #255	; 0xff
 8014a88:	d1f8      	bne.n	8014a7c <disk_initialize+0x7c>
 8014a8a:	2100      	movs	r1, #0
 8014a8c:	4608      	mov	r0, r1
 8014a8e:	f7ff ff9e 	bl	80149ce <send_cmd>
 8014a92:	4605      	mov	r5, r0
 8014a94:	2801      	cmp	r0, #1
 8014a96:	d018      	beq.n	8014aca <disk_initialize+0xca>
 8014a98:	4b54      	ldr	r3, [pc, #336]	; (8014bec <disk_initialize+0x1ec>)
 8014a9a:	2200      	movs	r2, #0
 8014a9c:	701a      	strb	r2, [r3, #0]
 8014a9e:	f7ff febe 	bl	801481e <deselect>
 8014aa2:	4b53      	ldr	r3, [pc, #332]	; (8014bf0 <disk_initialize+0x1f0>)
 8014aa4:	f44f 7253 	mov.w	r2, #844	; 0x34c
 8014aa8:	601a      	str	r2, [r3, #0]
 8014aaa:	4b4d      	ldr	r3, [pc, #308]	; (8014be0 <disk_initialize+0x1e0>)
 8014aac:	7818      	ldrb	r0, [r3, #0]
 8014aae:	b005      	add	sp, #20
 8014ab0:	e8bd 83f0 	ldmia.w	sp!, {r4, r5, r6, r7, r8, r9, pc}
 8014ab4:	484f      	ldr	r0, [pc, #316]	; (8014bf4 <disk_initialize+0x1f4>)
 8014ab6:	f7fc fa31 	bl	8010f1c <kprintf>
 8014aba:	2001      	movs	r0, #1
 8014abc:	e7f7      	b.n	8014aae <disk_initialize+0xae>
 8014abe:	484d      	ldr	r0, [pc, #308]	; (8014bf4 <disk_initialize+0x1f4>)
 8014ac0:	f7fc fa2c 	bl	8010f1c <kprintf>
 8014ac4:	4b46      	ldr	r3, [pc, #280]	; (8014be0 <disk_initialize+0x1e0>)
 8014ac6:	7818      	ldrb	r0, [r3, #0]
 8014ac8:	e7f1      	b.n	8014aae <disk_initialize+0xae>
 8014aca:	f44f 71d5 	mov.w	r1, #426	; 0x1aa
 8014ace:	2008      	movs	r0, #8
 8014ad0:	f7ff ff7d 	bl	80149ce <send_cmd>
 8014ad4:	2801      	cmp	r0, #1
 8014ad6:	d149      	bne.n	8014b6c <disk_initialize+0x16c>
 8014ad8:	ae03      	add	r6, sp, #12
 8014ada:	ad04      	add	r5, sp, #16
 8014adc:	4634      	mov	r4, r6
 8014ade:	27ff      	movs	r7, #255	; 0xff
 8014ae0:	4638      	mov	r0, r7
 8014ae2:	f7fd f9c3 	bl	8011e6c <transfer>
 8014ae6:	f804 0b01 	strb.w	r0, [r4], #1
 8014aea:	42a5      	cmp	r5, r4
 8014aec:	d1f8      	bne.n	8014ae0 <disk_initialize+0xe0>
 8014aee:	f89d 300e 	ldrb.w	r3, [sp, #14]
 8014af2:	2b01      	cmp	r3, #1
 8014af4:	d1d0      	bne.n	8014a98 <disk_initialize+0x98>
 8014af6:	f89d 300f 	ldrb.w	r3, [sp, #15]
 8014afa:	2baa      	cmp	r3, #170	; 0xaa
 8014afc:	d1cc      	bne.n	8014a98 <disk_initialize+0x98>
 8014afe:	f44f 747a 	mov.w	r4, #1000	; 0x3e8
 8014b02:	f04f 4880 	mov.w	r8, #1073741824	; 0x40000000
 8014b06:	27a9      	movs	r7, #169	; 0xa9
 8014b08:	f04f 0914 	mov.w	r9, #20
 8014b0c:	e003      	b.n	8014b16 <disk_initialize+0x116>
 8014b0e:	3c01      	subs	r4, #1
 8014b10:	b2a4      	uxth	r4, r4
 8014b12:	2c00      	cmp	r4, #0
 8014b14:	d0c0      	beq.n	8014a98 <disk_initialize+0x98>
 8014b16:	4641      	mov	r1, r8
 8014b18:	4638      	mov	r0, r7
 8014b1a:	f7ff ff58 	bl	80149ce <send_cmd>
 8014b1e:	b158      	cbz	r0, 8014b38 <disk_initialize+0x138>
 8014b20:	f8cd 9004 	str.w	r9, [sp, #4]
 8014b24:	9b01      	ldr	r3, [sp, #4]
 8014b26:	2b00      	cmp	r3, #0
 8014b28:	ddf1      	ble.n	8014b0e <disk_initialize+0x10e>
 8014b2a:	9b01      	ldr	r3, [sp, #4]
 8014b2c:	3b01      	subs	r3, #1
 8014b2e:	9301      	str	r3, [sp, #4]
 8014b30:	9b01      	ldr	r3, [sp, #4]
 8014b32:	2b00      	cmp	r3, #0
 8014b34:	dcf9      	bgt.n	8014b2a <disk_initialize+0x12a>
 8014b36:	e7ea      	b.n	8014b0e <disk_initialize+0x10e>
 8014b38:	2c00      	cmp	r4, #0
 8014b3a:	d0ad      	beq.n	8014a98 <disk_initialize+0x98>
 8014b3c:	2100      	movs	r1, #0
 8014b3e:	203a      	movs	r0, #58	; 0x3a
 8014b40:	f7ff ff45 	bl	80149ce <send_cmd>
 8014b44:	2800      	cmp	r0, #0
 8014b46:	d1a7      	bne.n	8014a98 <disk_initialize+0x98>
 8014b48:	24ff      	movs	r4, #255	; 0xff
 8014b4a:	4620      	mov	r0, r4
 8014b4c:	f7fd f98e 	bl	8011e6c <transfer>
 8014b50:	f806 0b01 	strb.w	r0, [r6], #1
 8014b54:	42b5      	cmp	r5, r6
 8014b56:	d1f8      	bne.n	8014b4a <disk_initialize+0x14a>
 8014b58:	f89d 300c 	ldrb.w	r3, [sp, #12]
 8014b5c:	f013 0f40 	tst.w	r3, #64	; 0x40
 8014b60:	bf14      	ite	ne
 8014b62:	f04f 080c 	movne.w	r8, #12
 8014b66:	f04f 0804 	moveq.w	r8, #4
 8014b6a:	e02d      	b.n	8014bc8 <disk_initialize+0x1c8>
 8014b6c:	2100      	movs	r1, #0
 8014b6e:	20a9      	movs	r0, #169	; 0xa9
 8014b70:	f7ff ff2d 	bl	80149ce <send_cmd>
 8014b74:	2802      	cmp	r0, #2
 8014b76:	bf2e      	itee	cs
 8014b78:	46a8      	movcs	r8, r5
 8014b7a:	f04f 0802 	movcc.w	r8, #2
 8014b7e:	25a9      	movcc	r5, #169	; 0xa9
 8014b80:	f44f 747a 	mov.w	r4, #1000	; 0x3e8
 8014b84:	2600      	movs	r6, #0
 8014b86:	2714      	movs	r7, #20
 8014b88:	e003      	b.n	8014b92 <disk_initialize+0x192>
 8014b8a:	3c01      	subs	r4, #1
 8014b8c:	b2a4      	uxth	r4, r4
 8014b8e:	2c00      	cmp	r4, #0
 8014b90:	d082      	beq.n	8014a98 <disk_initialize+0x98>
 8014b92:	4631      	mov	r1, r6
 8014b94:	4628      	mov	r0, r5
 8014b96:	f7ff ff1a 	bl	80149ce <send_cmd>
 8014b9a:	b150      	cbz	r0, 8014bb2 <disk_initialize+0x1b2>
 8014b9c:	9702      	str	r7, [sp, #8]
 8014b9e:	9b02      	ldr	r3, [sp, #8]
 8014ba0:	2b00      	cmp	r3, #0
 8014ba2:	ddf2      	ble.n	8014b8a <disk_initialize+0x18a>
 8014ba4:	9b02      	ldr	r3, [sp, #8]
 8014ba6:	3b01      	subs	r3, #1
 8014ba8:	9302      	str	r3, [sp, #8]
 8014baa:	9b02      	ldr	r3, [sp, #8]
 8014bac:	2b00      	cmp	r3, #0
 8014bae:	dcf9      	bgt.n	8014ba4 <disk_initialize+0x1a4>
 8014bb0:	e7eb      	b.n	8014b8a <disk_initialize+0x18a>
 8014bb2:	2c00      	cmp	r4, #0
 8014bb4:	f43f af70 	beq.w	8014a98 <disk_initialize+0x98>
 8014bb8:	f44f 7100 	mov.w	r1, #512	; 0x200
 8014bbc:	2010      	movs	r0, #16
 8014bbe:	f7ff ff06 	bl	80149ce <send_cmd>
 8014bc2:	2800      	cmp	r0, #0
 8014bc4:	f47f af68 	bne.w	8014a98 <disk_initialize+0x98>
 8014bc8:	4b08      	ldr	r3, [pc, #32]	; (8014bec <disk_initialize+0x1ec>)
 8014bca:	f883 8000 	strb.w	r8, [r3]
 8014bce:	f7ff fe26 	bl	801481e <deselect>
 8014bd2:	4a03      	ldr	r2, [pc, #12]	; (8014be0 <disk_initialize+0x1e0>)
 8014bd4:	7813      	ldrb	r3, [r2, #0]
 8014bd6:	f023 0301 	bic.w	r3, r3, #1
 8014bda:	7013      	strb	r3, [r2, #0]
 8014bdc:	e761      	b.n	8014aa2 <disk_initialize+0xa2>
 8014bde:	bf00      	nop
 8014be0:	20000004 	.word	0x20000004
 8014be4:	40023800 	.word	0x40023800
 8014be8:	40020000 	.word	0x40020000
 8014bec:	200010d4 	.word	0x200010d4
 8014bf0:	40013000 	.word	0x40013000
 8014bf4:	08019770 	.word	0x08019770

08014bf8 <disk_status>:
 8014bf8:	b910      	cbnz	r0, 8014c00 <disk_status+0x8>
 8014bfa:	4b02      	ldr	r3, [pc, #8]	; (8014c04 <disk_status+0xc>)
 8014bfc:	7818      	ldrb	r0, [r3, #0]
 8014bfe:	4770      	bx	lr
 8014c00:	2001      	movs	r0, #1
 8014c02:	4770      	bx	lr
 8014c04:	20000004 	.word	0x20000004

08014c08 <disk_read>:
 8014c08:	2800      	cmp	r0, #0
 8014c0a:	d13a      	bne.n	8014c82 <disk_read+0x7a>
 8014c0c:	b570      	push	{r4, r5, r6, lr}
 8014c0e:	460d      	mov	r5, r1
 8014c10:	461c      	mov	r4, r3
 8014c12:	2b00      	cmp	r3, #0
 8014c14:	d037      	beq.n	8014c86 <disk_read+0x7e>
 8014c16:	4b1e      	ldr	r3, [pc, #120]	; (8014c90 <disk_read+0x88>)
 8014c18:	781b      	ldrb	r3, [r3, #0]
 8014c1a:	f013 0f01 	tst.w	r3, #1
 8014c1e:	d134      	bne.n	8014c8a <disk_read+0x82>
 8014c20:	4b1c      	ldr	r3, [pc, #112]	; (8014c94 <disk_read+0x8c>)
 8014c22:	781b      	ldrb	r3, [r3, #0]
 8014c24:	f013 0f08 	tst.w	r3, #8
 8014c28:	bf08      	it	eq
 8014c2a:	0252      	lsleq	r2, r2, #9
 8014c2c:	2c01      	cmp	r4, #1
 8014c2e:	d019      	beq.n	8014c64 <disk_read+0x5c>
 8014c30:	4611      	mov	r1, r2
 8014c32:	2012      	movs	r0, #18
 8014c34:	f7ff fecb 	bl	80149ce <send_cmd>
 8014c38:	b970      	cbnz	r0, 8014c58 <disk_read+0x50>
 8014c3a:	f44f 7600 	mov.w	r6, #512	; 0x200
 8014c3e:	4631      	mov	r1, r6
 8014c40:	4628      	mov	r0, r5
 8014c42:	f7ff fe0f 	bl	8014864 <rcvr_datablock>
 8014c46:	b118      	cbz	r0, 8014c50 <disk_read+0x48>
 8014c48:	f505 7500 	add.w	r5, r5, #512	; 0x200
 8014c4c:	3c01      	subs	r4, #1
 8014c4e:	d1f6      	bne.n	8014c3e <disk_read+0x36>
 8014c50:	2100      	movs	r1, #0
 8014c52:	200c      	movs	r0, #12
 8014c54:	f7ff febb 	bl	80149ce <send_cmd>
 8014c58:	f7ff fde1 	bl	801481e <deselect>
 8014c5c:	1e20      	subs	r0, r4, #0
 8014c5e:	bf18      	it	ne
 8014c60:	2001      	movne	r0, #1
 8014c62:	bd70      	pop	{r4, r5, r6, pc}
 8014c64:	4611      	mov	r1, r2
 8014c66:	2011      	movs	r0, #17
 8014c68:	f7ff feb1 	bl	80149ce <send_cmd>
 8014c6c:	2800      	cmp	r0, #0
 8014c6e:	d1f3      	bne.n	8014c58 <disk_read+0x50>
 8014c70:	f44f 7100 	mov.w	r1, #512	; 0x200
 8014c74:	4628      	mov	r0, r5
 8014c76:	f7ff fdf5 	bl	8014864 <rcvr_datablock>
 8014c7a:	fab0 f480 	clz	r4, r0
 8014c7e:	0964      	lsrs	r4, r4, #5
 8014c80:	e7ea      	b.n	8014c58 <disk_read+0x50>
 8014c82:	2004      	movs	r0, #4
 8014c84:	4770      	bx	lr
 8014c86:	2004      	movs	r0, #4
 8014c88:	e7eb      	b.n	8014c62 <disk_read+0x5a>
 8014c8a:	2003      	movs	r0, #3
 8014c8c:	e7e9      	b.n	8014c62 <disk_read+0x5a>
 8014c8e:	bf00      	nop
 8014c90:	20000004 	.word	0x20000004
 8014c94:	200010d4 	.word	0x200010d4

08014c98 <disk_write>:
 8014c98:	2800      	cmp	r0, #0
 8014c9a:	d147      	bne.n	8014d2c <disk_write+0x94>
 8014c9c:	b570      	push	{r4, r5, r6, lr}
 8014c9e:	460d      	mov	r5, r1
 8014ca0:	4616      	mov	r6, r2
 8014ca2:	461c      	mov	r4, r3
 8014ca4:	2b00      	cmp	r3, #0
 8014ca6:	d043      	beq.n	8014d30 <disk_write+0x98>
 8014ca8:	4b24      	ldr	r3, [pc, #144]	; (8014d3c <disk_write+0xa4>)
 8014caa:	781b      	ldrb	r3, [r3, #0]
 8014cac:	f013 0f01 	tst.w	r3, #1
 8014cb0:	d140      	bne.n	8014d34 <disk_write+0x9c>
 8014cb2:	f013 0f04 	tst.w	r3, #4
 8014cb6:	d13f      	bne.n	8014d38 <disk_write+0xa0>
 8014cb8:	4b21      	ldr	r3, [pc, #132]	; (8014d40 <disk_write+0xa8>)
 8014cba:	781b      	ldrb	r3, [r3, #0]
 8014cbc:	f013 0f08 	tst.w	r3, #8
 8014cc0:	bf08      	it	eq
 8014cc2:	0256      	lsleq	r6, r2, #9
 8014cc4:	2c01      	cmp	r4, #1
 8014cc6:	d01e      	beq.n	8014d06 <disk_write+0x6e>
 8014cc8:	f013 0f06 	tst.w	r3, #6
 8014ccc:	d129      	bne.n	8014d22 <disk_write+0x8a>
 8014cce:	4631      	mov	r1, r6
 8014cd0:	2019      	movs	r0, #25
 8014cd2:	f7ff fe7c 	bl	80149ce <send_cmd>
 8014cd6:	b980      	cbnz	r0, 8014cfa <disk_write+0x62>
 8014cd8:	26fc      	movs	r6, #252	; 0xfc
 8014cda:	4631      	mov	r1, r6
 8014cdc:	4628      	mov	r0, r5
 8014cde:	f7ff fdfb 	bl	80148d8 <xmit_datablock>
 8014ce2:	b118      	cbz	r0, 8014cec <disk_write+0x54>
 8014ce4:	f505 7500 	add.w	r5, r5, #512	; 0x200
 8014ce8:	3c01      	subs	r4, #1
 8014cea:	d1f6      	bne.n	8014cda <disk_write+0x42>
 8014cec:	21fd      	movs	r1, #253	; 0xfd
 8014cee:	2000      	movs	r0, #0
 8014cf0:	f7ff fdf2 	bl	80148d8 <xmit_datablock>
 8014cf4:	2800      	cmp	r0, #0
 8014cf6:	bf08      	it	eq
 8014cf8:	2401      	moveq	r4, #1
 8014cfa:	f7ff fd90 	bl	801481e <deselect>
 8014cfe:	1e20      	subs	r0, r4, #0
 8014d00:	bf18      	it	ne
 8014d02:	2001      	movne	r0, #1
 8014d04:	bd70      	pop	{r4, r5, r6, pc}
 8014d06:	4631      	mov	r1, r6
 8014d08:	2018      	movs	r0, #24
 8014d0a:	f7ff fe60 	bl	80149ce <send_cmd>
 8014d0e:	2800      	cmp	r0, #0
 8014d10:	d1f3      	bne.n	8014cfa <disk_write+0x62>
 8014d12:	21fe      	movs	r1, #254	; 0xfe
 8014d14:	4628      	mov	r0, r5
 8014d16:	f7ff fddf 	bl	80148d8 <xmit_datablock>
 8014d1a:	fab0 f480 	clz	r4, r0
 8014d1e:	0964      	lsrs	r4, r4, #5
 8014d20:	e7eb      	b.n	8014cfa <disk_write+0x62>
 8014d22:	4621      	mov	r1, r4
 8014d24:	2097      	movs	r0, #151	; 0x97
 8014d26:	f7ff fe52 	bl	80149ce <send_cmd>
 8014d2a:	e7d0      	b.n	8014cce <disk_write+0x36>
 8014d2c:	2004      	movs	r0, #4
 8014d2e:	4770      	bx	lr
 8014d30:	2004      	movs	r0, #4
 8014d32:	e7e7      	b.n	8014d04 <disk_write+0x6c>
 8014d34:	2003      	movs	r0, #3
 8014d36:	e7e5      	b.n	8014d04 <disk_write+0x6c>
 8014d38:	2002      	movs	r0, #2
 8014d3a:	e7e3      	b.n	8014d04 <disk_write+0x6c>
 8014d3c:	20000004 	.word	0x20000004
 8014d40:	200010d4 	.word	0x200010d4

08014d44 <disk_ioctl>:
 8014d44:	b570      	push	{r4, r5, r6, lr}
 8014d46:	b084      	sub	sp, #16
 8014d48:	2800      	cmp	r0, #0
 8014d4a:	f040 80fe 	bne.w	8014f4a <disk_ioctl+0x206>
 8014d4e:	460d      	mov	r5, r1
 8014d50:	4616      	mov	r6, r2
 8014d52:	4b80      	ldr	r3, [pc, #512]	; (8014f54 <disk_ioctl+0x210>)
 8014d54:	781b      	ldrb	r3, [r3, #0]
 8014d56:	f013 0f01 	tst.w	r3, #1
 8014d5a:	f040 80f8 	bne.w	8014f4e <disk_ioctl+0x20a>
 8014d5e:	2904      	cmp	r1, #4
 8014d60:	f200 80e7 	bhi.w	8014f32 <disk_ioctl+0x1ee>
 8014d64:	e8df f001 	tbb	[pc, r1]
 8014d68:	51e50d03 	.word	0x51e50d03
 8014d6c:	ac          	.byte	0xac
 8014d6d:	00          	.byte	0x00
 8014d6e:	f7ff fd63 	bl	8014838 <select>
 8014d72:	fab0 f480 	clz	r4, r0
 8014d76:	0964      	lsrs	r4, r4, #5
 8014d78:	f7ff fd51 	bl	801481e <deselect>
 8014d7c:	4620      	mov	r0, r4
 8014d7e:	b004      	add	sp, #16
 8014d80:	bd70      	pop	{r4, r5, r6, pc}
 8014d82:	2100      	movs	r1, #0
 8014d84:	2009      	movs	r0, #9
 8014d86:	f7ff fe22 	bl	80149ce <send_cmd>
 8014d8a:	4604      	mov	r4, r0
 8014d8c:	b108      	cbz	r0, 8014d92 <disk_ioctl+0x4e>
 8014d8e:	462c      	mov	r4, r5
 8014d90:	e7f2      	b.n	8014d78 <disk_ioctl+0x34>
 8014d92:	2110      	movs	r1, #16
 8014d94:	4668      	mov	r0, sp
 8014d96:	f7ff fd65 	bl	8014864 <rcvr_datablock>
 8014d9a:	2800      	cmp	r0, #0
 8014d9c:	f000 80cb 	beq.w	8014f36 <disk_ioctl+0x1f2>
 8014da0:	f89d 3000 	ldrb.w	r3, [sp]
 8014da4:	099b      	lsrs	r3, r3, #6
 8014da6:	2b01      	cmp	r3, #1
 8014da8:	d01f      	beq.n	8014dea <disk_ioctl+0xa6>
 8014daa:	f89d 2008 	ldrb.w	r2, [sp, #8]
 8014dae:	f89d 3007 	ldrb.w	r3, [sp, #7]
 8014db2:	009b      	lsls	r3, r3, #2
 8014db4:	eb03 1392 	add.w	r3, r3, r2, lsr #6
 8014db8:	f89d 2006 	ldrb.w	r2, [sp, #6]
 8014dbc:	0292      	lsls	r2, r2, #10
 8014dbe:	f402 6240 	and.w	r2, r2, #3072	; 0xc00
 8014dc2:	4413      	add	r3, r2
 8014dc4:	3301      	adds	r3, #1
 8014dc6:	f89d 2005 	ldrb.w	r2, [sp, #5]
 8014dca:	f002 020f 	and.w	r2, r2, #15
 8014dce:	f89d 100a 	ldrb.w	r1, [sp, #10]
 8014dd2:	eb02 12d1 	add.w	r2, r2, r1, lsr #7
 8014dd6:	f89d 1009 	ldrb.w	r1, [sp, #9]
 8014dda:	0049      	lsls	r1, r1, #1
 8014ddc:	f001 0106 	and.w	r1, r1, #6
 8014de0:	440a      	add	r2, r1
 8014de2:	3a07      	subs	r2, #7
 8014de4:	4093      	lsls	r3, r2
 8014de6:	6033      	str	r3, [r6, #0]
 8014de8:	e7c6      	b.n	8014d78 <disk_ioctl+0x34>
 8014dea:	f89d 2008 	ldrb.w	r2, [sp, #8]
 8014dee:	f89d 3009 	ldrb.w	r3, [sp, #9]
 8014df2:	eb03 2302 	add.w	r3, r3, r2, lsl #8
 8014df6:	f89d 2007 	ldrb.w	r2, [sp, #7]
 8014dfa:	0412      	lsls	r2, r2, #16
 8014dfc:	f402 127c 	and.w	r2, r2, #4128768	; 0x3f0000
 8014e00:	3201      	adds	r2, #1
 8014e02:	4413      	add	r3, r2
 8014e04:	029b      	lsls	r3, r3, #10
 8014e06:	6033      	str	r3, [r6, #0]
 8014e08:	e7b6      	b.n	8014d78 <disk_ioctl+0x34>
 8014e0a:	4b53      	ldr	r3, [pc, #332]	; (8014f58 <disk_ioctl+0x214>)
 8014e0c:	781b      	ldrb	r3, [r3, #0]
 8014e0e:	f013 0f04 	tst.w	r3, #4
 8014e12:	d020      	beq.n	8014e56 <disk_ioctl+0x112>
 8014e14:	2100      	movs	r1, #0
 8014e16:	208d      	movs	r0, #141	; 0x8d
 8014e18:	f7ff fdd9 	bl	80149ce <send_cmd>
 8014e1c:	b108      	cbz	r0, 8014e22 <disk_ioctl+0xde>
 8014e1e:	2401      	movs	r4, #1
 8014e20:	e7aa      	b.n	8014d78 <disk_ioctl+0x34>
 8014e22:	20ff      	movs	r0, #255	; 0xff
 8014e24:	f7fd f822 	bl	8011e6c <transfer>
 8014e28:	2110      	movs	r1, #16
 8014e2a:	4668      	mov	r0, sp
 8014e2c:	f7ff fd1a 	bl	8014864 <rcvr_datablock>
 8014e30:	2800      	cmp	r0, #0
 8014e32:	f000 8082 	beq.w	8014f3a <disk_ioctl+0x1f6>
 8014e36:	2430      	movs	r4, #48	; 0x30
 8014e38:	25ff      	movs	r5, #255	; 0xff
 8014e3a:	4628      	mov	r0, r5
 8014e3c:	f7fd f816 	bl	8011e6c <transfer>
 8014e40:	3c01      	subs	r4, #1
 8014e42:	f014 04ff 	ands.w	r4, r4, #255	; 0xff
 8014e46:	d1f8      	bne.n	8014e3a <disk_ioctl+0xf6>
 8014e48:	f89d 300a 	ldrb.w	r3, [sp, #10]
 8014e4c:	091a      	lsrs	r2, r3, #4
 8014e4e:	2310      	movs	r3, #16
 8014e50:	4093      	lsls	r3, r2
 8014e52:	6033      	str	r3, [r6, #0]
 8014e54:	e790      	b.n	8014d78 <disk_ioctl+0x34>
 8014e56:	2100      	movs	r1, #0
 8014e58:	2009      	movs	r0, #9
 8014e5a:	f7ff fdb8 	bl	80149ce <send_cmd>
 8014e5e:	4604      	mov	r4, r0
 8014e60:	b108      	cbz	r0, 8014e66 <disk_ioctl+0x122>
 8014e62:	2401      	movs	r4, #1
 8014e64:	e788      	b.n	8014d78 <disk_ioctl+0x34>
 8014e66:	2110      	movs	r1, #16
 8014e68:	4668      	mov	r0, sp
 8014e6a:	f7ff fcfb 	bl	8014864 <rcvr_datablock>
 8014e6e:	2800      	cmp	r0, #0
 8014e70:	d065      	beq.n	8014f3e <disk_ioctl+0x1fa>
 8014e72:	4b39      	ldr	r3, [pc, #228]	; (8014f58 <disk_ioctl+0x214>)
 8014e74:	781b      	ldrb	r3, [r3, #0]
 8014e76:	f013 0302 	ands.w	r3, r3, #2
 8014e7a:	d010      	beq.n	8014e9e <disk_ioctl+0x15a>
 8014e7c:	f89d 300a 	ldrb.w	r3, [sp, #10]
 8014e80:	005b      	lsls	r3, r3, #1
 8014e82:	f003 037e 	and.w	r3, r3, #126	; 0x7e
 8014e86:	f89d 200b 	ldrb.w	r2, [sp, #11]
 8014e8a:	eb03 13d2 	add.w	r3, r3, r2, lsr #7
 8014e8e:	3301      	adds	r3, #1
 8014e90:	f89d 200d 	ldrb.w	r2, [sp, #13]
 8014e94:	0992      	lsrs	r2, r2, #6
 8014e96:	3a01      	subs	r2, #1
 8014e98:	4093      	lsls	r3, r2
 8014e9a:	6033      	str	r3, [r6, #0]
 8014e9c:	e76c      	b.n	8014d78 <disk_ioctl+0x34>
 8014e9e:	f89d 100b 	ldrb.w	r1, [sp, #11]
 8014ea2:	00ca      	lsls	r2, r1, #3
 8014ea4:	f002 0218 	and.w	r2, r2, #24
 8014ea8:	eb02 1151 	add.w	r1, r2, r1, lsr #5
 8014eac:	f89d 200a 	ldrb.w	r2, [sp, #10]
 8014eb0:	f3c2 0284 	ubfx	r2, r2, #2, #5
 8014eb4:	3201      	adds	r2, #1
 8014eb6:	fb01 2202 	mla	r2, r1, r2, r2
 8014eba:	6032      	str	r2, [r6, #0]
 8014ebc:	461c      	mov	r4, r3
 8014ebe:	e75b      	b.n	8014d78 <disk_ioctl+0x34>
 8014ec0:	4b25      	ldr	r3, [pc, #148]	; (8014f58 <disk_ioctl+0x214>)
 8014ec2:	781b      	ldrb	r3, [r3, #0]
 8014ec4:	f013 0f06 	tst.w	r3, #6
 8014ec8:	d101      	bne.n	8014ece <disk_ioctl+0x18a>
 8014eca:	2401      	movs	r4, #1
 8014ecc:	e754      	b.n	8014d78 <disk_ioctl+0x34>
 8014ece:	466a      	mov	r2, sp
 8014ed0:	210b      	movs	r1, #11
 8014ed2:	2000      	movs	r0, #0
 8014ed4:	f7ff ff36 	bl	8014d44 <disk_ioctl>
 8014ed8:	bb98      	cbnz	r0, 8014f42 <disk_ioctl+0x1fe>
 8014eda:	f89d 2000 	ldrb.w	r2, [sp]
 8014ede:	f89d 300a 	ldrb.w	r3, [sp, #10]
 8014ee2:	f003 0340 	and.w	r3, r3, #64	; 0x40
 8014ee6:	ea53 1392 	orrs.w	r3, r3, r2, lsr #6
 8014eea:	d02c      	beq.n	8014f46 <disk_ioctl+0x202>
 8014eec:	6831      	ldr	r1, [r6, #0]
 8014eee:	6874      	ldr	r4, [r6, #4]
 8014ef0:	4b19      	ldr	r3, [pc, #100]	; (8014f58 <disk_ioctl+0x214>)
 8014ef2:	781b      	ldrb	r3, [r3, #0]
 8014ef4:	f013 0f08 	tst.w	r3, #8
 8014ef8:	bf04      	itt	eq
 8014efa:	0249      	lsleq	r1, r1, #9
 8014efc:	0264      	lsleq	r4, r4, #9
 8014efe:	2020      	movs	r0, #32
 8014f00:	f7ff fd65 	bl	80149ce <send_cmd>
 8014f04:	b108      	cbz	r0, 8014f0a <disk_ioctl+0x1c6>
 8014f06:	2401      	movs	r4, #1
 8014f08:	e736      	b.n	8014d78 <disk_ioctl+0x34>
 8014f0a:	4621      	mov	r1, r4
 8014f0c:	2021      	movs	r0, #33	; 0x21
 8014f0e:	f7ff fd5e 	bl	80149ce <send_cmd>
 8014f12:	b108      	cbz	r0, 8014f18 <disk_ioctl+0x1d4>
 8014f14:	2401      	movs	r4, #1
 8014f16:	e72f      	b.n	8014d78 <disk_ioctl+0x34>
 8014f18:	2100      	movs	r1, #0
 8014f1a:	2026      	movs	r0, #38	; 0x26
 8014f1c:	f7ff fd57 	bl	80149ce <send_cmd>
 8014f20:	b108      	cbz	r0, 8014f26 <disk_ioctl+0x1e2>
 8014f22:	2401      	movs	r4, #1
 8014f24:	e728      	b.n	8014d78 <disk_ioctl+0x34>
 8014f26:	f7ff fc5b 	bl	80147e0 <wait_ready>
 8014f2a:	fab0 f480 	clz	r4, r0
 8014f2e:	0964      	lsrs	r4, r4, #5
 8014f30:	e722      	b.n	8014d78 <disk_ioctl+0x34>
 8014f32:	2404      	movs	r4, #4
 8014f34:	e720      	b.n	8014d78 <disk_ioctl+0x34>
 8014f36:	462c      	mov	r4, r5
 8014f38:	e71e      	b.n	8014d78 <disk_ioctl+0x34>
 8014f3a:	2401      	movs	r4, #1
 8014f3c:	e71c      	b.n	8014d78 <disk_ioctl+0x34>
 8014f3e:	2401      	movs	r4, #1
 8014f40:	e71a      	b.n	8014d78 <disk_ioctl+0x34>
 8014f42:	2401      	movs	r4, #1
 8014f44:	e718      	b.n	8014d78 <disk_ioctl+0x34>
 8014f46:	2401      	movs	r4, #1
 8014f48:	e716      	b.n	8014d78 <disk_ioctl+0x34>
 8014f4a:	2404      	movs	r4, #4
 8014f4c:	e716      	b.n	8014d7c <disk_ioctl+0x38>
 8014f4e:	2403      	movs	r4, #3
 8014f50:	e714      	b.n	8014d7c <disk_ioctl+0x38>
 8014f52:	bf00      	nop
 8014f54:	20000004 	.word	0x20000004
 8014f58:	200010d4 	.word	0x200010d4

08014f5c <sd_init>:
 8014f5c:	e92d 4ff0 	stmdb	sp!, {r4, r5, r6, r7, r8, r9, sl, fp, lr}
 8014f60:	b085      	sub	sp, #20
 8014f62:	4a5c      	ldr	r2, [pc, #368]	; (80150d4 <sd_init+0x178>)
 8014f64:	6b13      	ldr	r3, [r2, #48]	; 0x30
 8014f66:	f043 0301 	orr.w	r3, r3, #1
 8014f6a:	6313      	str	r3, [r2, #48]	; 0x30
 8014f6c:	4c5a      	ldr	r4, [pc, #360]	; (80150d8 <sd_init+0x17c>)
 8014f6e:	f240 32a5 	movw	r2, #933	; 0x3a5
 8014f72:	2105      	movs	r1, #5
 8014f74:	4620      	mov	r0, r4
 8014f76:	f7fd f87d 	bl	8012074 <hw_cfg_pin>
 8014f7a:	f240 32a5 	movw	r2, #933	; 0x3a5
 8014f7e:	2106      	movs	r1, #6
 8014f80:	4620      	mov	r0, r4
 8014f82:	f7fd f877 	bl	8012074 <hw_cfg_pin>
 8014f86:	f240 32a5 	movw	r2, #933	; 0x3a5
 8014f8a:	2107      	movs	r1, #7
 8014f8c:	4620      	mov	r0, r4
 8014f8e:	f7fd f871 	bl	8012074 <hw_cfg_pin>
 8014f92:	f44f 7264 	mov.w	r2, #912	; 0x390
 8014f96:	2104      	movs	r1, #4
 8014f98:	4620      	mov	r0, r4
 8014f9a:	f7fd f86b 	bl	8012074 <hw_cfg_pin>
 8014f9e:	2201      	movs	r2, #1
 8014fa0:	2104      	movs	r1, #4
 8014fa2:	4620      	mov	r0, r4
 8014fa4:	f7fd f8ac 	bl	8012100 <hw_set_pin>
 8014fa8:	f7fc ff50 	bl	8011e4c <spi_init>
 8014fac:	f04f 0803 	mov.w	r8, #3
 8014fb0:	27c8      	movs	r7, #200	; 0xc8
 8014fb2:	f04f 0a01 	mov.w	sl, #1
 8014fb6:	2500      	movs	r5, #0
 8014fb8:	e011      	b.n	8014fde <sd_init+0x82>
 8014fba:	4650      	mov	r0, sl
 8014fbc:	f7fc ff68 	bl	8011e90 <spi_cs>
 8014fc0:	f44f 737a 	mov.w	r3, #1000	; 0x3e8
 8014fc4:	9301      	str	r3, [sp, #4]
 8014fc6:	9b01      	ldr	r3, [sp, #4]
 8014fc8:	2b00      	cmp	r3, #0
 8014fca:	dd05      	ble.n	8014fd8 <sd_init+0x7c>
 8014fcc:	9b01      	ldr	r3, [sp, #4]
 8014fce:	3b01      	subs	r3, #1
 8014fd0:	9301      	str	r3, [sp, #4]
 8014fd2:	9b01      	ldr	r3, [sp, #4]
 8014fd4:	2b00      	cmp	r3, #0
 8014fd6:	dcf9      	bgt.n	8014fcc <sd_init+0x70>
 8014fd8:	f1b8 0801 	subs.w	r8, r8, #1
 8014fdc:	d065      	beq.n	80150aa <sd_init+0x14e>
 8014fde:	9702      	str	r7, [sp, #8]
 8014fe0:	9b02      	ldr	r3, [sp, #8]
 8014fe2:	2b00      	cmp	r3, #0
 8014fe4:	dd05      	ble.n	8014ff2 <sd_init+0x96>
 8014fe6:	9b02      	ldr	r3, [sp, #8]
 8014fe8:	3b01      	subs	r3, #1
 8014fea:	9302      	str	r3, [sp, #8]
 8014fec:	9b02      	ldr	r3, [sp, #8]
 8014fee:	2b00      	cmp	r3, #0
 8014ff0:	dcf9      	bgt.n	8014fe6 <sd_init+0x8a>
 8014ff2:	4650      	mov	r0, sl
 8014ff4:	f7fc ff4c 	bl	8011e90 <spi_cs>
 8014ff8:	240a      	movs	r4, #10
 8014ffa:	26ff      	movs	r6, #255	; 0xff
 8014ffc:	4630      	mov	r0, r6
 8014ffe:	f7fc ff51 	bl	8011ea4 <spi_sendrecv>
 8015002:	3c01      	subs	r4, #1
 8015004:	d1fa      	bne.n	8014ffc <sd_init+0xa0>
 8015006:	4628      	mov	r0, r5
 8015008:	f7fc ff42 	bl	8011e90 <spi_cs>
 801500c:	4629      	mov	r1, r5
 801500e:	4628      	mov	r0, r5
 8015010:	f7ff fb90 	bl	8014734 <_sd_send_command>
 8015014:	4604      	mov	r4, r0
 8015016:	2609      	movs	r6, #9
 8015018:	2c01      	cmp	r4, #1
 801501a:	d007      	beq.n	801502c <sd_init+0xd0>
 801501c:	4629      	mov	r1, r5
 801501e:	4628      	mov	r0, r5
 8015020:	f7ff fb88 	bl	8014734 <_sd_send_command>
 8015024:	4604      	mov	r4, r0
 8015026:	3e01      	subs	r6, #1
 8015028:	d1f6      	bne.n	8015018 <sd_init+0xbc>
 801502a:	e7c6      	b.n	8014fba <sd_init+0x5e>
 801502c:	20ff      	movs	r0, #255	; 0xff
 801502e:	f7fc ff39 	bl	8011ea4 <spi_sendrecv>
 8015032:	20ff      	movs	r0, #255	; 0xff
 8015034:	f7fc ff36 	bl	8011ea4 <spi_sendrecv>
 8015038:	f44f 71d5 	mov.w	r1, #426	; 0x1aa
 801503c:	2008      	movs	r0, #8
 801503e:	f7ff fb79 	bl	8014734 <_sd_send_command>
 8015042:	2609      	movs	r6, #9
 8015044:	f44f 7bd5 	mov.w	fp, #426	; 0x1aa
 8015048:	f04f 0908 	mov.w	r9, #8
 801504c:	2801      	cmp	r0, #1
 801504e:	d026      	beq.n	801509e <sd_init+0x142>
 8015050:	4659      	mov	r1, fp
 8015052:	4648      	mov	r0, r9
 8015054:	f7ff fb6e 	bl	8014734 <_sd_send_command>
 8015058:	3e01      	subs	r6, #1
 801505a:	d1f7      	bne.n	801504c <sd_init+0xf0>
 801505c:	260a      	movs	r6, #10
 801505e:	f04f 0937 	mov.w	r9, #55	; 0x37
 8015062:	4629      	mov	r1, r5
 8015064:	4648      	mov	r0, r9
 8015066:	f7ff fb65 	bl	8014734 <_sd_send_command>
 801506a:	9703      	str	r7, [sp, #12]
 801506c:	9b03      	ldr	r3, [sp, #12]
 801506e:	2b00      	cmp	r3, #0
 8015070:	dd05      	ble.n	801507e <sd_init+0x122>
 8015072:	9b03      	ldr	r3, [sp, #12]
 8015074:	3b01      	subs	r3, #1
 8015076:	9303      	str	r3, [sp, #12]
 8015078:	9b03      	ldr	r3, [sp, #12]
 801507a:	2b00      	cmp	r3, #0
 801507c:	dcf9      	bgt.n	8015072 <sd_init+0x116>
 801507e:	f04f 4180 	mov.w	r1, #1073741824	; 0x40000000
 8015082:	2029      	movs	r0, #41	; 0x29
 8015084:	f7ff fb56 	bl	8014734 <_sd_send_command>
 8015088:	3e01      	subs	r6, #1
 801508a:	d00a      	beq.n	80150a2 <sd_init+0x146>
 801508c:	2800      	cmp	r0, #0
 801508e:	d1e8      	bne.n	8015062 <sd_init+0x106>
 8015090:	2c02      	cmp	r4, #2
 8015092:	d00f      	beq.n	80150b4 <sd_init+0x158>
 8015094:	4b11      	ldr	r3, [pc, #68]	; (80150dc <sd_init+0x180>)
 8015096:	2200      	movs	r2, #0
 8015098:	601a      	str	r2, [r3, #0]
 801509a:	2000      	movs	r0, #0
 801509c:	e007      	b.n	80150ae <sd_init+0x152>
 801509e:	2402      	movs	r4, #2
 80150a0:	e7dc      	b.n	801505c <sd_init+0x100>
 80150a2:	4650      	mov	r0, sl
 80150a4:	f7fc fef4 	bl	8011e90 <spi_cs>
 80150a8:	e78a      	b.n	8014fc0 <sd_init+0x64>
 80150aa:	f04f 30ff 	mov.w	r0, #4294967295	; 0xffffffff
 80150ae:	b005      	add	sp, #20
 80150b0:	e8bd 8ff0 	ldmia.w	sp!, {r4, r5, r6, r7, r8, r9, sl, fp, pc}
 80150b4:	2100      	movs	r1, #0
 80150b6:	203a      	movs	r0, #58	; 0x3a
 80150b8:	f7ff fb3c 	bl	8014734 <_sd_send_command>
 80150bc:	2409      	movs	r4, #9
 80150be:	2600      	movs	r6, #0
 80150c0:	253a      	movs	r5, #58	; 0x3a
 80150c2:	2800      	cmp	r0, #0
 80150c4:	d0e9      	beq.n	801509a <sd_init+0x13e>
 80150c6:	4631      	mov	r1, r6
 80150c8:	4628      	mov	r0, r5
 80150ca:	f7ff fb33 	bl	8014734 <_sd_send_command>
 80150ce:	3c01      	subs	r4, #1
 80150d0:	d1f7      	bne.n	80150c2 <sd_init+0x166>
 80150d2:	e7e2      	b.n	801509a <sd_init+0x13e>
 80150d4:	40023800 	.word	0x40023800
 80150d8:	40020000 	.word	0x40020000
 80150dc:	20000090 	.word	0x20000090

080150e0 <sd_readsector>:
 80150e0:	b3ca      	cbz	r2, 8015156 <sd_readsector+0x76>
 80150e2:	e92d 47f0 	stmdb	sp!, {r4, r5, r6, r7, r8, r9, sl, lr}
 80150e6:	4606      	mov	r6, r0
 80150e8:	460f      	mov	r7, r1
 80150ea:	4690      	mov	r8, r2
 80150ec:	4480      	add	r8, r0
 80150ee:	f04f 0911 	mov.w	r9, #17
 80150f2:	25ff      	movs	r5, #255	; 0xff
 80150f4:	f44f 7a00 	mov.w	sl, #512	; 0x200
 80150f8:	e015      	b.n	8015126 <sd_readsector+0x46>
 80150fa:	4818      	ldr	r0, [pc, #96]	; (801515c <sd_readsector+0x7c>)
 80150fc:	f7fb ff20 	bl	8010f40 <printf>
 8015100:	2000      	movs	r0, #0
 8015102:	e024      	b.n	801514e <sd_readsector+0x6e>
 8015104:	4651      	mov	r1, sl
 8015106:	4638      	mov	r0, r7
 8015108:	f7fc fede 	bl	8011ec8 <spi_readblock>
 801510c:	f507 7700 	add.w	r7, r7, #512	; 0x200
 8015110:	4628      	mov	r0, r5
 8015112:	f7fc fec7 	bl	8011ea4 <spi_sendrecv>
 8015116:	4628      	mov	r0, r5
 8015118:	f7fc fec4 	bl	8011ea4 <spi_sendrecv>
 801511c:	4628      	mov	r0, r5
 801511e:	f7fc fec1 	bl	8011ea4 <spi_sendrecv>
 8015122:	45b0      	cmp	r8, r6
 8015124:	d015      	beq.n	8015152 <sd_readsector+0x72>
 8015126:	4631      	mov	r1, r6
 8015128:	3601      	adds	r6, #1
 801512a:	4648      	mov	r0, r9
 801512c:	f7ff fb02 	bl	8014734 <_sd_send_command>
 8015130:	4601      	mov	r1, r0
 8015132:	2800      	cmp	r0, #0
 8015134:	d1e1      	bne.n	80150fa <sd_readsector+0x1a>
 8015136:	4c0a      	ldr	r4, [pc, #40]	; (8015160 <sd_readsector+0x80>)
 8015138:	4628      	mov	r0, r5
 801513a:	f7fc feb3 	bl	8011ea4 <spi_sendrecv>
 801513e:	28fe      	cmp	r0, #254	; 0xfe
 8015140:	d0e0      	beq.n	8015104 <sd_readsector+0x24>
 8015142:	3c01      	subs	r4, #1
 8015144:	d1f8      	bne.n	8015138 <sd_readsector+0x58>
 8015146:	4807      	ldr	r0, [pc, #28]	; (8015164 <sd_readsector+0x84>)
 8015148:	f7fb fefa 	bl	8010f40 <printf>
 801514c:	2000      	movs	r0, #0
 801514e:	e8bd 87f0 	ldmia.w	sp!, {r4, r5, r6, r7, r8, r9, sl, pc}
 8015152:	2001      	movs	r0, #1
 8015154:	e7fb      	b.n	801514e <sd_readsector+0x6e>
 8015156:	2000      	movs	r0, #0
 8015158:	4770      	bx	lr
 801515a:	bf00      	nop
 801515c:	0801977c 	.word	0x0801977c
 8015160:	000186a0 	.word	0x000186a0
 8015164:	0801979c 	.word	0x0801979c

08015168 <sd_writesector>:
 8015168:	2a00      	cmp	r2, #0
 801516a:	d05a      	beq.n	8015222 <sd_writesector+0xba>
 801516c:	e92d 4ff8 	stmdb	sp!, {r3, r4, r5, r6, r7, r8, r9, sl, fp, lr}
 8015170:	4605      	mov	r5, r0
 8015172:	460e      	mov	r6, r1
 8015174:	4617      	mov	r7, r2
 8015176:	4407      	add	r7, r0
 8015178:	f04f 0818 	mov.w	r8, #24
 801517c:	f04f 0afe 	mov.w	sl, #254	; 0xfe
 8015180:	f44f 7900 	mov.w	r9, #512	; 0x200
 8015184:	e01d      	b.n	80151c2 <sd_writesector+0x5a>
 8015186:	4828      	ldr	r0, [pc, #160]	; (8015228 <sd_writesector+0xc0>)
 8015188:	f7fb feda 	bl	8010f40 <printf>
 801518c:	2000      	movs	r0, #0
 801518e:	e044      	b.n	801521a <sd_writesector+0xb2>
 8015190:	4601      	mov	r1, r0
 8015192:	4826      	ldr	r0, [pc, #152]	; (801522c <sd_writesector+0xc4>)
 8015194:	f7fb fed4 	bl	8010f40 <printf>
 8015198:	2000      	movs	r0, #0
 801519a:	e03e      	b.n	801521a <sd_writesector+0xb2>
 801519c:	20ff      	movs	r0, #255	; 0xff
 801519e:	f7fc fe81 	bl	8011ea4 <spi_sendrecv>
 80151a2:	4c23      	ldr	r4, [pc, #140]	; (8015230 <sd_writesector+0xc8>)
 80151a4:	f04f 0bff 	mov.w	fp, #255	; 0xff
 80151a8:	4658      	mov	r0, fp
 80151aa:	f7fc fe7b 	bl	8011ea4 <spi_sendrecv>
 80151ae:	b930      	cbnz	r0, 80151be <sd_writesector+0x56>
 80151b0:	3c01      	subs	r4, #1
 80151b2:	d1f9      	bne.n	80151a8 <sd_writesector+0x40>
 80151b4:	481f      	ldr	r0, [pc, #124]	; (8015234 <sd_writesector+0xcc>)
 80151b6:	f7fb fec3 	bl	8010f40 <printf>
 80151ba:	2000      	movs	r0, #0
 80151bc:	e02d      	b.n	801521a <sd_writesector+0xb2>
 80151be:	42bd      	cmp	r5, r7
 80151c0:	d02d      	beq.n	801521e <sd_writesector+0xb6>
 80151c2:	4629      	mov	r1, r5
 80151c4:	3501      	adds	r5, #1
 80151c6:	4640      	mov	r0, r8
 80151c8:	f7ff fab4 	bl	8014734 <_sd_send_command>
 80151cc:	4601      	mov	r1, r0
 80151ce:	2800      	cmp	r0, #0
 80151d0:	d1d9      	bne.n	8015186 <sd_writesector+0x1e>
 80151d2:	4650      	mov	r0, sl
 80151d4:	f7fc fe66 	bl	8011ea4 <spi_sendrecv>
 80151d8:	4649      	mov	r1, r9
 80151da:	4630      	mov	r0, r6
 80151dc:	f7fc fe83 	bl	8011ee6 <spi_writeblock>
 80151e0:	f506 7600 	add.w	r6, r6, #512	; 0x200
 80151e4:	20ff      	movs	r0, #255	; 0xff
 80151e6:	f7fc fe5d 	bl	8011ea4 <spi_sendrecv>
 80151ea:	20ff      	movs	r0, #255	; 0xff
 80151ec:	f7fc fe5a 	bl	8011ea4 <spi_sendrecv>
 80151f0:	20ff      	movs	r0, #255	; 0xff
 80151f2:	f7fc fe57 	bl	8011ea4 <spi_sendrecv>
 80151f6:	f000 031f 	and.w	r3, r0, #31
 80151fa:	2b05      	cmp	r3, #5
 80151fc:	d1c8      	bne.n	8015190 <sd_writesector+0x28>
 80151fe:	4c0c      	ldr	r4, [pc, #48]	; (8015230 <sd_writesector+0xc8>)
 8015200:	f04f 0bff 	mov.w	fp, #255	; 0xff
 8015204:	4658      	mov	r0, fp
 8015206:	f7fc fe4d 	bl	8011ea4 <spi_sendrecv>
 801520a:	2800      	cmp	r0, #0
 801520c:	d1c6      	bne.n	801519c <sd_writesector+0x34>
 801520e:	3c01      	subs	r4, #1
 8015210:	d1f8      	bne.n	8015204 <sd_writesector+0x9c>
 8015212:	4809      	ldr	r0, [pc, #36]	; (8015238 <sd_writesector+0xd0>)
 8015214:	f7fb fe94 	bl	8010f40 <printf>
 8015218:	2000      	movs	r0, #0
 801521a:	e8bd 8ff8 	ldmia.w	sp!, {r3, r4, r5, r6, r7, r8, r9, sl, fp, pc}
 801521e:	2001      	movs	r0, #1
 8015220:	e7fb      	b.n	801521a <sd_writesector+0xb2>
 8015222:	2001      	movs	r0, #1
 8015224:	4770      	bx	lr
 8015226:	bf00      	nop
 8015228:	080197cc 	.word	0x080197cc
 801522c:	080197f0 	.word	0x080197f0
 8015230:	000186a0 	.word	0x000186a0
 8015234:	08019850 	.word	0x08019850
 8015238:	08019814 	.word	0x08019814

0801523c <SystemInit>:
 801523c:	4b0b      	ldr	r3, [pc, #44]	; (801526c <SystemInit+0x30>)
 801523e:	681a      	ldr	r2, [r3, #0]
 8015240:	f042 0201 	orr.w	r2, r2, #1
 8015244:	601a      	str	r2, [r3, #0]
 8015246:	2100      	movs	r1, #0
 8015248:	6099      	str	r1, [r3, #8]
 801524a:	681a      	ldr	r2, [r3, #0]
 801524c:	f022 7284 	bic.w	r2, r2, #17301504	; 0x1080000
 8015250:	f422 3280 	bic.w	r2, r2, #65536	; 0x10000
 8015254:	601a      	str	r2, [r3, #0]
 8015256:	4a06      	ldr	r2, [pc, #24]	; (8015270 <SystemInit+0x34>)
 8015258:	605a      	str	r2, [r3, #4]
 801525a:	681a      	ldr	r2, [r3, #0]
 801525c:	f422 2280 	bic.w	r2, r2, #262144	; 0x40000
 8015260:	601a      	str	r2, [r3, #0]
 8015262:	60d9      	str	r1, [r3, #12]
 8015264:	4b03      	ldr	r3, [pc, #12]	; (8015274 <SystemInit+0x38>)
 8015266:	4a04      	ldr	r2, [pc, #16]	; (8015278 <SystemInit+0x3c>)
 8015268:	609a      	str	r2, [r3, #8]
 801526a:	4770      	bx	lr
 801526c:	40023800 	.word	0x40023800
 8015270:	24003010 	.word	0x24003010
 8015274:	e000ed00 	.word	0xe000ed00
 8015278:	08010000 	.word	0x08010000

0801527c <isr_svcall2>:
 801527c:	f3ef 8009 	mrs	r0, PSP
 8015280:	f7fb b89a 	b.w	80103b8 <svccall_handler_c2>
 8015284:	4770      	bx	lr

08015286 <reset_handler>:
 8015286:	b508      	push	{r3, lr}
 8015288:	4a13      	ldr	r2, [pc, #76]	; (80152d8 <reset_handler+0x52>)
 801528a:	4b14      	ldr	r3, [pc, #80]	; (80152dc <reset_handler+0x56>)
 801528c:	429a      	cmp	r2, r3
 801528e:	d20d      	bcs.n	80152ac <reset_handler+0x26>
 8015290:	4a13      	ldr	r2, [pc, #76]	; (80152e0 <reset_handler+0x5a>)
 8015292:	4b11      	ldr	r3, [pc, #68]	; (80152d8 <reset_handler+0x52>)
 8015294:	4813      	ldr	r0, [pc, #76]	; (80152e4 <reset_handler+0x5e>)
 8015296:	1ac0      	subs	r0, r0, r3
 8015298:	f020 0003 	bic.w	r0, r0, #3
 801529c:	3004      	adds	r0, #4
 801529e:	4418      	add	r0, r3
 80152a0:	f852 1b04 	ldr.w	r1, [r2], #4
 80152a4:	f843 1b04 	str.w	r1, [r3], #4
 80152a8:	4283      	cmp	r3, r0
 80152aa:	d1f9      	bne.n	80152a0 <reset_handler+0x1a>
 80152ac:	4a0e      	ldr	r2, [pc, #56]	; (80152e8 <reset_handler+0x62>)
 80152ae:	4b0f      	ldr	r3, [pc, #60]	; (80152ec <reset_handler+0x66>)
 80152b0:	429a      	cmp	r2, r3
 80152b2:	d20b      	bcs.n	80152cc <reset_handler+0x46>
 80152b4:	4613      	mov	r3, r2
 80152b6:	4a0e      	ldr	r2, [pc, #56]	; (80152f0 <reset_handler+0x6a>)
 80152b8:	1ad2      	subs	r2, r2, r3
 80152ba:	f022 0203 	bic.w	r2, r2, #3
 80152be:	3204      	adds	r2, #4
 80152c0:	441a      	add	r2, r3
 80152c2:	2100      	movs	r1, #0
 80152c4:	f843 1b04 	str.w	r1, [r3], #4
 80152c8:	4293      	cmp	r3, r2
 80152ca:	d1fb      	bne.n	80152c4 <reset_handler+0x3e>
 80152cc:	f7ff ffb6 	bl	801523c <SystemInit>
 80152d0:	f7fb fcbc 	bl	8010c4c <nulluser>
 80152d4:	bd08      	pop	{r3, pc}
 80152d6:	bf00      	nop
 80152d8:	20000000 	.word	0x20000000
 80152dc:	2000007c 	.word	0x2000007c
 80152e0:	08019ae0 	.word	0x08019ae0
 80152e4:	2000007b 	.word	0x2000007b
 80152e8:	2000007c 	.word	0x2000007c
 80152ec:	200010d5 	.word	0x200010d5
 80152f0:	200010d4 	.word	0x200010d4

080152f4 <default_handler>:
 80152f4:	b510      	push	{r4, lr}
 80152f6:	b082      	sub	sp, #8
 80152f8:	4673      	mov	r3, lr
 80152fa:	f3ef 8408 	mrs	r4, MSP
 80152fe:	f3ef 8209 	mrs	r2, PSP
 8015302:	f113 0f03 	cmn.w	r3, #3
 8015306:	bf08      	it	eq
 8015308:	4614      	moveq	r4, r2
 801530a:	4622      	mov	r2, r4
 801530c:	481c      	ldr	r0, [pc, #112]	; (8015380 <default_handler+0x8c>)
 801530e:	491d      	ldr	r1, [pc, #116]	; (8015384 <default_handler+0x90>)
 8015310:	f113 0f03 	cmn.w	r3, #3
 8015314:	bf18      	it	ne
 8015316:	4601      	movne	r1, r0
 8015318:	481b      	ldr	r0, [pc, #108]	; (8015388 <default_handler+0x94>)
 801531a:	f7fb fdff 	bl	8010f1c <kprintf>
 801531e:	6922      	ldr	r2, [r4, #16]
 8015320:	6821      	ldr	r1, [r4, #0]
 8015322:	481a      	ldr	r0, [pc, #104]	; (801538c <default_handler+0x98>)
 8015324:	f7fb fdfa 	bl	8010f1c <kprintf>
 8015328:	6962      	ldr	r2, [r4, #20]
 801532a:	6861      	ldr	r1, [r4, #4]
 801532c:	4818      	ldr	r0, [pc, #96]	; (8015390 <default_handler+0x9c>)
 801532e:	f7fb fdf5 	bl	8010f1c <kprintf>
 8015332:	69a2      	ldr	r2, [r4, #24]
 8015334:	68a1      	ldr	r1, [r4, #8]
 8015336:	4817      	ldr	r0, [pc, #92]	; (8015394 <default_handler+0xa0>)
 8015338:	f7fb fdf0 	bl	8010f1c <kprintf>
 801533c:	69e2      	ldr	r2, [r4, #28]
 801533e:	68e1      	ldr	r1, [r4, #12]
 8015340:	4815      	ldr	r0, [pc, #84]	; (8015398 <default_handler+0xa4>)
 8015342:	f7fb fdeb 	bl	8010f1c <kprintf>
 8015346:	f241 3288 	movw	r2, #5000	; 0x1388
 801534a:	f44f 61fa 	mov.w	r1, #2000	; 0x7d0
 801534e:	e001      	b.n	8015354 <default_handler+0x60>
 8015350:	3a01      	subs	r2, #1
 8015352:	d00a      	beq.n	801536a <default_handler+0x76>
 8015354:	9101      	str	r1, [sp, #4]
 8015356:	9b01      	ldr	r3, [sp, #4]
 8015358:	2b00      	cmp	r3, #0
 801535a:	ddf9      	ble.n	8015350 <default_handler+0x5c>
 801535c:	9b01      	ldr	r3, [sp, #4]
 801535e:	3b01      	subs	r3, #1
 8015360:	9301      	str	r3, [sp, #4]
 8015362:	9b01      	ldr	r3, [sp, #4]
 8015364:	2b00      	cmp	r3, #0
 8015366:	dcf9      	bgt.n	801535c <default_handler+0x68>
 8015368:	e7f2      	b.n	8015350 <default_handler+0x5c>
 801536a:	490c      	ldr	r1, [pc, #48]	; (801539c <default_handler+0xa8>)
 801536c:	68ca      	ldr	r2, [r1, #12]
 801536e:	f402 62e0 	and.w	r2, r2, #1792	; 0x700
 8015372:	4b0b      	ldr	r3, [pc, #44]	; (80153a0 <default_handler+0xac>)
 8015374:	4313      	orrs	r3, r2
 8015376:	60cb      	str	r3, [r1, #12]
 8015378:	f000 f81e 	bl	80153b8 <halt>
 801537c:	b002      	add	sp, #8
 801537e:	bd10      	pop	{r4, pc}
 8015380:	08019884 	.word	0x08019884
 8015384:	0801988c 	.word	0x0801988c
 8015388:	08019894 	.word	0x08019894
 801538c:	080198a8 	.word	0x080198a8
 8015390:	080198bc 	.word	0x080198bc
 8015394:	080198d0 	.word	0x080198d0
 8015398:	080198e4 	.word	0x080198e4
 801539c:	e000ed00 	.word	0xe000ed00
 80153a0:	05fa0004 	.word	0x05fa0004

080153a4 <disable>:
 80153a4:	f3ef 8003 	mrs	r0, PSR
 80153a8:	b672      	cpsid	i
 80153aa:	4770      	bx	lr

080153ac <restore>:
 80153ac:	f380 8803 	msr	PSR, r0
 80153b0:	b662      	cpsie	i
 80153b2:	4770      	bx	lr

080153b4 <enable>:
 80153b4:	b662      	cpsie	i
 80153b6:	4770      	bx	lr

080153b8 <halt>:
 80153b8:	b672      	cpsid	i

080153ba <dloop>:
 80153ba:	e7fe      	b.n	80153ba <dloop>

080153bc <__syscall>:
 80153bc:	df00      	svc	0
 80153be:	bf00      	nop
 80153c0:	4770      	bx	lr

080153c2 <__syscall2>:
 80153c2:	e92d 0fff 	stmdb	sp!, {r0, r1, r2, r3, r4, r5, r6, r7, r8, r9, sl, fp}
 80153c6:	df01      	svc	1
 80153c8:	e8bd 0fff 	ldmia.w	sp!, {r0, r1, r2, r3, r4, r5, r6, r7, r8, r9, sl, fp}
 80153cc:	4770      	bx	lr

080153ce <__syscall3>:
 80153ce:	e92d 0fff 	stmdb	sp!, {r0, r1, r2, r3, r4, r5, r6, r7, r8, r9, sl, fp}
 80153d2:	e8bd 0fff 	ldmia.w	sp!, {r0, r1, r2, r3, r4, r5, r6, r7, r8, r9, sl, fp}
 80153d6:	df01      	svc	1
 80153d8:	4770      	bx	lr
	...

080153dc <abs>:
 80153dc:	2800      	cmp	r0, #0
 80153de:	bfb8      	it	lt
 80153e0:	4240      	neglt	r0, r0
 80153e2:	4770      	bx	lr

080153e4 <atoi>:
 80153e4:	b410      	push	{r4}
 80153e6:	e003      	b.n	80153f0 <atoi+0xc>
 80153e8:	2b09      	cmp	r3, #9
 80153ea:	d001      	beq.n	80153f0 <atoi+0xc>
 80153ec:	2b20      	cmp	r3, #32
 80153ee:	d121      	bne.n	8015434 <atoi+0x50>
 80153f0:	4601      	mov	r1, r0
 80153f2:	f810 3b01 	ldrb.w	r3, [r0], #1
 80153f6:	2b2b      	cmp	r3, #43	; 0x2b
 80153f8:	d01e      	beq.n	8015438 <atoi+0x54>
 80153fa:	d9f5      	bls.n	80153e8 <atoi+0x4>
 80153fc:	2b2d      	cmp	r3, #45	; 0x2d
 80153fe:	d11d      	bne.n	801543c <atoi+0x58>
 8015400:	2401      	movs	r4, #1
 8015402:	3101      	adds	r1, #1
 8015404:	780b      	ldrb	r3, [r1, #0]
 8015406:	f1a3 0230 	sub.w	r2, r3, #48	; 0x30
 801540a:	b2d2      	uxtb	r2, r2
 801540c:	2a09      	cmp	r2, #9
 801540e:	d817      	bhi.n	8015440 <atoi+0x5c>
 8015410:	2000      	movs	r0, #0
 8015412:	eb00 0080 	add.w	r0, r0, r0, lsl #2
 8015416:	eb03 0040 	add.w	r0, r3, r0, lsl #1
 801541a:	3830      	subs	r0, #48	; 0x30
 801541c:	f811 3f01 	ldrb.w	r3, [r1, #1]!
 8015420:	f1a3 0230 	sub.w	r2, r3, #48	; 0x30
 8015424:	b2d2      	uxtb	r2, r2
 8015426:	2a09      	cmp	r2, #9
 8015428:	d9f3      	bls.n	8015412 <atoi+0x2e>
 801542a:	b104      	cbz	r4, 801542e <atoi+0x4a>
 801542c:	4240      	negs	r0, r0
 801542e:	f85d 4b04 	ldr.w	r4, [sp], #4
 8015432:	4770      	bx	lr
 8015434:	2400      	movs	r4, #0
 8015436:	e7e5      	b.n	8015404 <atoi+0x20>
 8015438:	2400      	movs	r4, #0
 801543a:	e7e2      	b.n	8015402 <atoi+0x1e>
 801543c:	2400      	movs	r4, #0
 801543e:	e7e1      	b.n	8015404 <atoi+0x20>
 8015440:	2000      	movs	r0, #0
 8015442:	e7f2      	b.n	801542a <atoi+0x46>

08015444 <atol>:
 8015444:	b410      	push	{r4}
 8015446:	e003      	b.n	8015450 <atol+0xc>
 8015448:	2b09      	cmp	r3, #9
 801544a:	d001      	beq.n	8015450 <atol+0xc>
 801544c:	2b20      	cmp	r3, #32
 801544e:	d121      	bne.n	8015494 <atol+0x50>
 8015450:	4601      	mov	r1, r0
 8015452:	f810 3b01 	ldrb.w	r3, [r0], #1
 8015456:	2b2b      	cmp	r3, #43	; 0x2b
 8015458:	d01e      	beq.n	8015498 <atol+0x54>
 801545a:	d9f5      	bls.n	8015448 <atol+0x4>
 801545c:	2b2d      	cmp	r3, #45	; 0x2d
 801545e:	d11d      	bne.n	801549c <atol+0x58>
 8015460:	2401      	movs	r4, #1
 8015462:	3101      	adds	r1, #1
 8015464:	780b      	ldrb	r3, [r1, #0]
 8015466:	f1a3 0230 	sub.w	r2, r3, #48	; 0x30
 801546a:	b2d2      	uxtb	r2, r2
 801546c:	2a09      	cmp	r2, #9
 801546e:	d817      	bhi.n	80154a0 <atol+0x5c>
 8015470:	2000      	movs	r0, #0
 8015472:	eb00 0080 	add.w	r0, r0, r0, lsl #2
 8015476:	eb03 0040 	add.w	r0, r3, r0, lsl #1
 801547a:	3830      	subs	r0, #48	; 0x30
 801547c:	f811 3f01 	ldrb.w	r3, [r1, #1]!
 8015480:	f1a3 0230 	sub.w	r2, r3, #48	; 0x30
 8015484:	b2d2      	uxtb	r2, r2
 8015486:	2a09      	cmp	r2, #9
 8015488:	d9f3      	bls.n	8015472 <atol+0x2e>
 801548a:	b104      	cbz	r4, 801548e <atol+0x4a>
 801548c:	4240      	negs	r0, r0
 801548e:	f85d 4b04 	ldr.w	r4, [sp], #4
 8015492:	4770      	bx	lr
 8015494:	2400      	movs	r4, #0
 8015496:	e7e5      	b.n	8015464 <atol+0x20>
 8015498:	2400      	movs	r4, #0
 801549a:	e7e2      	b.n	8015462 <atol+0x1e>
 801549c:	2400      	movs	r4, #0
 801549e:	e7e1      	b.n	8015464 <atol+0x20>
 80154a0:	2000      	movs	r0, #0
 80154a2:	e7f2      	b.n	801548a <atol+0x46>

080154a4 <bzero>:
 80154a4:	2900      	cmp	r1, #0
 80154a6:	dd05      	ble.n	80154b4 <bzero+0x10>
 80154a8:	4401      	add	r1, r0
 80154aa:	2300      	movs	r3, #0
 80154ac:	f800 3b01 	strb.w	r3, [r0], #1
 80154b0:	4288      	cmp	r0, r1
 80154b2:	d1fb      	bne.n	80154ac <bzero+0x8>
 80154b4:	4770      	bx	lr

080154b6 <labs>:
 80154b6:	2800      	cmp	r0, #0
 80154b8:	bfb8      	it	lt
 80154ba:	4240      	neglt	r0, r0
 80154bc:	4770      	bx	lr

080154be <memchr>:
 80154be:	7803      	ldrb	r3, [r0, #0]
 80154c0:	b143      	cbz	r3, 80154d4 <memchr+0x16>
 80154c2:	b2c9      	uxtb	r1, r1
 80154c4:	4299      	cmp	r1, r3
 80154c6:	d006      	beq.n	80154d6 <memchr+0x18>
 80154c8:	f810 3f01 	ldrb.w	r3, [r0, #1]!
 80154cc:	2b00      	cmp	r3, #0
 80154ce:	d1f9      	bne.n	80154c4 <memchr+0x6>
 80154d0:	2000      	movs	r0, #0
 80154d2:	4770      	bx	lr
 80154d4:	2000      	movs	r0, #0
 80154d6:	4770      	bx	lr

080154d8 <memcmp>:
 80154d8:	4603      	mov	r3, r0
 80154da:	4402      	add	r2, r0
 80154dc:	1a10      	subs	r0, r2, r0
 80154de:	2800      	cmp	r0, #0
 80154e0:	dd0f      	ble.n	8015502 <memcmp+0x2a>
 80154e2:	b410      	push	{r4}
 80154e4:	f813 0b01 	ldrb.w	r0, [r3], #1
 80154e8:	f811 4b01 	ldrb.w	r4, [r1], #1
 80154ec:	42a0      	cmp	r0, r4
 80154ee:	d104      	bne.n	80154fa <memcmp+0x22>
 80154f0:	1ad0      	subs	r0, r2, r3
 80154f2:	2800      	cmp	r0, #0
 80154f4:	dcf6      	bgt.n	80154e4 <memcmp+0xc>
 80154f6:	2000      	movs	r0, #0
 80154f8:	e000      	b.n	80154fc <memcmp+0x24>
 80154fa:	1b00      	subs	r0, r0, r4
 80154fc:	f85d 4b04 	ldr.w	r4, [sp], #4
 8015500:	4770      	bx	lr
 8015502:	2000      	movs	r0, #0
 8015504:	4770      	bx	lr

08015506 <memcpy>:
 8015506:	2a00      	cmp	r2, #0
 8015508:	dd0b      	ble.n	8015522 <memcpy+0x1c>
 801550a:	b410      	push	{r4}
 801550c:	1e43      	subs	r3, r0, #1
 801550e:	188c      	adds	r4, r1, r2
 8015510:	f811 2b01 	ldrb.w	r2, [r1], #1
 8015514:	f803 2f01 	strb.w	r2, [r3, #1]!
 8015518:	42a1      	cmp	r1, r4
 801551a:	d1f9      	bne.n	8015510 <memcpy+0xa>
 801551c:	f85d 4b04 	ldr.w	r4, [sp], #4
 8015520:	4770      	bx	lr
 8015522:	4770      	bx	lr

08015524 <memset>:
 8015524:	2a00      	cmp	r2, #0
 8015526:	dd05      	ble.n	8015534 <memset+0x10>
 8015528:	4402      	add	r2, r0
 801552a:	4603      	mov	r3, r0
 801552c:	f803 1b01 	strb.w	r1, [r3], #1
 8015530:	429a      	cmp	r2, r3
 8015532:	d1fb      	bne.n	801552c <memset+0x8>
 8015534:	4770      	bx	lr

08015536 <strchr>:
 8015536:	7803      	ldrb	r3, [r0, #0]
 8015538:	b133      	cbz	r3, 8015548 <strchr+0x12>
 801553a:	b2ca      	uxtb	r2, r1
 801553c:	429a      	cmp	r2, r3
 801553e:	d007      	beq.n	8015550 <strchr+0x1a>
 8015540:	f810 3f01 	ldrb.w	r3, [r0, #1]!
 8015544:	2b00      	cmp	r3, #0
 8015546:	d1f9      	bne.n	801553c <strchr+0x6>
 8015548:	f011 0fff 	tst.w	r1, #255	; 0xff
 801554c:	bf18      	it	ne
 801554e:	2000      	movne	r0, #0
 8015550:	4770      	bx	lr

08015552 <strcmp>:
 8015552:	7803      	ldrb	r3, [r0, #0]
 8015554:	780a      	ldrb	r2, [r1, #0]
 8015556:	4293      	cmp	r3, r2
 8015558:	d106      	bne.n	8015568 <strcmp+0x16>
 801555a:	b15b      	cbz	r3, 8015574 <strcmp+0x22>
 801555c:	f810 3f01 	ldrb.w	r3, [r0, #1]!
 8015560:	f811 2f01 	ldrb.w	r2, [r1, #1]!
 8015564:	4293      	cmp	r3, r2
 8015566:	d0f8      	beq.n	801555a <strcmp+0x8>
 8015568:	4293      	cmp	r3, r2
 801556a:	bf34      	ite	cc
 801556c:	f04f 30ff 	movcc.w	r0, #4294967295	; 0xffffffff
 8015570:	2001      	movcs	r0, #1
 8015572:	4770      	bx	lr
 8015574:	2000      	movs	r0, #0
 8015576:	4770      	bx	lr

08015578 <strcpy>:
 8015578:	3801      	subs	r0, #1
 801557a:	f811 3b01 	ldrb.w	r3, [r1], #1
 801557e:	f800 3f01 	strb.w	r3, [r0, #1]!
 8015582:	2b00      	cmp	r3, #0
 8015584:	d1f9      	bne.n	801557a <strcpy+0x2>
 8015586:	2000      	movs	r0, #0
 8015588:	4770      	bx	lr

0801558a <strncmp>:
 801558a:	b430      	push	{r4, r5}
 801558c:	460b      	mov	r3, r1
 801558e:	3a01      	subs	r2, #1
 8015590:	188c      	adds	r4, r1, r2
 8015592:	4605      	mov	r5, r0
 8015594:	1ae2      	subs	r2, r4, r3
 8015596:	2a00      	cmp	r2, #0
 8015598:	db09      	blt.n	80155ae <strncmp+0x24>
 801559a:	f810 2b01 	ldrb.w	r2, [r0], #1
 801559e:	f813 1b01 	ldrb.w	r1, [r3], #1
 80155a2:	4291      	cmp	r1, r2
 80155a4:	d105      	bne.n	80155b2 <strncmp+0x28>
 80155a6:	2a00      	cmp	r2, #0
 80155a8:	d1f3      	bne.n	8015592 <strncmp+0x8>
 80155aa:	2000      	movs	r0, #0
 80155ac:	e005      	b.n	80155ba <strncmp+0x30>
 80155ae:	2000      	movs	r0, #0
 80155b0:	e003      	b.n	80155ba <strncmp+0x30>
 80155b2:	7828      	ldrb	r0, [r5, #0]
 80155b4:	f813 3c01 	ldrb.w	r3, [r3, #-1]
 80155b8:	1ac0      	subs	r0, r0, r3
 80155ba:	bc30      	pop	{r4, r5}
 80155bc:	4770      	bx	lr

080155be <strncpy>:
 80155be:	2a00      	cmp	r2, #0
 80155c0:	dd1e      	ble.n	8015600 <strncpy+0x42>
 80155c2:	b5f0      	push	{r4, r5, r6, r7, lr}
 80155c4:	1e4b      	subs	r3, r1, #1
 80155c6:	f102 3eff 	add.w	lr, r2, #4294967295	; 0xffffffff
 80155ca:	eb01 0c0e 	add.w	ip, r1, lr
 80155ce:	4604      	mov	r4, r0
 80155d0:	f1c1 0601 	rsb	r6, r1, #1
 80155d4:	18f5      	adds	r5, r6, r3
 80155d6:	462f      	mov	r7, r5
 80155d8:	f813 1f01 	ldrb.w	r1, [r3, #1]!
 80155dc:	f804 1b01 	strb.w	r1, [r4], #1
 80155e0:	b111      	cbz	r1, 80155e8 <strncpy+0x2a>
 80155e2:	4563      	cmp	r3, ip
 80155e4:	d1f6      	bne.n	80155d4 <strncpy+0x16>
 80155e6:	bdf0      	pop	{r4, r5, r6, r7, pc}
 80155e8:	3701      	adds	r7, #1
 80155ea:	42ba      	cmp	r2, r7
 80155ec:	ddfb      	ble.n	80155e6 <strncpy+0x28>
 80155ee:	ebae 0505 	sub.w	r5, lr, r5
 80155f2:	4425      	add	r5, r4
 80155f4:	2300      	movs	r3, #0
 80155f6:	f804 3b01 	strb.w	r3, [r4], #1
 80155fa:	42a5      	cmp	r5, r4
 80155fc:	d1fb      	bne.n	80155f6 <strncpy+0x38>
 80155fe:	e7f2      	b.n	80155e6 <strncpy+0x28>
 8015600:	4770      	bx	lr

08015602 <strncat>:
 8015602:	b430      	push	{r4, r5}
 8015604:	4603      	mov	r3, r0
 8015606:	461d      	mov	r5, r3
 8015608:	f813 4b01 	ldrb.w	r4, [r3], #1
 801560c:	2c00      	cmp	r4, #0
 801560e:	d1fa      	bne.n	8015606 <strncat+0x4>
 8015610:	1e4c      	subs	r4, r1, #1
 8015612:	462b      	mov	r3, r5
 8015614:	f814 1f01 	ldrb.w	r1, [r4, #1]!
 8015618:	f803 1b01 	strb.w	r1, [r3], #1
 801561c:	b129      	cbz	r1, 801562a <strncat+0x28>
 801561e:	1ad1      	subs	r1, r2, r3
 8015620:	42cd      	cmn	r5, r1
 8015622:	d5f7      	bpl.n	8015614 <strncat+0x12>
 8015624:	2200      	movs	r2, #0
 8015626:	f803 2c01 	strb.w	r2, [r3, #-1]
 801562a:	bc30      	pop	{r4, r5}
 801562c:	4770      	bx	lr

0801562e <strlen>:
 801562e:	4603      	mov	r3, r0
 8015630:	f813 2b01 	ldrb.w	r2, [r3], #1
 8015634:	b132      	cbz	r2, 8015644 <strlen+0x16>
 8015636:	2000      	movs	r0, #0
 8015638:	3001      	adds	r0, #1
 801563a:	f813 2b01 	ldrb.w	r2, [r3], #1
 801563e:	2a00      	cmp	r2, #0
 8015640:	d1fa      	bne.n	8015638 <strlen+0xa>
 8015642:	4770      	bx	lr
 8015644:	2000      	movs	r0, #0
 8015646:	4770      	bx	lr

08015648 <strrev>:
 8015648:	b5f8      	push	{r3, r4, r5, r6, r7, lr}
 801564a:	4604      	mov	r4, r0
 801564c:	f7ff ffef 	bl	801562e <strlen>
 8015650:	1e43      	subs	r3, r0, #1
 8015652:	2b00      	cmp	r3, #0
 8015654:	dd11      	ble.n	801567a <strrev+0x32>
 8015656:	1e61      	subs	r1, r4, #1
 8015658:	1825      	adds	r5, r4, r0
 801565a:	f06f 0701 	mvn.w	r7, #1
 801565e:	460a      	mov	r2, r1
 8015660:	f811 3f01 	ldrb.w	r3, [r1, #1]!
 8015664:	f815 6d01 	ldrb.w	r6, [r5, #-1]!
 8015668:	700e      	strb	r6, [r1, #0]
 801566a:	702b      	strb	r3, [r5, #0]
 801566c:	3202      	adds	r2, #2
 801566e:	1b12      	subs	r2, r2, r4
 8015670:	1a7b      	subs	r3, r7, r1
 8015672:	4423      	add	r3, r4
 8015674:	4403      	add	r3, r0
 8015676:	429a      	cmp	r2, r3
 8015678:	dbf1      	blt.n	801565e <strrev+0x16>
 801567a:	bdf8      	pop	{r3, r4, r5, r6, r7, pc}

0801567c <itoa>:
 801567c:	b5f8      	push	{r3, r4, r5, r6, r7, lr}
 801567e:	ea80 71e0 	eor.w	r1, r0, r0, asr #31
 8015682:	eba1 71e0 	sub.w	r1, r1, r0, asr #31
 8015686:	4d12      	ldr	r5, [pc, #72]	; (80156d0 <itoa+0x54>)
 8015688:	2400      	movs	r4, #0
 801568a:	4e12      	ldr	r6, [pc, #72]	; (80156d4 <itoa+0x58>)
 801568c:	4627      	mov	r7, r4
 801568e:	3401      	adds	r4, #1
 8015690:	fb86 3201 	smull	r3, r2, r6, r1
 8015694:	17cb      	asrs	r3, r1, #31
 8015696:	ebc3 03a2 	rsb	r3, r3, r2, asr #2
 801569a:	eb03 0283 	add.w	r2, r3, r3, lsl #2
 801569e:	eba1 0242 	sub.w	r2, r1, r2, lsl #1
 80156a2:	3230      	adds	r2, #48	; 0x30
 80156a4:	f805 2b01 	strb.w	r2, [r5], #1
 80156a8:	460a      	mov	r2, r1
 80156aa:	4619      	mov	r1, r3
 80156ac:	2a09      	cmp	r2, #9
 80156ae:	dced      	bgt.n	801568c <itoa+0x10>
 80156b0:	2800      	cmp	r0, #0
 80156b2:	db07      	blt.n	80156c4 <itoa+0x48>
 80156b4:	4d06      	ldr	r5, [pc, #24]	; (80156d0 <itoa+0x54>)
 80156b6:	2300      	movs	r3, #0
 80156b8:	552b      	strb	r3, [r5, r4]
 80156ba:	4628      	mov	r0, r5
 80156bc:	f7ff ffc4 	bl	8015648 <strrev>
 80156c0:	4628      	mov	r0, r5
 80156c2:	bdf8      	pop	{r3, r4, r5, r6, r7, pc}
 80156c4:	4b02      	ldr	r3, [pc, #8]	; (80156d0 <itoa+0x54>)
 80156c6:	222d      	movs	r2, #45	; 0x2d
 80156c8:	551a      	strb	r2, [r3, r4]
 80156ca:	1cbc      	adds	r4, r7, #2
 80156cc:	e7f2      	b.n	80156b4 <itoa+0x38>
 80156ce:	bf00      	nop
 80156d0:	20000094 	.word	0x20000094
 80156d4:	66666667 	.word	0x66666667

080156d8 <strnlen>:
 80156d8:	4603      	mov	r3, r0
 80156da:	f813 2b01 	ldrb.w	r2, [r3], #1
 80156de:	b15a      	cbz	r2, 80156f8 <strnlen+0x20>
 80156e0:	2900      	cmp	r1, #0
 80156e2:	dd0b      	ble.n	80156fc <strnlen+0x24>
 80156e4:	3101      	adds	r1, #1
 80156e6:	4401      	add	r1, r0
 80156e8:	2000      	movs	r0, #0
 80156ea:	3001      	adds	r0, #1
 80156ec:	f813 2b01 	ldrb.w	r2, [r3], #1
 80156f0:	b12a      	cbz	r2, 80156fe <strnlen+0x26>
 80156f2:	428b      	cmp	r3, r1
 80156f4:	d1f9      	bne.n	80156ea <strnlen+0x12>
 80156f6:	4770      	bx	lr
 80156f8:	2000      	movs	r0, #0
 80156fa:	4770      	bx	lr
 80156fc:	2000      	movs	r0, #0
 80156fe:	4770      	bx	lr

08015700 <strrchr>:
 8015700:	7803      	ldrb	r3, [r0, #0]
 8015702:	b183      	cbz	r3, 8015726 <strrchr+0x26>
 8015704:	b410      	push	{r4}
 8015706:	2200      	movs	r2, #0
 8015708:	b2cc      	uxtb	r4, r1
 801570a:	429c      	cmp	r4, r3
 801570c:	bf08      	it	eq
 801570e:	4602      	moveq	r2, r0
 8015710:	f810 3f01 	ldrb.w	r3, [r0, #1]!
 8015714:	2b00      	cmp	r3, #0
 8015716:	d1f8      	bne.n	801570a <strrchr+0xa>
 8015718:	f011 0fff 	tst.w	r1, #255	; 0xff
 801571c:	bf18      	it	ne
 801571e:	4610      	movne	r0, r2
 8015720:	f85d 4b04 	ldr.w	r4, [sp], #4
 8015724:	4770      	bx	lr
 8015726:	2200      	movs	r2, #0
 8015728:	f011 0fff 	tst.w	r1, #255	; 0xff
 801572c:	bf18      	it	ne
 801572e:	4610      	movne	r0, r2
 8015730:	4770      	bx	lr

08015732 <strstr>:
 8015732:	7803      	ldrb	r3, [r0, #0]
 8015734:	b1f3      	cbz	r3, 8015774 <strstr+0x42>
 8015736:	b4f0      	push	{r4, r5, r6, r7}
 8015738:	780e      	ldrb	r6, [r1, #0]
 801573a:	460f      	mov	r7, r1
 801573c:	e005      	b.n	801574a <strstr+0x18>
 801573e:	463c      	mov	r4, r7
 8015740:	7823      	ldrb	r3, [r4, #0]
 8015742:	b1ab      	cbz	r3, 8015770 <strstr+0x3e>
 8015744:	f810 3f01 	ldrb.w	r3, [r0, #1]!
 8015748:	b18b      	cbz	r3, 801576e <strstr+0x3c>
 801574a:	429e      	cmp	r6, r3
 801574c:	d1fa      	bne.n	8015744 <strstr+0x12>
 801574e:	7803      	ldrb	r3, [r0, #0]
 8015750:	2b00      	cmp	r3, #0
 8015752:	d0f4      	beq.n	801573e <strstr+0xc>
 8015754:	460a      	mov	r2, r1
 8015756:	4605      	mov	r5, r0
 8015758:	f812 4b01 	ldrb.w	r4, [r2], #1
 801575c:	b144      	cbz	r4, 8015770 <strstr+0x3e>
 801575e:	429c      	cmp	r4, r3
 8015760:	d1f0      	bne.n	8015744 <strstr+0x12>
 8015762:	4614      	mov	r4, r2
 8015764:	f815 3f01 	ldrb.w	r3, [r5, #1]!
 8015768:	2b00      	cmp	r3, #0
 801576a:	d1f5      	bne.n	8015758 <strstr+0x26>
 801576c:	e7e8      	b.n	8015740 <strstr+0xe>
 801576e:	2000      	movs	r0, #0
 8015770:	bcf0      	pop	{r4, r5, r6, r7}
 8015772:	4770      	bx	lr
 8015774:	2000      	movs	r0, #0
 8015776:	4770      	bx	lr

08015778 <strcat>:
 8015778:	b538      	push	{r3, r4, r5, lr}
 801577a:	4604      	mov	r4, r0
 801577c:	460d      	mov	r5, r1
 801577e:	f7ff ff56 	bl	801562e <strlen>
 8015782:	4629      	mov	r1, r5
 8015784:	4420      	add	r0, r4
 8015786:	f7ff fef7 	bl	8015578 <strcpy>
 801578a:	4620      	mov	r0, r4
 801578c:	bd38      	pop	{r3, r4, r5, pc}

0801578e <tolower>:
 801578e:	f1a0 0341 	sub.w	r3, r0, #65	; 0x41
 8015792:	2b19      	cmp	r3, #25
 8015794:	bf98      	it	ls
 8015796:	3020      	addls	r0, #32
 8015798:	4770      	bx	lr

0801579a <toupper>:
 801579a:	f1a0 0361 	sub.w	r3, r0, #97	; 0x61
 801579e:	2b19      	cmp	r3, #25
 80157a0:	bf98      	it	ls
 80157a2:	3820      	subls	r0, #32
 80157a4:	4770      	bx	lr

080157a6 <pow>:
 80157a6:	eef5 0a40 	vcmp.f32	s1, #0.0
 80157aa:	eef1 fa10 	vmrs	APSR_nzcv, fpscr
 80157ae:	d02f      	beq.n	8015810 <pow+0x6a>
 80157b0:	b508      	push	{r3, lr}
 80157b2:	ed2d 8b02 	vpush	{d8}
 80157b6:	eeb0 8a40 	vmov.f32	s16, s0
 80157ba:	eef5 0ac0 	vcmpe.f32	s1, #0.0
 80157be:	eef1 fa10 	vmrs	APSR_nzcv, fpscr
 80157c2:	d411      	bmi.n	80157e8 <pow+0x42>
 80157c4:	eefd 7ae0 	vcvt.s32.f32	s15, s1
 80157c8:	ee17 3a90 	vmov	r3, s15
 80157cc:	f013 0f01 	tst.w	r3, #1
 80157d0:	d115      	bne.n	80157fe <pow+0x58>
 80157d2:	eef6 7a00 	vmov.f32	s15, #96	; 0x3f000000  0.5
 80157d6:	ee60 0aa7 	vmul.f32	s1, s1, s15
 80157da:	f7ff ffe4 	bl	80157a6 <pow>
 80157de:	ee20 0a00 	vmul.f32	s0, s0, s0
 80157e2:	ecbd 8b02 	vpop	{d8}
 80157e6:	bd08      	pop	{r3, pc}
 80157e8:	eef1 0a60 	vneg.f32	s1, s1
 80157ec:	f7ff ffdb 	bl	80157a6 <pow>
 80157f0:	eef0 7a40 	vmov.f32	s15, s0
 80157f4:	eeb7 7a00 	vmov.f32	s14, #112	; 0x3f800000  1.0
 80157f8:	ee87 0a27 	vdiv.f32	s0, s14, s15
 80157fc:	e7f1      	b.n	80157e2 <pow+0x3c>
 80157fe:	eef7 7a00 	vmov.f32	s15, #112	; 0x3f800000  1.0
 8015802:	ee70 0ae7 	vsub.f32	s1, s1, s15
 8015806:	f7ff ffce 	bl	80157a6 <pow>
 801580a:	ee20 0a08 	vmul.f32	s0, s0, s16
 801580e:	e7e8      	b.n	80157e2 <pow+0x3c>
 8015810:	eeb7 0a00 	vmov.f32	s0, #112	; 0x3f800000  1.0
 8015814:	4770      	bx	lr
 8015816:	bf00      	nop

08015818 <_prtl10>:
 8015818:	b470      	push	{r4, r5, r6}
 801581a:	b085      	sub	sp, #20
 801581c:	2300      	movs	r3, #0
 801581e:	f88d 3004 	strb.w	r3, [sp, #4]
 8015822:	2800      	cmp	r0, #0
 8015824:	db41      	blt.n	80158aa <_prtl10+0x92>
 8015826:	4a2c      	ldr	r2, [pc, #176]	; (80158d8 <_prtl10+0xc0>)
 8015828:	fb82 3200 	smull	r3, r2, r2, r0
 801582c:	17c3      	asrs	r3, r0, #31
 801582e:	ebc3 03a2 	rsb	r3, r3, r2, asr #2
 8015832:	eb03 0383 	add.w	r3, r3, r3, lsl #2
 8015836:	eba0 0343 	sub.w	r3, r0, r3, lsl #1
 801583a:	3330      	adds	r3, #48	; 0x30
 801583c:	f88d 3005 	strb.w	r3, [sp, #5]
 8015840:	230a      	movs	r3, #10
 8015842:	fb90 f0f3 	sdiv	r0, r0, r3
 8015846:	f10d 0205 	add.w	r2, sp, #5
 801584a:	f10d 060e 	add.w	r6, sp, #14
 801584e:	4d22      	ldr	r5, [pc, #136]	; (80158d8 <_prtl10+0xc0>)
 8015850:	fb85 3400 	smull	r3, r4, r5, r0
 8015854:	17c3      	asrs	r3, r0, #31
 8015856:	ebc3 03a4 	rsb	r3, r3, r4, asr #2
 801585a:	eb03 0483 	add.w	r4, r3, r3, lsl #2
 801585e:	eba0 0044 	sub.w	r0, r0, r4, lsl #1
 8015862:	3030      	adds	r0, #48	; 0x30
 8015864:	f802 0f01 	strb.w	r0, [r2, #1]!
 8015868:	4618      	mov	r0, r3
 801586a:	42b2      	cmp	r2, r6
 801586c:	d1f0      	bne.n	8015850 <_prtl10+0x38>
 801586e:	f89d 300e 	ldrb.w	r3, [sp, #14]
 8015872:	2b30      	cmp	r3, #48	; 0x30
 8015874:	d12d      	bne.n	80158d2 <_prtl10+0xba>
 8015876:	f10d 020e 	add.w	r2, sp, #14
 801587a:	230a      	movs	r3, #10
 801587c:	3b01      	subs	r3, #1
 801587e:	f812 0d01 	ldrb.w	r0, [r2, #-1]!
 8015882:	2830      	cmp	r0, #48	; 0x30
 8015884:	d0fa      	beq.n	801587c <_prtl10+0x64>
 8015886:	bb0b      	cbnz	r3, 80158cc <_prtl10+0xb4>
 8015888:	2301      	movs	r3, #1
 801588a:	461c      	mov	r4, r3
 801588c:	aa04      	add	r2, sp, #16
 801588e:	4413      	add	r3, r2
 8015890:	3b0b      	subs	r3, #11
 8015892:	1e48      	subs	r0, r1, #1
 8015894:	f813 2d01 	ldrb.w	r2, [r3, #-1]!
 8015898:	f800 2f01 	strb.w	r2, [r0, #1]!
 801589c:	43c2      	mvns	r2, r0
 801589e:	440a      	add	r2, r1
 80158a0:	42e2      	cmn	r2, r4
 80158a2:	d5f7      	bpl.n	8015894 <_prtl10+0x7c>
 80158a4:	b005      	add	sp, #20
 80158a6:	bc70      	pop	{r4, r5, r6}
 80158a8:	4770      	bx	lr
 80158aa:	4a0b      	ldr	r2, [pc, #44]	; (80158d8 <_prtl10+0xc0>)
 80158ac:	fb82 3200 	smull	r3, r2, r2, r0
 80158b0:	17c3      	asrs	r3, r0, #31
 80158b2:	ebc3 03a2 	rsb	r3, r3, r2, asr #2
 80158b6:	eb03 0383 	add.w	r3, r3, r3, lsl #2
 80158ba:	eba0 0343 	sub.w	r3, r0, r3, lsl #1
 80158be:	f1c3 0330 	rsb	r3, r3, #48	; 0x30
 80158c2:	f88d 3005 	strb.w	r3, [sp, #5]
 80158c6:	f06f 0309 	mvn.w	r3, #9
 80158ca:	e7ba      	b.n	8015842 <_prtl10+0x2a>
 80158cc:	2b00      	cmp	r3, #0
 80158ce:	dadc      	bge.n	801588a <_prtl10+0x72>
 80158d0:	e7e8      	b.n	80158a4 <_prtl10+0x8c>
 80158d2:	230a      	movs	r3, #10
 80158d4:	e7d9      	b.n	801588a <_prtl10+0x72>
 80158d6:	bf00      	nop
 80158d8:	66666667 	.word	0x66666667

080158dc <_prtl8>:
 80158dc:	b410      	push	{r4}
 80158de:	b085      	sub	sp, #20
 80158e0:	2300      	movs	r3, #0
 80158e2:	f88d 3004 	strb.w	r3, [sp, #4]
 80158e6:	aa01      	add	r2, sp, #4
 80158e8:	f10d 040f 	add.w	r4, sp, #15
 80158ec:	f000 0307 	and.w	r3, r0, #7
 80158f0:	3330      	adds	r3, #48	; 0x30
 80158f2:	f802 3f01 	strb.w	r3, [r2, #1]!
 80158f6:	10c0      	asrs	r0, r0, #3
 80158f8:	42a2      	cmp	r2, r4
 80158fa:	d1f7      	bne.n	80158ec <_prtl8+0x10>
 80158fc:	f89d 300f 	ldrb.w	r3, [sp, #15]
 8015900:	f003 0333 	and.w	r3, r3, #51	; 0x33
 8015904:	f88d 300f 	strb.w	r3, [sp, #15]
 8015908:	2b30      	cmp	r3, #48	; 0x30
 801590a:	d11d      	bne.n	8015948 <_prtl8+0x6c>
 801590c:	f10d 020f 	add.w	r2, sp, #15
 8015910:	230b      	movs	r3, #11
 8015912:	3b01      	subs	r3, #1
 8015914:	f812 0d01 	ldrb.w	r0, [r2, #-1]!
 8015918:	2830      	cmp	r0, #48	; 0x30
 801591a:	d0fa      	beq.n	8015912 <_prtl8+0x36>
 801591c:	b98b      	cbnz	r3, 8015942 <_prtl8+0x66>
 801591e:	2301      	movs	r3, #1
 8015920:	461c      	mov	r4, r3
 8015922:	aa04      	add	r2, sp, #16
 8015924:	4413      	add	r3, r2
 8015926:	3b0b      	subs	r3, #11
 8015928:	1e48      	subs	r0, r1, #1
 801592a:	f813 2d01 	ldrb.w	r2, [r3, #-1]!
 801592e:	f800 2f01 	strb.w	r2, [r0, #1]!
 8015932:	43c2      	mvns	r2, r0
 8015934:	440a      	add	r2, r1
 8015936:	42e2      	cmn	r2, r4
 8015938:	d5f7      	bpl.n	801592a <_prtl8+0x4e>
 801593a:	b005      	add	sp, #20
 801593c:	f85d 4b04 	ldr.w	r4, [sp], #4
 8015940:	4770      	bx	lr
 8015942:	2b00      	cmp	r3, #0
 8015944:	daec      	bge.n	8015920 <_prtl8+0x44>
 8015946:	e7f8      	b.n	801593a <_prtl8+0x5e>
 8015948:	230b      	movs	r3, #11
 801594a:	e7e9      	b.n	8015920 <_prtl8+0x44>

0801594c <_prtl16>:
 801594c:	b430      	push	{r4, r5}
 801594e:	b084      	sub	sp, #16
 8015950:	2300      	movs	r3, #0
 8015952:	f88d 3004 	strb.w	r3, [sp, #4]
 8015956:	f10d 0305 	add.w	r3, sp, #5
 801595a:	f10d 050d 	add.w	r5, sp, #13
 801595e:	4c16      	ldr	r4, [pc, #88]	; (80159b8 <_prtl16+0x6c>)
 8015960:	f000 020f 	and.w	r2, r0, #15
 8015964:	5ca2      	ldrb	r2, [r4, r2]
 8015966:	f803 2b01 	strb.w	r2, [r3], #1
 801596a:	1100      	asrs	r0, r0, #4
 801596c:	42ab      	cmp	r3, r5
 801596e:	d1f7      	bne.n	8015960 <_prtl16+0x14>
 8015970:	f89d 300c 	ldrb.w	r3, [sp, #12]
 8015974:	2b30      	cmp	r3, #48	; 0x30
 8015976:	d11c      	bne.n	80159b2 <_prtl16+0x66>
 8015978:	f10d 020b 	add.w	r2, sp, #11
 801597c:	2308      	movs	r3, #8
 801597e:	3b01      	subs	r3, #1
 8015980:	f812 0901 	ldrb.w	r0, [r2], #-1
 8015984:	2830      	cmp	r0, #48	; 0x30
 8015986:	d0fa      	beq.n	801597e <_prtl16+0x32>
 8015988:	b983      	cbnz	r3, 80159ac <_prtl16+0x60>
 801598a:	2301      	movs	r3, #1
 801598c:	461c      	mov	r4, r3
 801598e:	aa04      	add	r2, sp, #16
 8015990:	4413      	add	r3, r2
 8015992:	3b0b      	subs	r3, #11
 8015994:	1e48      	subs	r0, r1, #1
 8015996:	f813 2d01 	ldrb.w	r2, [r3, #-1]!
 801599a:	f800 2f01 	strb.w	r2, [r0, #1]!
 801599e:	43c2      	mvns	r2, r0
 80159a0:	440a      	add	r2, r1
 80159a2:	42e2      	cmn	r2, r4
 80159a4:	d5f7      	bpl.n	8015996 <_prtl16+0x4a>
 80159a6:	b004      	add	sp, #16
 80159a8:	bc30      	pop	{r4, r5}
 80159aa:	4770      	bx	lr
 80159ac:	2b00      	cmp	r3, #0
 80159ae:	daed      	bge.n	801598c <_prtl16+0x40>
 80159b0:	e7f9      	b.n	80159a6 <_prtl16+0x5a>
 80159b2:	2308      	movs	r3, #8
 80159b4:	e7ea      	b.n	801598c <_prtl16+0x40>
 80159b6:	bf00      	nop
 80159b8:	0801997c 	.word	0x0801997c

080159bc <_prtX16>:
 80159bc:	b430      	push	{r4, r5}
 80159be:	b084      	sub	sp, #16
 80159c0:	2300      	movs	r3, #0
 80159c2:	f88d 3004 	strb.w	r3, [sp, #4]
 80159c6:	f10d 0305 	add.w	r3, sp, #5
 80159ca:	f10d 050d 	add.w	r5, sp, #13
 80159ce:	4c16      	ldr	r4, [pc, #88]	; (8015a28 <_prtX16+0x6c>)
 80159d0:	f000 020f 	and.w	r2, r0, #15
 80159d4:	5ca2      	ldrb	r2, [r4, r2]
 80159d6:	f803 2b01 	strb.w	r2, [r3], #1
 80159da:	1100      	asrs	r0, r0, #4
 80159dc:	42ab      	cmp	r3, r5
 80159de:	d1f7      	bne.n	80159d0 <_prtX16+0x14>
 80159e0:	f89d 300c 	ldrb.w	r3, [sp, #12]
 80159e4:	2b30      	cmp	r3, #48	; 0x30
 80159e6:	d11c      	bne.n	8015a22 <_prtX16+0x66>
 80159e8:	f10d 020b 	add.w	r2, sp, #11
 80159ec:	2308      	movs	r3, #8
 80159ee:	3b01      	subs	r3, #1
 80159f0:	f812 0901 	ldrb.w	r0, [r2], #-1
 80159f4:	2830      	cmp	r0, #48	; 0x30
 80159f6:	d0fa      	beq.n	80159ee <_prtX16+0x32>
 80159f8:	b983      	cbnz	r3, 8015a1c <_prtX16+0x60>
 80159fa:	2301      	movs	r3, #1
 80159fc:	461c      	mov	r4, r3
 80159fe:	aa04      	add	r2, sp, #16
 8015a00:	4413      	add	r3, r2
 8015a02:	3b0b      	subs	r3, #11
 8015a04:	1e48      	subs	r0, r1, #1
 8015a06:	f813 2d01 	ldrb.w	r2, [r3, #-1]!
 8015a0a:	f800 2f01 	strb.w	r2, [r0, #1]!
 8015a0e:	43c2      	mvns	r2, r0
 8015a10:	440a      	add	r2, r1
 8015a12:	42e2      	cmn	r2, r4
 8015a14:	d5f7      	bpl.n	8015a06 <_prtX16+0x4a>
 8015a16:	b004      	add	sp, #16
 8015a18:	bc30      	pop	{r4, r5}
 8015a1a:	4770      	bx	lr
 8015a1c:	2b00      	cmp	r3, #0
 8015a1e:	daed      	bge.n	80159fc <_prtX16+0x40>
 8015a20:	e7f9      	b.n	8015a16 <_prtX16+0x5a>
 8015a22:	2308      	movs	r3, #8
 8015a24:	e7ea      	b.n	80159fc <_prtX16+0x40>
 8015a26:	bf00      	nop
 8015a28:	08019990 	.word	0x08019990

08015a2c <_prtl2>:
 8015a2c:	b410      	push	{r4}
 8015a2e:	b08b      	sub	sp, #44	; 0x2c
 8015a30:	2300      	movs	r3, #0
 8015a32:	f88d 3004 	strb.w	r3, [sp, #4]
 8015a36:	aa01      	add	r2, sp, #4
 8015a38:	ac09      	add	r4, sp, #36	; 0x24
 8015a3a:	f000 0301 	and.w	r3, r0, #1
 8015a3e:	3330      	adds	r3, #48	; 0x30
 8015a40:	f802 3f01 	strb.w	r3, [r2, #1]!
 8015a44:	1040      	asrs	r0, r0, #1
 8015a46:	42a2      	cmp	r2, r4
 8015a48:	d1f7      	bne.n	8015a3a <_prtl2+0xe>
 8015a4a:	f89d 3024 	ldrb.w	r3, [sp, #36]	; 0x24
 8015a4e:	2b30      	cmp	r3, #48	; 0x30
 8015a50:	d11c      	bne.n	8015a8c <_prtl2+0x60>
 8015a52:	aa09      	add	r2, sp, #36	; 0x24
 8015a54:	2320      	movs	r3, #32
 8015a56:	3b01      	subs	r3, #1
 8015a58:	f812 0d01 	ldrb.w	r0, [r2, #-1]!
 8015a5c:	2830      	cmp	r0, #48	; 0x30
 8015a5e:	d0fa      	beq.n	8015a56 <_prtl2+0x2a>
 8015a60:	b98b      	cbnz	r3, 8015a86 <_prtl2+0x5a>
 8015a62:	2301      	movs	r3, #1
 8015a64:	461c      	mov	r4, r3
 8015a66:	aa0a      	add	r2, sp, #40	; 0x28
 8015a68:	4413      	add	r3, r2
 8015a6a:	3b23      	subs	r3, #35	; 0x23
 8015a6c:	1e48      	subs	r0, r1, #1
 8015a6e:	f813 2d01 	ldrb.w	r2, [r3, #-1]!
 8015a72:	f800 2f01 	strb.w	r2, [r0, #1]!
 8015a76:	43c2      	mvns	r2, r0
 8015a78:	440a      	add	r2, r1
 8015a7a:	42e2      	cmn	r2, r4
 8015a7c:	d5f7      	bpl.n	8015a6e <_prtl2+0x42>
 8015a7e:	b00b      	add	sp, #44	; 0x2c
 8015a80:	f85d 4b04 	ldr.w	r4, [sp], #4
 8015a84:	4770      	bx	lr
 8015a86:	2b00      	cmp	r3, #0
 8015a88:	daec      	bge.n	8015a64 <_prtl2+0x38>
 8015a8a:	e7f8      	b.n	8015a7e <_prtl2+0x52>
 8015a8c:	2320      	movs	r3, #32
 8015a8e:	e7e9      	b.n	8015a64 <_prtl2+0x38>

08015a90 <_doprnt>:
 8015a90:	e92d 4ff0 	stmdb	sp!, {r4, r5, r6, r7, r8, r9, sl, fp, lr}
 8015a94:	b08b      	sub	sp, #44	; 0x2c
 8015a96:	9001      	str	r0, [sp, #4]
 8015a98:	4615      	mov	r5, r2
 8015a9a:	9102      	str	r1, [sp, #8]
 8015a9c:	2300      	movs	r3, #0
 8015a9e:	9303      	str	r3, [sp, #12]
 8015aa0:	9c01      	ldr	r4, [sp, #4]
 8015aa2:	f814 0b01 	ldrb.w	r0, [r4], #1
 8015aa6:	2825      	cmp	r0, #37	; 0x25
 8015aa8:	d103      	bne.n	8015ab2 <_doprnt+0x22>
 8015aaa:	4623      	mov	r3, r4
 8015aac:	9c01      	ldr	r4, [sp, #4]
 8015aae:	e009      	b.n	8015ac4 <_doprnt+0x34>
 8015ab0:	461c      	mov	r4, r3
 8015ab2:	2800      	cmp	r0, #0
 8015ab4:	f000 809d 	beq.w	8015bf2 <_doprnt+0x162>
 8015ab8:	47a8      	blx	r5
 8015aba:	4623      	mov	r3, r4
 8015abc:	f813 0b01 	ldrb.w	r0, [r3], #1
 8015ac0:	2825      	cmp	r0, #37	; 0x25
 8015ac2:	d1f5      	bne.n	8015ab0 <_doprnt+0x20>
 8015ac4:	f893 8000 	ldrb.w	r8, [r3]
 8015ac8:	f1b8 0f25 	cmp.w	r8, #37	; 0x25
 8015acc:	d052      	beq.n	8015b74 <_doprnt+0xe4>
 8015ace:	f1b8 0f2d 	cmp.w	r8, #45	; 0x2d
 8015ad2:	bf08      	it	eq
 8015ad4:	1ca3      	addeq	r3, r4, #2
 8015ad6:	781f      	ldrb	r7, [r3, #0]
 8015ad8:	2f30      	cmp	r7, #48	; 0x30
 8015ada:	bf0c      	ite	eq
 8015adc:	3301      	addeq	r3, #1
 8015ade:	2720      	movne	r7, #32
 8015ae0:	781a      	ldrb	r2, [r3, #0]
 8015ae2:	2a2a      	cmp	r2, #42	; 0x2a
 8015ae4:	d14b      	bne.n	8015b7e <_doprnt+0xee>
 8015ae6:	9a02      	ldr	r2, [sp, #8]
 8015ae8:	f852 6b04 	ldr.w	r6, [r2], #4
 8015aec:	3301      	adds	r3, #1
 8015aee:	9202      	str	r2, [sp, #8]
 8015af0:	781a      	ldrb	r2, [r3, #0]
 8015af2:	2a2e      	cmp	r2, #46	; 0x2e
 8015af4:	d059      	beq.n	8015baa <_doprnt+0x11a>
 8015af6:	f04f 0900 	mov.w	r9, #0
 8015afa:	f813 0b01 	ldrb.w	r0, [r3], #1
 8015afe:	9301      	str	r3, [sp, #4]
 8015b00:	2800      	cmp	r0, #0
 8015b02:	d074      	beq.n	8015bee <_doprnt+0x15e>
 8015b04:	f1a0 0348 	sub.w	r3, r0, #72	; 0x48
 8015b08:	2b30      	cmp	r3, #48	; 0x30
 8015b0a:	f200 8136 	bhi.w	8015d7a <_doprnt+0x2ea>
 8015b0e:	e8df f013 	tbh	[pc, r3, lsl #1]
 8015b12:	00ff      	.short	0x00ff
 8015b14:	01340134 	.word	0x01340134
 8015b18:	01340134 	.word	0x01340134
 8015b1c:	01340134 	.word	0x01340134
 8015b20:	01340134 	.word	0x01340134
 8015b24:	01340134 	.word	0x01340134
 8015b28:	01340134 	.word	0x01340134
 8015b2c:	01340134 	.word	0x01340134
 8015b30:	00e50134 	.word	0x00e50134
 8015b34:	01340134 	.word	0x01340134
 8015b38:	01340134 	.word	0x01340134
 8015b3c:	01340134 	.word	0x01340134
 8015b40:	01340134 	.word	0x01340134
 8015b44:	01270134 	.word	0x01270134
 8015b48:	00a90073 	.word	0x00a90073
 8015b4c:	01390134 	.word	0x01390134
 8015b50:	01130134 	.word	0x01130134
 8015b54:	01340134 	.word	0x01340134
 8015b58:	01340134 	.word	0x01340134
 8015b5c:	01340134 	.word	0x01340134
 8015b60:	013400d8 	.word	0x013400d8
 8015b64:	01340134 	.word	0x01340134
 8015b68:	0134009e 	.word	0x0134009e
 8015b6c:	013400b8 	.word	0x013400b8
 8015b70:	00f20134 	.word	0x00f20134
 8015b74:	1ca3      	adds	r3, r4, #2
 8015b76:	9301      	str	r3, [sp, #4]
 8015b78:	2025      	movs	r0, #37	; 0x25
 8015b7a:	47a8      	blx	r5
 8015b7c:	e790      	b.n	8015aa0 <_doprnt+0x10>
 8015b7e:	f1a2 0130 	sub.w	r1, r2, #48	; 0x30
 8015b82:	b2c9      	uxtb	r1, r1
 8015b84:	2909      	cmp	r1, #9
 8015b86:	bf88      	it	hi
 8015b88:	2600      	movhi	r6, #0
 8015b8a:	d8b1      	bhi.n	8015af0 <_doprnt+0x60>
 8015b8c:	2600      	movs	r6, #0
 8015b8e:	eb06 0686 	add.w	r6, r6, r6, lsl #2
 8015b92:	eb02 0246 	add.w	r2, r2, r6, lsl #1
 8015b96:	f1a2 0630 	sub.w	r6, r2, #48	; 0x30
 8015b9a:	f813 2f01 	ldrb.w	r2, [r3, #1]!
 8015b9e:	f1a2 0130 	sub.w	r1, r2, #48	; 0x30
 8015ba2:	b2c9      	uxtb	r1, r1
 8015ba4:	2909      	cmp	r1, #9
 8015ba6:	d9f2      	bls.n	8015b8e <_doprnt+0xfe>
 8015ba8:	e7a2      	b.n	8015af0 <_doprnt+0x60>
 8015baa:	785a      	ldrb	r2, [r3, #1]
 8015bac:	2a2a      	cmp	r2, #42	; 0x2a
 8015bae:	d105      	bne.n	8015bbc <_doprnt+0x12c>
 8015bb0:	9a02      	ldr	r2, [sp, #8]
 8015bb2:	f852 9b04 	ldr.w	r9, [r2], #4
 8015bb6:	3302      	adds	r3, #2
 8015bb8:	9202      	str	r2, [sp, #8]
 8015bba:	e79e      	b.n	8015afa <_doprnt+0x6a>
 8015bbc:	3301      	adds	r3, #1
 8015bbe:	f1a2 0130 	sub.w	r1, r2, #48	; 0x30
 8015bc2:	b2c9      	uxtb	r1, r1
 8015bc4:	2909      	cmp	r1, #9
 8015bc6:	bf88      	it	hi
 8015bc8:	f04f 0900 	movhi.w	r9, #0
 8015bcc:	d895      	bhi.n	8015afa <_doprnt+0x6a>
 8015bce:	f04f 0900 	mov.w	r9, #0
 8015bd2:	eb09 0989 	add.w	r9, r9, r9, lsl #2
 8015bd6:	eb02 0249 	add.w	r2, r2, r9, lsl #1
 8015bda:	f1a2 0930 	sub.w	r9, r2, #48	; 0x30
 8015bde:	f813 2f01 	ldrb.w	r2, [r3, #1]!
 8015be2:	f1a2 0130 	sub.w	r1, r2, #48	; 0x30
 8015be6:	b2c9      	uxtb	r1, r1
 8015be8:	2909      	cmp	r1, #9
 8015bea:	d9f2      	bls.n	8015bd2 <_doprnt+0x142>
 8015bec:	e785      	b.n	8015afa <_doprnt+0x6a>
 8015bee:	2025      	movs	r0, #37	; 0x25
 8015bf0:	47a8      	blx	r5
 8015bf2:	b00b      	add	sp, #44	; 0x2c
 8015bf4:	e8bd 8ff0 	ldmia.w	sp!, {r4, r5, r6, r7, r8, r9, sl, fp, pc}
 8015bf8:	9b02      	ldr	r3, [sp, #8]
 8015bfa:	f853 2b04 	ldr.w	r2, [r3], #4
 8015bfe:	f88d 2014 	strb.w	r2, [sp, #20]
 8015c02:	f04f 0200 	mov.w	r2, #0
 8015c06:	f88d 2015 	strb.w	r2, [sp, #21]
 8015c0a:	9302      	str	r3, [sp, #8]
 8015c0c:	f8dd 900c 	ldr.w	r9, [sp, #12]
 8015c10:	46cb      	mov	fp, r9
 8015c12:	2720      	movs	r7, #32
 8015c14:	ac05      	add	r4, sp, #20
 8015c16:	7823      	ldrb	r3, [r4, #0]
 8015c18:	2b00      	cmp	r3, #0
 8015c1a:	f000 80bd 	beq.w	8015d98 <_doprnt+0x308>
 8015c1e:	4623      	mov	r3, r4
 8015c20:	f1c4 0101 	rsb	r1, r4, #1
 8015c24:	eb01 0a03 	add.w	sl, r1, r3
 8015c28:	f813 2f01 	ldrb.w	r2, [r3, #1]!
 8015c2c:	2a00      	cmp	r2, #0
 8015c2e:	d1f9      	bne.n	8015c24 <_doprnt+0x194>
 8015c30:	2e50      	cmp	r6, #80	; 0x50
 8015c32:	f200 80fa 	bhi.w	8015e2a <_doprnt+0x39a>
 8015c36:	f109 33ff 	add.w	r3, r9, #4294967295	; 0xffffffff
 8015c3a:	2b4f      	cmp	r3, #79	; 0x4f
 8015c3c:	f200 80af 	bhi.w	8015d9e <_doprnt+0x30e>
 8015c40:	45ca      	cmp	sl, r9
 8015c42:	bfa8      	it	ge
 8015c44:	46ca      	movge	sl, r9
 8015c46:	2e00      	cmp	r6, #0
 8015c48:	f000 80ad 	beq.w	8015da6 <_doprnt+0x316>
 8015c4c:	e0a9      	b.n	8015da2 <_doprnt+0x312>
 8015c4e:	9b02      	ldr	r3, [sp, #8]
 8015c50:	f853 4b04 	ldr.w	r4, [r3], #4
 8015c54:	2c00      	cmp	r4, #0
 8015c56:	f000 8099 	beq.w	8015d8c <_doprnt+0x2fc>
 8015c5a:	9302      	str	r3, [sp, #8]
 8015c5c:	f04f 0b00 	mov.w	fp, #0
 8015c60:	2720      	movs	r7, #32
 8015c62:	e7d8      	b.n	8015c16 <_doprnt+0x186>
 8015c64:	9c02      	ldr	r4, [sp, #8]
 8015c66:	f854 0b04 	ldr.w	r0, [r4], #4
 8015c6a:	2800      	cmp	r0, #0
 8015c6c:	bfac      	ite	ge
 8015c6e:	f04f 0b00 	movge.w	fp, #0
 8015c72:	f04f 0b2d 	movlt.w	fp, #45	; 0x2d
 8015c76:	a905      	add	r1, sp, #20
 8015c78:	f7ff fdce 	bl	8015818 <_prtl10>
 8015c7c:	9402      	str	r4, [sp, #8]
 8015c7e:	ac05      	add	r4, sp, #20
 8015c80:	e7c9      	b.n	8015c16 <_doprnt+0x186>
 8015c82:	9c02      	ldr	r4, [sp, #8]
 8015c84:	f854 0b04 	ldr.w	r0, [r4], #4
 8015c88:	2800      	cmp	r0, #0
 8015c8a:	da17      	bge.n	8015cbc <_doprnt+0x22c>
 8015c8c:	f04f 0900 	mov.w	r9, #0
 8015c90:	f109 0901 	add.w	r9, r9, #1
 8015c94:	fa5f f989 	uxtb.w	r9, r9
 8015c98:	4b6b      	ldr	r3, [pc, #428]	; (8015e48 <_doprnt+0x3b8>)
 8015c9a:	18c0      	adds	r0, r0, r3
 8015c9c:	d4f8      	bmi.n	8015c90 <_doprnt+0x200>
 8015c9e:	a905      	add	r1, sp, #20
 8015ca0:	f7ff fdba 	bl	8015818 <_prtl10>
 8015ca4:	f89d 3014 	ldrb.w	r3, [sp, #20]
 8015ca8:	4499      	add	r9, r3
 8015caa:	f88d 9014 	strb.w	r9, [sp, #20]
 8015cae:	9402      	str	r4, [sp, #8]
 8015cb0:	f04f 0b00 	mov.w	fp, #0
 8015cb4:	f8dd 900c 	ldr.w	r9, [sp, #12]
 8015cb8:	ac05      	add	r4, sp, #20
 8015cba:	e7ac      	b.n	8015c16 <_doprnt+0x186>
 8015cbc:	f04f 0900 	mov.w	r9, #0
 8015cc0:	e7ed      	b.n	8015c9e <_doprnt+0x20e>
 8015cc2:	9c02      	ldr	r4, [sp, #8]
 8015cc4:	a905      	add	r1, sp, #20
 8015cc6:	f854 0b04 	ldr.w	r0, [r4], #4
 8015cca:	f7ff fe07 	bl	80158dc <_prtl8>
 8015cce:	9402      	str	r4, [sp, #8]
 8015cd0:	f04f 0b00 	mov.w	fp, #0
 8015cd4:	f8dd 900c 	ldr.w	r9, [sp, #12]
 8015cd8:	ac05      	add	r4, sp, #20
 8015cda:	e79c      	b.n	8015c16 <_doprnt+0x186>
 8015cdc:	9c02      	ldr	r4, [sp, #8]
 8015cde:	a905      	add	r1, sp, #20
 8015ce0:	f854 0b04 	ldr.w	r0, [r4], #4
 8015ce4:	f7ff fe6a 	bl	80159bc <_prtX16>
 8015ce8:	9402      	str	r4, [sp, #8]
 8015cea:	f04f 0b00 	mov.w	fp, #0
 8015cee:	f8dd 900c 	ldr.w	r9, [sp, #12]
 8015cf2:	ac05      	add	r4, sp, #20
 8015cf4:	e78f      	b.n	8015c16 <_doprnt+0x186>
 8015cf6:	9c02      	ldr	r4, [sp, #8]
 8015cf8:	a905      	add	r1, sp, #20
 8015cfa:	f854 0b04 	ldr.w	r0, [r4], #4
 8015cfe:	f7ff fe25 	bl	801594c <_prtl16>
 8015d02:	9402      	str	r4, [sp, #8]
 8015d04:	f04f 0b00 	mov.w	fp, #0
 8015d08:	f8dd 900c 	ldr.w	r9, [sp, #12]
 8015d0c:	ac05      	add	r4, sp, #20
 8015d0e:	e782      	b.n	8015c16 <_doprnt+0x186>
 8015d10:	f8dd 9008 	ldr.w	r9, [sp, #8]
 8015d14:	464c      	mov	r4, r9
 8015d16:	a905      	add	r1, sp, #20
 8015d18:	f854 0b08 	ldr.w	r0, [r4], #8
 8015d1c:	f7ff fe4e 	bl	80159bc <_prtX16>
 8015d20:	a907      	add	r1, sp, #28
 8015d22:	f8d9 0004 	ldr.w	r0, [r9, #4]
 8015d26:	f7ff fe49 	bl	80159bc <_prtX16>
 8015d2a:	9402      	str	r4, [sp, #8]
 8015d2c:	f04f 0b00 	mov.w	fp, #0
 8015d30:	f8dd 900c 	ldr.w	r9, [sp, #12]
 8015d34:	ac05      	add	r4, sp, #20
 8015d36:	e76e      	b.n	8015c16 <_doprnt+0x186>
 8015d38:	f8dd 9008 	ldr.w	r9, [sp, #8]
 8015d3c:	464c      	mov	r4, r9
 8015d3e:	a905      	add	r1, sp, #20
 8015d40:	f854 0b08 	ldr.w	r0, [r4], #8
 8015d44:	f7ff fe02 	bl	801594c <_prtl16>
 8015d48:	a907      	add	r1, sp, #28
 8015d4a:	f8d9 0004 	ldr.w	r0, [r9, #4]
 8015d4e:	f7ff fdfd 	bl	801594c <_prtl16>
 8015d52:	9402      	str	r4, [sp, #8]
 8015d54:	f04f 0b00 	mov.w	fp, #0
 8015d58:	f8dd 900c 	ldr.w	r9, [sp, #12]
 8015d5c:	ac05      	add	r4, sp, #20
 8015d5e:	e75a      	b.n	8015c16 <_doprnt+0x186>
 8015d60:	9c02      	ldr	r4, [sp, #8]
 8015d62:	a905      	add	r1, sp, #20
 8015d64:	f854 0b04 	ldr.w	r0, [r4], #4
 8015d68:	f7ff fe60 	bl	8015a2c <_prtl2>
 8015d6c:	9402      	str	r4, [sp, #8]
 8015d6e:	f04f 0b00 	mov.w	fp, #0
 8015d72:	f8dd 900c 	ldr.w	r9, [sp, #12]
 8015d76:	ac05      	add	r4, sp, #20
 8015d78:	e74d      	b.n	8015c16 <_doprnt+0x186>
 8015d7a:	47a8      	blx	r5
 8015d7c:	f04f 0b00 	mov.w	fp, #0
 8015d80:	ac05      	add	r4, sp, #20
 8015d82:	e748      	b.n	8015c16 <_doprnt+0x186>
 8015d84:	f04f 0b00 	mov.w	fp, #0
 8015d88:	ac05      	add	r4, sp, #20
 8015d8a:	e744      	b.n	8015c16 <_doprnt+0x186>
 8015d8c:	9302      	str	r3, [sp, #8]
 8015d8e:	f04f 0b00 	mov.w	fp, #0
 8015d92:	2720      	movs	r7, #32
 8015d94:	4c2d      	ldr	r4, [pc, #180]	; (8015e4c <_doprnt+0x3bc>)
 8015d96:	e742      	b.n	8015c1e <_doprnt+0x18e>
 8015d98:	f04f 0a00 	mov.w	sl, #0
 8015d9c:	e748      	b.n	8015c30 <_doprnt+0x1a0>
 8015d9e:	2e00      	cmp	r6, #0
 8015da0:	d047      	beq.n	8015e32 <_doprnt+0x3a2>
 8015da2:	eba6 060a 	sub.w	r6, r6, sl
 8015da6:	f1bb 0f2d 	cmp.w	fp, #45	; 0x2d
 8015daa:	d027      	beq.n	8015dfc <_doprnt+0x36c>
 8015dac:	f1b8 0f2d 	cmp.w	r8, #45	; 0x2d
 8015db0:	d046      	beq.n	8015e40 <_doprnt+0x3b0>
 8015db2:	2e00      	cmp	r6, #0
 8015db4:	dd07      	ble.n	8015dc6 <_doprnt+0x336>
 8015db6:	f04f 0900 	mov.w	r9, #0
 8015dba:	4638      	mov	r0, r7
 8015dbc:	47a8      	blx	r5
 8015dbe:	f109 0901 	add.w	r9, r9, #1
 8015dc2:	45b1      	cmp	r9, r6
 8015dc4:	d1f9      	bne.n	8015dba <_doprnt+0x32a>
 8015dc6:	f1bb 0f2d 	cmp.w	fp, #45	; 0x2d
 8015dca:	d01d      	beq.n	8015e08 <_doprnt+0x378>
 8015dcc:	f1ba 0f00 	cmp.w	sl, #0
 8015dd0:	dd06      	ble.n	8015de0 <_doprnt+0x350>
 8015dd2:	3c01      	subs	r4, #1
 8015dd4:	44a2      	add	sl, r4
 8015dd6:	f814 0f01 	ldrb.w	r0, [r4, #1]!
 8015dda:	47a8      	blx	r5
 8015ddc:	45a2      	cmp	sl, r4
 8015dde:	d1fa      	bne.n	8015dd6 <_doprnt+0x346>
 8015de0:	f1b8 0f2d 	cmp.w	r8, #45	; 0x2d
 8015de4:	f47f ae5c 	bne.w	8015aa0 <_doprnt+0x10>
 8015de8:	2e00      	cmp	r6, #0
 8015dea:	f77f ae59 	ble.w	8015aa0 <_doprnt+0x10>
 8015dee:	2400      	movs	r4, #0
 8015df0:	4638      	mov	r0, r7
 8015df2:	47a8      	blx	r5
 8015df4:	3401      	adds	r4, #1
 8015df6:	42a6      	cmp	r6, r4
 8015df8:	d1fa      	bne.n	8015df0 <_doprnt+0x360>
 8015dfa:	e651      	b.n	8015aa0 <_doprnt+0x10>
 8015dfc:	3e01      	subs	r6, #1
 8015dfe:	2f30      	cmp	r7, #48	; 0x30
 8015e00:	d009      	beq.n	8015e16 <_doprnt+0x386>
 8015e02:	f1b8 0f2d 	cmp.w	r8, #45	; 0x2d
 8015e06:	d1d4      	bne.n	8015db2 <_doprnt+0x322>
 8015e08:	2f20      	cmp	r7, #32
 8015e0a:	d1df      	bne.n	8015dcc <_doprnt+0x33c>
 8015e0c:	202d      	movs	r0, #45	; 0x2d
 8015e0e:	47a8      	blx	r5
 8015e10:	e7dc      	b.n	8015dcc <_doprnt+0x33c>
 8015e12:	2600      	movs	r6, #0
 8015e14:	e7f3      	b.n	8015dfe <_doprnt+0x36e>
 8015e16:	202d      	movs	r0, #45	; 0x2d
 8015e18:	47a8      	blx	r5
 8015e1a:	f1b8 0f2d 	cmp.w	r8, #45	; 0x2d
 8015e1e:	d00f      	beq.n	8015e40 <_doprnt+0x3b0>
 8015e20:	e7c7      	b.n	8015db2 <_doprnt+0x322>
 8015e22:	2600      	movs	r6, #0
 8015e24:	e7cf      	b.n	8015dc6 <_doprnt+0x336>
 8015e26:	2600      	movs	r6, #0
 8015e28:	e70a      	b.n	8015c40 <_doprnt+0x1b0>
 8015e2a:	f109 33ff 	add.w	r3, r9, #4294967295	; 0xffffffff
 8015e2e:	2b4f      	cmp	r3, #79	; 0x4f
 8015e30:	d9f9      	bls.n	8015e26 <_doprnt+0x396>
 8015e32:	f1bb 0f2d 	cmp.w	fp, #45	; 0x2d
 8015e36:	d0ec      	beq.n	8015e12 <_doprnt+0x382>
 8015e38:	f1b8 0f2d 	cmp.w	r8, #45	; 0x2d
 8015e3c:	d1f1      	bne.n	8015e22 <_doprnt+0x392>
 8015e3e:	2600      	movs	r6, #0
 8015e40:	f1ba 0f00 	cmp.w	sl, #0
 8015e44:	dcc5      	bgt.n	8015dd2 <_doprnt+0x342>
 8015e46:	e7cf      	b.n	8015de8 <_doprnt+0x358>
 8015e48:	c4653600 	.word	0xc4653600
 8015e4c:	080199a4 	.word	0x080199a4

08015e50 <qsexc>:
 8015e50:	b410      	push	{r4}
 8015e52:	4b07      	ldr	r3, [pc, #28]	; (8015e70 <qsexc+0x20>)
 8015e54:	681c      	ldr	r4, [r3, #0]
 8015e56:	4404      	add	r4, r0
 8015e58:	7803      	ldrb	r3, [r0, #0]
 8015e5a:	780a      	ldrb	r2, [r1, #0]
 8015e5c:	f800 2b01 	strb.w	r2, [r0], #1
 8015e60:	f801 3b01 	strb.w	r3, [r1], #1
 8015e64:	42a0      	cmp	r0, r4
 8015e66:	d1f7      	bne.n	8015e58 <qsexc+0x8>
 8015e68:	f85d 4b04 	ldr.w	r4, [sp], #4
 8015e6c:	4770      	bx	lr
 8015e6e:	bf00      	nop
 8015e70:	200000a0 	.word	0x200000a0

08015e74 <qstexc>:
 8015e74:	b430      	push	{r4, r5}
 8015e76:	4b08      	ldr	r3, [pc, #32]	; (8015e98 <qstexc+0x24>)
 8015e78:	681d      	ldr	r5, [r3, #0]
 8015e7a:	4405      	add	r5, r0
 8015e7c:	7803      	ldrb	r3, [r0, #0]
 8015e7e:	7814      	ldrb	r4, [r2, #0]
 8015e80:	f800 4b01 	strb.w	r4, [r0], #1
 8015e84:	780c      	ldrb	r4, [r1, #0]
 8015e86:	f802 4b01 	strb.w	r4, [r2], #1
 8015e8a:	f801 3b01 	strb.w	r3, [r1], #1
 8015e8e:	42a8      	cmp	r0, r5
 8015e90:	d1f4      	bne.n	8015e7c <qstexc+0x8>
 8015e92:	bc30      	pop	{r4, r5}
 8015e94:	4770      	bx	lr
 8015e96:	bf00      	nop
 8015e98:	200000a0 	.word	0x200000a0

08015e9c <qs1>:
 8015e9c:	e92d 4ff0 	stmdb	sp!, {r4, r5, r6, r7, r8, r9, sl, fp, lr}
 8015ea0:	b083      	sub	sp, #12
 8015ea2:	9100      	str	r1, [sp, #0]
 8015ea4:	4b3e      	ldr	r3, [pc, #248]	; (8015fa0 <qs1+0x104>)
 8015ea6:	681a      	ldr	r2, [r3, #0]
 8015ea8:	1a0b      	subs	r3, r1, r0
 8015eaa:	4293      	cmp	r3, r2
 8015eac:	d974      	bls.n	8015f98 <qs1+0xfc>
 8015eae:	4683      	mov	fp, r0
 8015eb0:	4691      	mov	r9, r2
 8015eb2:	0052      	lsls	r2, r2, #1
 8015eb4:	9201      	str	r2, [sp, #4]
 8015eb6:	f1c9 0a00 	rsb	sl, r9, #0
 8015eba:	f8df 80e4 	ldr.w	r8, [pc, #228]	; 8015fa0 <qs1+0x104>
 8015ebe:	e059      	b.n	8015f74 <qs1+0xd8>
 8015ec0:	f8d8 3004 	ldr.w	r3, [r8, #4]
 8015ec4:	4639      	mov	r1, r7
 8015ec6:	4628      	mov	r0, r5
 8015ec8:	4798      	blx	r3
 8015eca:	b120      	cbz	r0, 8015ed6 <qs1+0x3a>
 8015ecc:	2800      	cmp	r0, #0
 8015ece:	db08      	blt.n	8015ee2 <qs1+0x46>
 8015ed0:	42b4      	cmp	r4, r6
 8015ed2:	d81d      	bhi.n	8015f10 <qs1+0x74>
 8015ed4:	e033      	b.n	8015f3e <qs1+0xa2>
 8015ed6:	4457      	add	r7, sl
 8015ed8:	4639      	mov	r1, r7
 8015eda:	4628      	mov	r0, r5
 8015edc:	f7ff ffb8 	bl	8015e50 <qsexc>
 8015ee0:	e027      	b.n	8015f32 <qs1+0x96>
 8015ee2:	444d      	add	r5, r9
 8015ee4:	e025      	b.n	8015f32 <qs1+0x96>
 8015ee6:	444e      	add	r6, r9
 8015ee8:	4621      	mov	r1, r4
 8015eea:	4630      	mov	r0, r6
 8015eec:	f7ff ffb0 	bl	8015e50 <qsexc>
 8015ef0:	e00c      	b.n	8015f0c <qs1+0x70>
 8015ef2:	444e      	add	r6, r9
 8015ef4:	4622      	mov	r2, r4
 8015ef6:	4631      	mov	r1, r6
 8015ef8:	4628      	mov	r0, r5
 8015efa:	f7ff ffbb 	bl	8015e74 <qstexc>
 8015efe:	eb07 0509 	add.w	r5, r7, r9
 8015f02:	42a6      	cmp	r6, r4
 8015f04:	d226      	bcs.n	8015f54 <qs1+0xb8>
 8015f06:	462f      	mov	r7, r5
 8015f08:	e002      	b.n	8015f10 <qs1+0x74>
 8015f0a:	4454      	add	r4, sl
 8015f0c:	42b4      	cmp	r4, r6
 8015f0e:	d914      	bls.n	8015f3a <qs1+0x9e>
 8015f10:	f8d8 3004 	ldr.w	r3, [r8, #4]
 8015f14:	4621      	mov	r1, r4
 8015f16:	4630      	mov	r0, r6
 8015f18:	4798      	blx	r3
 8015f1a:	2800      	cmp	r0, #0
 8015f1c:	d0e3      	beq.n	8015ee6 <qs1+0x4a>
 8015f1e:	2800      	cmp	r0, #0
 8015f20:	ddf3      	ble.n	8015f0a <qs1+0x6e>
 8015f22:	42bd      	cmp	r5, r7
 8015f24:	d0e5      	beq.n	8015ef2 <qs1+0x56>
 8015f26:	4621      	mov	r1, r4
 8015f28:	4628      	mov	r0, r5
 8015f2a:	f7ff ff91 	bl	8015e50 <qsexc>
 8015f2e:	4454      	add	r4, sl
 8015f30:	444d      	add	r5, r9
 8015f32:	42bd      	cmp	r5, r7
 8015f34:	d3c4      	bcc.n	8015ec0 <qs1+0x24>
 8015f36:	42b4      	cmp	r4, r6
 8015f38:	d8ea      	bhi.n	8015f10 <qs1+0x74>
 8015f3a:	42bd      	cmp	r5, r7
 8015f3c:	d009      	beq.n	8015f52 <qs1+0xb6>
 8015f3e:	4457      	add	r7, sl
 8015f40:	462a      	mov	r2, r5
 8015f42:	4639      	mov	r1, r7
 8015f44:	4620      	mov	r0, r4
 8015f46:	f7ff ff95 	bl	8015e74 <qstexc>
 8015f4a:	eb06 040a 	add.w	r4, r6, sl
 8015f4e:	4626      	mov	r6, r4
 8015f50:	e7ef      	b.n	8015f32 <qs1+0x96>
 8015f52:	463d      	mov	r5, r7
 8015f54:	eba5 030b 	sub.w	r3, r5, fp
 8015f58:	9900      	ldr	r1, [sp, #0]
 8015f5a:	1b8a      	subs	r2, r1, r6
 8015f5c:	4293      	cmp	r3, r2
 8015f5e:	db14      	blt.n	8015f8a <qs1+0xee>
 8015f60:	eb06 0009 	add.w	r0, r6, r9
 8015f64:	f7ff ff9a 	bl	8015e9c <qs1>
 8015f68:	9500      	str	r5, [sp, #0]
 8015f6a:	9b00      	ldr	r3, [sp, #0]
 8015f6c:	eba3 030b 	sub.w	r3, r3, fp
 8015f70:	454b      	cmp	r3, r9
 8015f72:	d911      	bls.n	8015f98 <qs1+0xfc>
 8015f74:	9a01      	ldr	r2, [sp, #4]
 8015f76:	fbb3 f3f2 	udiv	r3, r3, r2
 8015f7a:	fb09 b703 	mla	r7, r9, r3, fp
 8015f7e:	9b00      	ldr	r3, [sp, #0]
 8015f80:	eb03 040a 	add.w	r4, r3, sl
 8015f84:	463e      	mov	r6, r7
 8015f86:	465d      	mov	r5, fp
 8015f88:	e7d3      	b.n	8015f32 <qs1+0x96>
 8015f8a:	4629      	mov	r1, r5
 8015f8c:	4658      	mov	r0, fp
 8015f8e:	f7ff ff85 	bl	8015e9c <qs1>
 8015f92:	eb06 0b09 	add.w	fp, r6, r9
 8015f96:	e7e8      	b.n	8015f6a <qs1+0xce>
 8015f98:	b003      	add	sp, #12
 8015f9a:	e8bd 8ff0 	ldmia.w	sp!, {r4, r5, r6, r7, r8, r9, sl, fp, pc}
 8015f9e:	bf00      	nop
 8015fa0:	200000a0 	.word	0x200000a0

08015fa4 <qsort>:
 8015fa4:	b510      	push	{r4, lr}
 8015fa6:	4c04      	ldr	r4, [pc, #16]	; (8015fb8 <qsort+0x14>)
 8015fa8:	6063      	str	r3, [r4, #4]
 8015faa:	6022      	str	r2, [r4, #0]
 8015fac:	fb01 0102 	mla	r1, r1, r2, r0
 8015fb0:	f7ff ff74 	bl	8015e9c <qs1>
 8015fb4:	bd10      	pop	{r4, pc}
 8015fb6:	bf00      	nop
 8015fb8:	200000a0 	.word	0x200000a0

08015fbc <kmerge>:
 8015fbc:	4603      	mov	r3, r0
 8015fbe:	b148      	cbz	r0, 8015fd4 <kmerge+0x18>
 8015fc0:	6802      	ldr	r2, [r0, #0]
 8015fc2:	f1b2 3fa1 	cmp.w	r2, #2711724449	; 0xa1a1a1a1
 8015fc6:	d105      	bne.n	8015fd4 <kmerge+0x18>
 8015fc8:	6882      	ldr	r2, [r0, #8]
 8015fca:	b11a      	cbz	r2, 8015fd4 <kmerge+0x18>
 8015fcc:	6811      	ldr	r1, [r2, #0]
 8015fce:	f1b1 3fa1 	cmp.w	r1, #2711724449	; 0xa1a1a1a1
 8015fd2:	d000      	beq.n	8015fd6 <kmerge+0x1a>
 8015fd4:	4770      	bx	lr
 8015fd6:	6841      	ldr	r1, [r0, #4]
 8015fd8:	6850      	ldr	r0, [r2, #4]
 8015fda:	4401      	add	r1, r0
 8015fdc:	6059      	str	r1, [r3, #4]
 8015fde:	6892      	ldr	r2, [r2, #8]
 8015fe0:	b102      	cbz	r2, 8015fe4 <kmerge+0x28>
 8015fe2:	60d3      	str	r3, [r2, #12]
 8015fe4:	689a      	ldr	r2, [r3, #8]
 8015fe6:	6892      	ldr	r2, [r2, #8]
 8015fe8:	609a      	str	r2, [r3, #8]
 8015fea:	e7f3      	b.n	8015fd4 <kmerge+0x18>

08015fec <malloc_init>:
 8015fec:	4b05      	ldr	r3, [pc, #20]	; (8016004 <malloc_init+0x18>)
 8015fee:	6018      	str	r0, [r3, #0]
 8015ff0:	f04f 32a1 	mov.w	r2, #2711724449	; 0xa1a1a1a1
 8015ff4:	6002      	str	r2, [r0, #0]
 8015ff6:	681b      	ldr	r3, [r3, #0]
 8015ff8:	6059      	str	r1, [r3, #4]
 8015ffa:	2200      	movs	r2, #0
 8015ffc:	609a      	str	r2, [r3, #8]
 8015ffe:	60da      	str	r2, [r3, #12]
 8016000:	4770      	bx	lr
 8016002:	bf00      	nop
 8016004:	200000a8 	.word	0x200000a8

08016008 <malloc>:
 8016008:	b538      	push	{r3, r4, r5, lr}
 801600a:	4604      	mov	r4, r0
 801600c:	f7ff f9ca 	bl	80153a4 <disable>
 8016010:	4605      	mov	r5, r0
 8016012:	4820      	ldr	r0, [pc, #128]	; (8016094 <malloc+0x8c>)
 8016014:	f7fa ff27 	bl	8010e66 <sem_wait>
 8016018:	f014 030f 	ands.w	r3, r4, #15
 801601c:	bf1c      	itt	ne
 801601e:	f104 0110 	addne.w	r1, r4, #16
 8016022:	1acc      	subne	r4, r1, r3
 8016024:	f104 0110 	add.w	r1, r4, #16
 8016028:	4b1b      	ldr	r3, [pc, #108]	; (8016098 <malloc+0x90>)
 801602a:	681c      	ldr	r4, [r3, #0]
 801602c:	b974      	cbnz	r4, 801604c <malloc+0x44>
 801602e:	481b      	ldr	r0, [pc, #108]	; (801609c <malloc+0x94>)
 8016030:	f7fa ff74 	bl	8010f1c <kprintf>
 8016034:	4817      	ldr	r0, [pc, #92]	; (8016094 <malloc+0x8c>)
 8016036:	f7fa ff33 	bl	8010ea0 <sem_signal>
 801603a:	4628      	mov	r0, r5
 801603c:	f7ff f9b6 	bl	80153ac <restore>
 8016040:	2400      	movs	r4, #0
 8016042:	4620      	mov	r0, r4
 8016044:	bd38      	pop	{r3, r4, r5, pc}
 8016046:	68a4      	ldr	r4, [r4, #8]
 8016048:	2c00      	cmp	r4, #0
 801604a:	d0f0      	beq.n	801602e <malloc+0x26>
 801604c:	6822      	ldr	r2, [r4, #0]
 801604e:	f1b2 3fa1 	cmp.w	r2, #2711724449	; 0xa1a1a1a1
 8016052:	d1f8      	bne.n	8016046 <malloc+0x3e>
 8016054:	6862      	ldr	r2, [r4, #4]
 8016056:	428a      	cmp	r2, r1
 8016058:	d3f5      	bcc.n	8016046 <malloc+0x3e>
 801605a:	1a8a      	subs	r2, r1, r2
 801605c:	2a20      	cmp	r2, #32
 801605e:	d80a      	bhi.n	8016076 <malloc+0x6e>
 8016060:	f04f 33bf 	mov.w	r3, #3217014719	; 0xbfbfbfbf
 8016064:	f844 3b10 	str.w	r3, [r4], #16
 8016068:	480a      	ldr	r0, [pc, #40]	; (8016094 <malloc+0x8c>)
 801606a:	f7fa ff19 	bl	8010ea0 <sem_signal>
 801606e:	4628      	mov	r0, r5
 8016070:	f7ff f99c 	bl	80153ac <restore>
 8016074:	e7e5      	b.n	8016042 <malloc+0x3a>
 8016076:	1862      	adds	r2, r4, r1
 8016078:	f04f 30a1 	mov.w	r0, #2711724449	; 0xa1a1a1a1
 801607c:	5060      	str	r0, [r4, r1]
 801607e:	6860      	ldr	r0, [r4, #4]
 8016080:	1a40      	subs	r0, r0, r1
 8016082:	6050      	str	r0, [r2, #4]
 8016084:	60d4      	str	r4, [r2, #12]
 8016086:	68a0      	ldr	r0, [r4, #8]
 8016088:	6090      	str	r0, [r2, #8]
 801608a:	b100      	cbz	r0, 801608e <malloc+0x86>
 801608c:	60c2      	str	r2, [r0, #12]
 801608e:	60a2      	str	r2, [r4, #8]
 8016090:	6061      	str	r1, [r4, #4]
 8016092:	e7e5      	b.n	8016060 <malloc+0x58>
 8016094:	20000d74 	.word	0x20000d74
 8016098:	200000a8 	.word	0x200000a8
 801609c:	080199ac 	.word	0x080199ac

080160a0 <free>:
 80160a0:	b538      	push	{r3, r4, r5, lr}
 80160a2:	4604      	mov	r4, r0
 80160a4:	f7ff f97e 	bl	80153a4 <disable>
 80160a8:	4605      	mov	r5, r0
 80160aa:	4812      	ldr	r0, [pc, #72]	; (80160f4 <free+0x54>)
 80160ac:	f7fa fedb 	bl	8010e66 <sem_wait>
 80160b0:	f854 3c10 	ldr.w	r3, [r4, #-16]
 80160b4:	f1b3 3fbf 	cmp.w	r3, #3217014719	; 0xbfbfbfbf
 80160b8:	d00a      	beq.n	80160d0 <free+0x30>
 80160ba:	4621      	mov	r1, r4
 80160bc:	480e      	ldr	r0, [pc, #56]	; (80160f8 <free+0x58>)
 80160be:	f7fa ff2d 	bl	8010f1c <kprintf>
 80160c2:	480c      	ldr	r0, [pc, #48]	; (80160f4 <free+0x54>)
 80160c4:	f7fa feec 	bl	8010ea0 <sem_signal>
 80160c8:	4628      	mov	r0, r5
 80160ca:	f7ff f96f 	bl	80153ac <restore>
 80160ce:	bd38      	pop	{r3, r4, r5, pc}
 80160d0:	4620      	mov	r0, r4
 80160d2:	f04f 33a1 	mov.w	r3, #2711724449	; 0xa1a1a1a1
 80160d6:	f840 3d10 	str.w	r3, [r0, #-16]!
 80160da:	f7ff ff6f 	bl	8015fbc <kmerge>
 80160de:	f854 0c04 	ldr.w	r0, [r4, #-4]
 80160e2:	f7ff ff6b 	bl	8015fbc <kmerge>
 80160e6:	4803      	ldr	r0, [pc, #12]	; (80160f4 <free+0x54>)
 80160e8:	f7fa feda 	bl	8010ea0 <sem_signal>
 80160ec:	4628      	mov	r0, r5
 80160ee:	f7ff f95d 	bl	80153ac <restore>
 80160f2:	e7ec      	b.n	80160ce <free+0x2e>
 80160f4:	20000d74 	.word	0x20000d74
 80160f8:	080199c8 	.word	0x080199c8

080160fc <malloc_debug>:
 80160fc:	e92d 41f0 	stmdb	sp!, {r4, r5, r6, r7, r8, lr}
 8016100:	f7ff f950 	bl	80153a4 <disable>
 8016104:	4607      	mov	r7, r0
 8016106:	4b16      	ldr	r3, [pc, #88]	; (8016160 <malloc_debug+0x64>)
 8016108:	681c      	ldr	r4, [r3, #0]
 801610a:	b324      	cbz	r4, 8016156 <malloc_debug+0x5a>
 801610c:	4e15      	ldr	r6, [pc, #84]	; (8016164 <malloc_debug+0x68>)
 801610e:	f8df 8068 	ldr.w	r8, [pc, #104]	; 8016178 <malloc_debug+0x7c>
 8016112:	4d15      	ldr	r5, [pc, #84]	; (8016168 <malloc_debug+0x6c>)
 8016114:	e00f      	b.n	8016136 <malloc_debug+0x3a>
 8016116:	4640      	mov	r0, r8
 8016118:	f7fa ff00 	bl	8010f1c <kprintf>
 801611c:	4621      	mov	r1, r4
 801611e:	4628      	mov	r0, r5
 8016120:	f7fa fefc 	bl	8010f1c <kprintf>
 8016124:	6861      	ldr	r1, [r4, #4]
 8016126:	4811      	ldr	r0, [pc, #68]	; (801616c <malloc_debug+0x70>)
 8016128:	f7fa fef8 	bl	8010f1c <kprintf>
 801612c:	4810      	ldr	r0, [pc, #64]	; (8016170 <malloc_debug+0x74>)
 801612e:	f7fa fef5 	bl	8010f1c <kprintf>
 8016132:	68a4      	ldr	r4, [r4, #8]
 8016134:	b17c      	cbz	r4, 8016156 <malloc_debug+0x5a>
 8016136:	6823      	ldr	r3, [r4, #0]
 8016138:	f1b3 3fa1 	cmp.w	r3, #2711724449	; 0xa1a1a1a1
 801613c:	d0eb      	beq.n	8016116 <malloc_debug+0x1a>
 801613e:	f1b3 3fbf 	cmp.w	r3, #3217014719	; 0xbfbfbfbf
 8016142:	d103      	bne.n	801614c <malloc_debug+0x50>
 8016144:	4630      	mov	r0, r6
 8016146:	f7fa fee9 	bl	8010f1c <kprintf>
 801614a:	e7e7      	b.n	801611c <malloc_debug+0x20>
 801614c:	4621      	mov	r1, r4
 801614e:	4809      	ldr	r0, [pc, #36]	; (8016174 <malloc_debug+0x78>)
 8016150:	f7fa fee4 	bl	8010f1c <kprintf>
 8016154:	e002      	b.n	801615c <malloc_debug+0x60>
 8016156:	4638      	mov	r0, r7
 8016158:	f7ff f928 	bl	80153ac <restore>
 801615c:	e8bd 81f0 	ldmia.w	sp!, {r4, r5, r6, r7, r8, pc}
 8016160:	200000a8 	.word	0x200000a8
 8016164:	08019528 	.word	0x08019528
 8016168:	08019550 	.word	0x08019550
 801616c:	08019558 	.word	0x08019558
 8016170:	0801934c 	.word	0x0801934c
 8016174:	08019530 	.word	0x08019530
 8016178:	08019520 	.word	0x08019520

0801617c <testmem>:
 801617c:	b5f0      	push	{r4, r5, r6, r7, lr}
 801617e:	b08d      	sub	sp, #52	; 0x34
 8016180:	ac01      	add	r4, sp, #4
 8016182:	ae06      	add	r6, sp, #24
 8016184:	4625      	mov	r5, r4
 8016186:	f242 7710 	movw	r7, #10000	; 0x2710
 801618a:	4638      	mov	r0, r7
 801618c:	f7ff ff3c 	bl	8016008 <malloc>
 8016190:	f845 0b04 	str.w	r0, [r5], #4
 8016194:	42b5      	cmp	r5, r6
 8016196:	d1f8      	bne.n	801618a <testmem+0xe>
 8016198:	f7ff ffb0 	bl	80160fc <malloc_debug>
 801619c:	f854 0b04 	ldr.w	r0, [r4], #4
 80161a0:	f7ff ff7e 	bl	80160a0 <free>
 80161a4:	42b4      	cmp	r4, r6
 80161a6:	d1f9      	bne.n	801619c <testmem+0x20>
 80161a8:	f7ff ffa8 	bl	80160fc <malloc_debug>
 80161ac:	b00d      	add	sp, #52	; 0x34
 80161ae:	bdf0      	pop	{r4, r5, r6, r7, pc}

080161b0 <rand>:
 80161b0:	4a08      	ldr	r2, [pc, #32]	; (80161d4 <rand+0x24>)
 80161b2:	6811      	ldr	r1, [r2, #0]
 80161b4:	f244 13a7 	movw	r3, #16807	; 0x41a7
 80161b8:	fb03 f301 	mul.w	r3, r3, r1
 80161bc:	2003      	movs	r0, #3
 80161be:	fba0 1003 	umull	r1, r0, r0, r3
 80161c2:	1a19      	subs	r1, r3, r0
 80161c4:	eb00 0051 	add.w	r0, r0, r1, lsr #1
 80161c8:	0f80      	lsrs	r0, r0, #30
 80161ca:	ebc0 70c0 	rsb	r0, r0, r0, lsl #31
 80161ce:	1a18      	subs	r0, r3, r0
 80161d0:	6010      	str	r0, [r2, #0]
 80161d2:	4770      	bx	lr
 80161d4:	20000008 	.word	0x20000008

080161d8 <rand_r>:
 80161d8:	4601      	mov	r1, r0
 80161da:	6803      	ldr	r3, [r0, #0]
 80161dc:	f244 12a7 	movw	r2, #16807	; 0x41a7
 80161e0:	fb02 f203 	mul.w	r2, r2, r3
 80161e4:	2303      	movs	r3, #3
 80161e6:	fba3 0302 	umull	r0, r3, r3, r2
 80161ea:	1ad0      	subs	r0, r2, r3
 80161ec:	eb03 0350 	add.w	r3, r3, r0, lsr #1
 80161f0:	0f98      	lsrs	r0, r3, #30
 80161f2:	ebc0 70c0 	rsb	r0, r0, r0, lsl #31
 80161f6:	1a10      	subs	r0, r2, r0
 80161f8:	6008      	str	r0, [r1, #0]
 80161fa:	4770      	bx	lr

080161fc <srand>:
 80161fc:	4b01      	ldr	r3, [pc, #4]	; (8016204 <srand+0x8>)
 80161fe:	6018      	str	r0, [r3, #0]
 8016200:	4770      	bx	lr
 8016202:	bf00      	nop
 8016204:	20000008 	.word	0x20000008

08016208 <fatfs_cache_init>:
 8016208:	2001      	movs	r0, #1
 801620a:	4770      	bx	lr

0801620c <fatfs_cache_get_next_cluster>:
 801620c:	2000      	movs	r0, #0
 801620e:	4770      	bx	lr

08016210 <fatfs_cache_set_next_cluster>:
 8016210:	2001      	movs	r0, #1
 8016212:	4770      	bx	lr

08016214 <fatfs_init>:
 8016214:	e92d 47f0 	stmdb	sp!, {r4, r5, r6, r7, r8, r9, sl, lr}
 8016218:	4604      	mov	r4, r0
 801621a:	f04f 33ff 	mov.w	r3, #4294967295	; 0xffffffff
 801621e:	f8c0 3240 	str.w	r3, [r0, #576]	; 0x240
 8016222:	2300      	movs	r3, #0
 8016224:	f8c0 3244 	str.w	r3, [r0, #580]	; 0x244
 8016228:	6243      	str	r3, [r0, #36]	; 0x24
 801622a:	f002 fe18 	bl	8018e5e <fatfs_fat_init>
 801622e:	6b23      	ldr	r3, [r4, #48]	; 0x30
 8016230:	2b00      	cmp	r3, #0
 8016232:	f000 80f7 	beq.w	8016424 <fatfs_init+0x210>
 8016236:	f104 0540 	add.w	r5, r4, #64	; 0x40
 801623a:	2201      	movs	r2, #1
 801623c:	4629      	mov	r1, r5
 801623e:	2000      	movs	r0, #0
 8016240:	4798      	blx	r3
 8016242:	2800      	cmp	r0, #0
 8016244:	f000 80f1 	beq.w	801642a <fatfs_init+0x216>
 8016248:	f8b4 223e 	ldrh.w	r2, [r4, #574]	; 0x23e
 801624c:	f64a 2355 	movw	r3, #43605	; 0xaa55
 8016250:	429a      	cmp	r2, r3
 8016252:	f040 80ed 	bne.w	8016430 <fatfs_init+0x21c>
 8016256:	f894 223f 	ldrb.w	r2, [r4, #575]	; 0x23f
 801625a:	f894 323e 	ldrb.w	r3, [r4, #574]	; 0x23e
 801625e:	eb03 2302 	add.w	r3, r3, r2, lsl #8
 8016262:	f64a 2255 	movw	r2, #43605	; 0xaa55
 8016266:	4293      	cmp	r3, r2
 8016268:	f040 80e5 	bne.w	8016436 <fatfs_init+0x222>
 801626c:	f894 3202 	ldrb.w	r3, [r4, #514]	; 0x202
 8016270:	2b0f      	cmp	r3, #15
 8016272:	d809      	bhi.n	8016288 <fatfs_init+0x74>
 8016274:	e8df f003 	tbb	[pc, r3]
 8016278:	080808be 	.word	0x080808be
 801627c:	080b0b08 	.word	0x080b0b08
 8016280:	0b080808 	.word	0x0b080808
 8016284:	0b0b080b 	.word	0x0b0b080b
 8016288:	2b06      	cmp	r3, #6
 801628a:	f200 80b5 	bhi.w	80163f8 <fatfs_init+0x1e4>
 801628e:	f894 3209 	ldrb.w	r3, [r4, #521]	; 0x209
 8016292:	f894 0208 	ldrb.w	r0, [r4, #520]	; 0x208
 8016296:	0400      	lsls	r0, r0, #16
 8016298:	eb00 6003 	add.w	r0, r0, r3, lsl #24
 801629c:	f894 3206 	ldrb.w	r3, [r4, #518]	; 0x206
 80162a0:	4418      	add	r0, r3
 80162a2:	f894 3207 	ldrb.w	r3, [r4, #519]	; 0x207
 80162a6:	eb00 2003 	add.w	r0, r0, r3, lsl #8
 80162aa:	61e0      	str	r0, [r4, #28]
 80162ac:	6b23      	ldr	r3, [r4, #48]	; 0x30
 80162ae:	2201      	movs	r2, #1
 80162b0:	4629      	mov	r1, r5
 80162b2:	4798      	blx	r3
 80162b4:	2800      	cmp	r0, #0
 80162b6:	f000 80c1 	beq.w	801643c <fatfs_init+0x228>
 80162ba:	f894 204c 	ldrb.w	r2, [r4, #76]	; 0x4c
 80162be:	f894 304b 	ldrb.w	r3, [r4, #75]	; 0x4b
 80162c2:	eb03 2302 	add.w	r3, r3, r2, lsl #8
 80162c6:	f5b3 7f00 	cmp.w	r3, #512	; 0x200
 80162ca:	f040 80ba 	bne.w	8016442 <fatfs_init+0x22e>
 80162ce:	f894 604d 	ldrb.w	r6, [r4, #77]	; 0x4d
 80162d2:	7026      	strb	r6, [r4, #0]
 80162d4:	f894 704f 	ldrb.w	r7, [r4, #79]	; 0x4f
 80162d8:	f894 004e 	ldrb.w	r0, [r4, #78]	; 0x4e
 80162dc:	eb00 2807 	add.w	r8, r0, r7, lsl #8
 80162e0:	fa1f f888 	uxth.w	r8, r8
 80162e4:	f894 5050 	ldrb.w	r5, [r4, #80]	; 0x50
 80162e8:	f894 9052 	ldrb.w	r9, [r4, #82]	; 0x52
 80162ec:	f894 e051 	ldrb.w	lr, [r4, #81]	; 0x51
 80162f0:	eb0e 2c09 	add.w	ip, lr, r9, lsl #8
 80162f4:	fa1f fc8c 	uxth.w	ip, ip
 80162f8:	f8a4 c028 	strh.w	ip, [r4, #40]	; 0x28
 80162fc:	f894 3057 	ldrb.w	r3, [r4, #87]	; 0x57
 8016300:	f894 1056 	ldrb.w	r1, [r4, #86]	; 0x56
 8016304:	eb11 2103 	adds.w	r1, r1, r3, lsl #8
 8016308:	d078      	beq.n	80163fc <fatfs_init+0x1e8>
 801630a:	460a      	mov	r2, r1
 801630c:	6222      	str	r2, [r4, #32]
 801630e:	f894 a06f 	ldrb.w	sl, [r4, #111]	; 0x6f
 8016312:	f894 306e 	ldrb.w	r3, [r4, #110]	; 0x6e
 8016316:	041b      	lsls	r3, r3, #16
 8016318:	eb03 630a 	add.w	r3, r3, sl, lsl #24
 801631c:	f894 a06c 	ldrb.w	sl, [r4, #108]	; 0x6c
 8016320:	4453      	add	r3, sl
 8016322:	f894 a06d 	ldrb.w	sl, [r4, #109]	; 0x6d
 8016326:	eb03 230a 	add.w	r3, r3, sl, lsl #8
 801632a:	60a3      	str	r3, [r4, #8]
 801632c:	f894 a071 	ldrb.w	sl, [r4, #113]	; 0x71
 8016330:	f894 3070 	ldrb.w	r3, [r4, #112]	; 0x70
 8016334:	eb03 230a 	add.w	r3, r3, sl, lsl #8
 8016338:	8323      	strh	r3, [r4, #24]
 801633a:	fb02 f205 	mul.w	r2, r2, r5
 801633e:	eb08 0302 	add.w	r3, r8, r2
 8016342:	60e3      	str	r3, [r4, #12]
 8016344:	ea4f 134c 	mov.w	r3, ip, lsl #5
 8016348:	f203 13ff 	addw	r3, r3, #511	; 0x1ff
 801634c:	125b      	asrs	r3, r3, #9
 801634e:	6123      	str	r3, [r4, #16]
 8016350:	69e3      	ldr	r3, [r4, #28]
 8016352:	4443      	add	r3, r8
 8016354:	6163      	str	r3, [r4, #20]
 8016356:	441a      	add	r2, r3
 8016358:	6062      	str	r2, [r4, #4]
 801635a:	f894 223f 	ldrb.w	r2, [r4, #575]	; 0x23f
 801635e:	f894 323e 	ldrb.w	r3, [r4, #574]	; 0x23e
 8016362:	eb03 2302 	add.w	r3, r3, r2, lsl #8
 8016366:	f64a 2255 	movw	r2, #43605	; 0xaa55
 801636a:	4293      	cmp	r3, r2
 801636c:	d16c      	bne.n	8016448 <fatfs_init+0x234>
 801636e:	eb0e 2e09 	add.w	lr, lr, r9, lsl #8
 8016372:	ea4f 1e4e 	mov.w	lr, lr, lsl #5
 8016376:	f20e 1eff 	addw	lr, lr, #511	; 0x1ff
 801637a:	ea4f 2e6e 	mov.w	lr, lr, asr #9
 801637e:	b969      	cbnz	r1, 801639c <fatfs_init+0x188>
 8016380:	f894 3067 	ldrb.w	r3, [r4, #103]	; 0x67
 8016384:	f894 1066 	ldrb.w	r1, [r4, #102]	; 0x66
 8016388:	0409      	lsls	r1, r1, #16
 801638a:	eb01 6103 	add.w	r1, r1, r3, lsl #24
 801638e:	f894 3064 	ldrb.w	r3, [r4, #100]	; 0x64
 8016392:	4419      	add	r1, r3
 8016394:	f894 3065 	ldrb.w	r3, [r4, #101]	; 0x65
 8016398:	eb01 2103 	add.w	r1, r1, r3, lsl #8
 801639c:	f894 2054 	ldrb.w	r2, [r4, #84]	; 0x54
 80163a0:	f894 3053 	ldrb.w	r3, [r4, #83]	; 0x53
 80163a4:	eb13 2302 	adds.w	r3, r3, r2, lsl #8
 80163a8:	d10d      	bne.n	80163c6 <fatfs_init+0x1b2>
 80163aa:	f894 3063 	ldrb.w	r3, [r4, #99]	; 0x63
 80163ae:	f894 2062 	ldrb.w	r2, [r4, #98]	; 0x62
 80163b2:	0412      	lsls	r2, r2, #16
 80163b4:	eb02 6203 	add.w	r2, r2, r3, lsl #24
 80163b8:	f894 3060 	ldrb.w	r3, [r4, #96]	; 0x60
 80163bc:	441a      	add	r2, r3
 80163be:	f894 3061 	ldrb.w	r3, [r4, #97]	; 0x61
 80163c2:	eb02 2303 	add.w	r3, r2, r3, lsl #8
 80163c6:	eb00 2007 	add.w	r0, r0, r7, lsl #8
 80163ca:	4486      	add	lr, r0
 80163cc:	fb01 e105 	mla	r1, r1, r5, lr
 80163d0:	1a5b      	subs	r3, r3, r1
 80163d2:	b3e6      	cbz	r6, 801644e <fatfs_init+0x23a>
 80163d4:	fbb3 f3f6 	udiv	r3, r3, r6
 80163d8:	f640 72f4 	movw	r2, #4084	; 0xff4
 80163dc:	4293      	cmp	r3, r2
 80163de:	d939      	bls.n	8016454 <fatfs_init+0x240>
 80163e0:	f64f 72f4 	movw	r2, #65524	; 0xfff4
 80163e4:	4293      	cmp	r3, r2
 80163e6:	d818      	bhi.n	801641a <fatfs_init+0x206>
 80163e8:	2000      	movs	r0, #0
 80163ea:	60a0      	str	r0, [r4, #8]
 80163ec:	f884 002d 	strb.w	r0, [r4, #45]	; 0x2d
 80163f0:	e8bd 87f0 	ldmia.w	sp!, {r4, r5, r6, r7, r8, r9, sl, pc}
 80163f4:	2000      	movs	r0, #0
 80163f6:	e758      	b.n	80162aa <fatfs_init+0x96>
 80163f8:	2000      	movs	r0, #0
 80163fa:	e756      	b.n	80162aa <fatfs_init+0x96>
 80163fc:	f894 3067 	ldrb.w	r3, [r4, #103]	; 0x67
 8016400:	f894 2066 	ldrb.w	r2, [r4, #102]	; 0x66
 8016404:	0412      	lsls	r2, r2, #16
 8016406:	eb02 6203 	add.w	r2, r2, r3, lsl #24
 801640a:	f894 3064 	ldrb.w	r3, [r4, #100]	; 0x64
 801640e:	441a      	add	r2, r3
 8016410:	f894 3065 	ldrb.w	r3, [r4, #101]	; 0x65
 8016414:	eb02 2203 	add.w	r2, r2, r3, lsl #8
 8016418:	e778      	b.n	801630c <fatfs_init+0xf8>
 801641a:	2301      	movs	r3, #1
 801641c:	f884 302d 	strb.w	r3, [r4, #45]	; 0x2d
 8016420:	2000      	movs	r0, #0
 8016422:	e7e5      	b.n	80163f0 <fatfs_init+0x1dc>
 8016424:	f04f 30ff 	mov.w	r0, #4294967295	; 0xffffffff
 8016428:	e7e2      	b.n	80163f0 <fatfs_init+0x1dc>
 801642a:	f04f 30ff 	mov.w	r0, #4294967295	; 0xffffffff
 801642e:	e7df      	b.n	80163f0 <fatfs_init+0x1dc>
 8016430:	f06f 0002 	mvn.w	r0, #2
 8016434:	e7dc      	b.n	80163f0 <fatfs_init+0x1dc>
 8016436:	f06f 0003 	mvn.w	r0, #3
 801643a:	e7d9      	b.n	80163f0 <fatfs_init+0x1dc>
 801643c:	f04f 30ff 	mov.w	r0, #4294967295	; 0xffffffff
 8016440:	e7d6      	b.n	80163f0 <fatfs_init+0x1dc>
 8016442:	f06f 0001 	mvn.w	r0, #1
 8016446:	e7d3      	b.n	80163f0 <fatfs_init+0x1dc>
 8016448:	f06f 0002 	mvn.w	r0, #2
 801644c:	e7d0      	b.n	80163f0 <fatfs_init+0x1dc>
 801644e:	f06f 0004 	mvn.w	r0, #4
 8016452:	e7cd      	b.n	80163f0 <fatfs_init+0x1dc>
 8016454:	f06f 0004 	mvn.w	r0, #4
 8016458:	e7ca      	b.n	80163f0 <fatfs_init+0x1dc>

0801645a <fatfs_lba_of_cluster>:
 801645a:	f890 302d 	ldrb.w	r3, [r0, #45]	; 0x2d
 801645e:	b943      	cbnz	r3, 8016472 <fatfs_lba_of_cluster+0x18>
 8016460:	3902      	subs	r1, #2
 8016462:	7802      	ldrb	r2, [r0, #0]
 8016464:	6843      	ldr	r3, [r0, #4]
 8016466:	fb02 3101 	mla	r1, r2, r1, r3
 801646a:	8d00      	ldrh	r0, [r0, #40]	; 0x28
 801646c:	eb01 1020 	add.w	r0, r1, r0, asr #4
 8016470:	4770      	bx	lr
 8016472:	3902      	subs	r1, #2
 8016474:	7803      	ldrb	r3, [r0, #0]
 8016476:	6840      	ldr	r0, [r0, #4]
 8016478:	fb03 0001 	mla	r0, r3, r1, r0
 801647c:	4770      	bx	lr

0801647e <fatfs_sector_read>:
 801647e:	b510      	push	{r4, lr}
 8016480:	4604      	mov	r4, r0
 8016482:	4608      	mov	r0, r1
 8016484:	4611      	mov	r1, r2
 8016486:	6b24      	ldr	r4, [r4, #48]	; 0x30
 8016488:	461a      	mov	r2, r3
 801648a:	47a0      	blx	r4
 801648c:	bd10      	pop	{r4, pc}

0801648e <fatfs_sector_write>:
 801648e:	b510      	push	{r4, lr}
 8016490:	4604      	mov	r4, r0
 8016492:	4608      	mov	r0, r1
 8016494:	4611      	mov	r1, r2
 8016496:	6b64      	ldr	r4, [r4, #52]	; 0x34
 8016498:	461a      	mov	r2, r3
 801649a:	47a0      	blx	r4
 801649c:	bd10      	pop	{r4, pc}

0801649e <fatfs_sector_reader>:
 801649e:	e92d 41f0 	stmdb	sp!, {r4, r5, r6, r7, r8, lr}
 80164a2:	4605      	mov	r5, r0
 80164a4:	461f      	mov	r7, r3
 80164a6:	f890 302d 	ldrb.w	r3, [r0, #45]	; 0x2d
 80164aa:	b943      	cbnz	r3, 80164be <fatfs_sector_reader+0x20>
 80164ac:	b939      	cbnz	r1, 80164be <fatfs_sector_reader+0x20>
 80164ae:	6903      	ldr	r3, [r0, #16]
 80164b0:	4293      	cmp	r3, r2
 80164b2:	d92d      	bls.n	8016510 <fatfs_sector_reader+0x72>
 80164b4:	69c0      	ldr	r0, [r0, #28]
 80164b6:	68eb      	ldr	r3, [r5, #12]
 80164b8:	4418      	add	r0, r3
 80164ba:	4410      	add	r0, r2
 80164bc:	e015      	b.n	80164ea <fatfs_sector_reader+0x4c>
 80164be:	782b      	ldrb	r3, [r5, #0]
 80164c0:	fbb2 f6f3 	udiv	r6, r2, r3
 80164c4:	fb03 2816 	mls	r8, r3, r6, r2
 80164c8:	4293      	cmp	r3, r2
 80164ca:	d807      	bhi.n	80164dc <fatfs_sector_reader+0x3e>
 80164cc:	2400      	movs	r4, #0
 80164ce:	4628      	mov	r0, r5
 80164d0:	f002 fcfa 	bl	8018ec8 <fatfs_find_next_cluster>
 80164d4:	4601      	mov	r1, r0
 80164d6:	3401      	adds	r4, #1
 80164d8:	42a6      	cmp	r6, r4
 80164da:	d8f8      	bhi.n	80164ce <fatfs_sector_reader+0x30>
 80164dc:	f1b1 3fff 	cmp.w	r1, #4294967295	; 0xffffffff
 80164e0:	d018      	beq.n	8016514 <fatfs_sector_reader+0x76>
 80164e2:	4628      	mov	r0, r5
 80164e4:	f7ff ffb9 	bl	801645a <fatfs_lba_of_cluster>
 80164e8:	4440      	add	r0, r8
 80164ea:	b12f      	cbz	r7, 80164f8 <fatfs_sector_reader+0x5a>
 80164ec:	6b2b      	ldr	r3, [r5, #48]	; 0x30
 80164ee:	2201      	movs	r2, #1
 80164f0:	4639      	mov	r1, r7
 80164f2:	4798      	blx	r3
 80164f4:	e8bd 81f0 	ldmia.w	sp!, {r4, r5, r6, r7, r8, pc}
 80164f8:	f8d5 3240 	ldr.w	r3, [r5, #576]	; 0x240
 80164fc:	4283      	cmp	r3, r0
 80164fe:	d00b      	beq.n	8016518 <fatfs_sector_reader+0x7a>
 8016500:	f8c5 0240 	str.w	r0, [r5, #576]	; 0x240
 8016504:	6b2b      	ldr	r3, [r5, #48]	; 0x30
 8016506:	2201      	movs	r2, #1
 8016508:	f105 0140 	add.w	r1, r5, #64	; 0x40
 801650c:	4798      	blx	r3
 801650e:	e7f1      	b.n	80164f4 <fatfs_sector_reader+0x56>
 8016510:	2000      	movs	r0, #0
 8016512:	e7ef      	b.n	80164f4 <fatfs_sector_reader+0x56>
 8016514:	2000      	movs	r0, #0
 8016516:	e7ed      	b.n	80164f4 <fatfs_sector_reader+0x56>
 8016518:	2001      	movs	r0, #1
 801651a:	e7eb      	b.n	80164f4 <fatfs_sector_reader+0x56>

0801651c <fatfs_read_sector>:
 801651c:	b570      	push	{r4, r5, r6, lr}
 801651e:	4604      	mov	r4, r0
 8016520:	4616      	mov	r6, r2
 8016522:	461d      	mov	r5, r3
 8016524:	f890 302d 	ldrb.w	r3, [r0, #45]	; 0x2d
 8016528:	b9ab      	cbnz	r3, 8016556 <fatfs_read_sector+0x3a>
 801652a:	b9a1      	cbnz	r1, 8016556 <fatfs_read_sector+0x3a>
 801652c:	6903      	ldr	r3, [r0, #16]
 801652e:	4293      	cmp	r3, r2
 8016530:	d927      	bls.n	8016582 <fatfs_read_sector+0x66>
 8016532:	69c0      	ldr	r0, [r0, #28]
 8016534:	68e3      	ldr	r3, [r4, #12]
 8016536:	4418      	add	r0, r3
 8016538:	4410      	add	r0, r2
 801653a:	b125      	cbz	r5, 8016546 <fatfs_read_sector+0x2a>
 801653c:	6b23      	ldr	r3, [r4, #48]	; 0x30
 801653e:	2201      	movs	r2, #1
 8016540:	4629      	mov	r1, r5
 8016542:	4798      	blx	r3
 8016544:	e010      	b.n	8016568 <fatfs_read_sector+0x4c>
 8016546:	f8c4 0240 	str.w	r0, [r4, #576]	; 0x240
 801654a:	6b23      	ldr	r3, [r4, #48]	; 0x30
 801654c:	2201      	movs	r2, #1
 801654e:	f104 0140 	add.w	r1, r4, #64	; 0x40
 8016552:	4798      	blx	r3
 8016554:	e008      	b.n	8016568 <fatfs_read_sector+0x4c>
 8016556:	b145      	cbz	r5, 801656a <fatfs_read_sector+0x4e>
 8016558:	4620      	mov	r0, r4
 801655a:	f7ff ff7e 	bl	801645a <fatfs_lba_of_cluster>
 801655e:	6b23      	ldr	r3, [r4, #48]	; 0x30
 8016560:	2201      	movs	r2, #1
 8016562:	4629      	mov	r1, r5
 8016564:	4430      	add	r0, r6
 8016566:	4798      	blx	r3
 8016568:	bd70      	pop	{r4, r5, r6, pc}
 801656a:	4620      	mov	r0, r4
 801656c:	f7ff ff75 	bl	801645a <fatfs_lba_of_cluster>
 8016570:	4430      	add	r0, r6
 8016572:	f8c4 0240 	str.w	r0, [r4, #576]	; 0x240
 8016576:	6b23      	ldr	r3, [r4, #48]	; 0x30
 8016578:	2201      	movs	r2, #1
 801657a:	f104 0140 	add.w	r1, r4, #64	; 0x40
 801657e:	4798      	blx	r3
 8016580:	e7f2      	b.n	8016568 <fatfs_read_sector+0x4c>
 8016582:	2000      	movs	r0, #0
 8016584:	e7f0      	b.n	8016568 <fatfs_read_sector+0x4c>

08016586 <fatfs_write_sector>:
 8016586:	b5f8      	push	{r3, r4, r5, r6, r7, lr}
 8016588:	6b46      	ldr	r6, [r0, #52]	; 0x34
 801658a:	b36e      	cbz	r6, 80165e8 <fatfs_write_sector+0x62>
 801658c:	4604      	mov	r4, r0
 801658e:	4617      	mov	r7, r2
 8016590:	461d      	mov	r5, r3
 8016592:	f890 302d 	ldrb.w	r3, [r0, #45]	; 0x2d
 8016596:	b99b      	cbnz	r3, 80165c0 <fatfs_write_sector+0x3a>
 8016598:	b991      	cbnz	r1, 80165c0 <fatfs_write_sector+0x3a>
 801659a:	6903      	ldr	r3, [r0, #16]
 801659c:	4293      	cmp	r3, r2
 801659e:	d925      	bls.n	80165ec <fatfs_write_sector+0x66>
 80165a0:	69c0      	ldr	r0, [r0, #28]
 80165a2:	68e2      	ldr	r2, [r4, #12]
 80165a4:	4410      	add	r0, r2
 80165a6:	4438      	add	r0, r7
 80165a8:	b11d      	cbz	r5, 80165b2 <fatfs_write_sector+0x2c>
 80165aa:	2201      	movs	r2, #1
 80165ac:	4629      	mov	r1, r5
 80165ae:	47b0      	blx	r6
 80165b0:	e00e      	b.n	80165d0 <fatfs_write_sector+0x4a>
 80165b2:	f8c4 0240 	str.w	r0, [r4, #576]	; 0x240
 80165b6:	2201      	movs	r2, #1
 80165b8:	f104 0140 	add.w	r1, r4, #64	; 0x40
 80165bc:	47b0      	blx	r6
 80165be:	e007      	b.n	80165d0 <fatfs_write_sector+0x4a>
 80165c0:	b13d      	cbz	r5, 80165d2 <fatfs_write_sector+0x4c>
 80165c2:	4620      	mov	r0, r4
 80165c4:	f7ff ff49 	bl	801645a <fatfs_lba_of_cluster>
 80165c8:	2201      	movs	r2, #1
 80165ca:	4629      	mov	r1, r5
 80165cc:	4438      	add	r0, r7
 80165ce:	47b0      	blx	r6
 80165d0:	bdf8      	pop	{r3, r4, r5, r6, r7, pc}
 80165d2:	4620      	mov	r0, r4
 80165d4:	f7ff ff41 	bl	801645a <fatfs_lba_of_cluster>
 80165d8:	4438      	add	r0, r7
 80165da:	f8c4 0240 	str.w	r0, [r4, #576]	; 0x240
 80165de:	2201      	movs	r2, #1
 80165e0:	f104 0140 	add.w	r1, r4, #64	; 0x40
 80165e4:	47b0      	blx	r6
 80165e6:	e7f3      	b.n	80165d0 <fatfs_write_sector+0x4a>
 80165e8:	2000      	movs	r0, #0
 80165ea:	e7f1      	b.n	80165d0 <fatfs_write_sector+0x4a>
 80165ec:	2000      	movs	r0, #0
 80165ee:	e7ef      	b.n	80165d0 <fatfs_write_sector+0x4a>

080165f0 <fatfs_show_details>:
 80165f0:	b510      	push	{r4, lr}
 80165f2:	4604      	mov	r4, r0
 80165f4:	480f      	ldr	r0, [pc, #60]	; (8016634 <fatfs_show_details+0x44>)
 80165f6:	f7fa fc91 	bl	8010f1c <kprintf>
 80165fa:	f894 102d 	ldrb.w	r1, [r4, #45]	; 0x2d
 80165fe:	4a0e      	ldr	r2, [pc, #56]	; (8016638 <fatfs_show_details+0x48>)
 8016600:	4b0e      	ldr	r3, [pc, #56]	; (801663c <fatfs_show_details+0x4c>)
 8016602:	2901      	cmp	r1, #1
 8016604:	bf0c      	ite	eq
 8016606:	4611      	moveq	r1, r2
 8016608:	4619      	movne	r1, r3
 801660a:	480d      	ldr	r0, [pc, #52]	; (8016640 <fatfs_show_details+0x50>)
 801660c:	f7fa fc86 	bl	8010f1c <kprintf>
 8016610:	68a1      	ldr	r1, [r4, #8]
 8016612:	480c      	ldr	r0, [pc, #48]	; (8016644 <fatfs_show_details+0x54>)
 8016614:	f7fa fc82 	bl	8010f1c <kprintf>
 8016618:	6961      	ldr	r1, [r4, #20]
 801661a:	480b      	ldr	r0, [pc, #44]	; (8016648 <fatfs_show_details+0x58>)
 801661c:	f7fa fc7e 	bl	8010f1c <kprintf>
 8016620:	6861      	ldr	r1, [r4, #4]
 8016622:	480a      	ldr	r0, [pc, #40]	; (801664c <fatfs_show_details+0x5c>)
 8016624:	f7fa fc7a 	bl	8010f1c <kprintf>
 8016628:	7821      	ldrb	r1, [r4, #0]
 801662a:	4809      	ldr	r0, [pc, #36]	; (8016650 <fatfs_show_details+0x60>)
 801662c:	f7fa fc76 	bl	8010f1c <kprintf>
 8016630:	bd10      	pop	{r4, pc}
 8016632:	bf00      	nop
 8016634:	080199ec 	.word	0x080199ec
 8016638:	080199dc 	.word	0x080199dc
 801663c:	080199e4 	.word	0x080199e4
 8016640:	080199fc 	.word	0x080199fc
 8016644:	08019a08 	.word	0x08019a08
 8016648:	08019a28 	.word	0x08019a28
 801664c:	08019a40 	.word	0x08019a40
 8016650:	08019a5c 	.word	0x08019a5c

08016654 <fatfs_get_root_cluster>:
 8016654:	6880      	ldr	r0, [r0, #8]
 8016656:	4770      	bx	lr

08016658 <fatfs_get_file_entry>:
 8016658:	e92d 4ff0 	stmdb	sp!, {r4, r5, r6, r7, r8, r9, sl, fp, lr}
 801665c:	b0c9      	sub	sp, #292	; 0x124
 801665e:	4680      	mov	r8, r0
 8016660:	468b      	mov	fp, r1
 8016662:	4692      	mov	sl, r2
 8016664:	9301      	str	r3, [sp, #4]
 8016666:	2101      	movs	r1, #1
 8016668:	a802      	add	r0, sp, #8
 801666a:	f002 f971 	bl	8018950 <fatfs_lfn_cache_init>
 801666e:	f04f 0900 	mov.w	r9, #0
 8016672:	464f      	mov	r7, r9
 8016674:	e075      	b.n	8016762 <fatfs_get_file_entry+0x10a>
 8016676:	4620      	mov	r0, r4
 8016678:	f002 f9d4 	bl	8018a24 <fatfs_entry_lfn_invalid>
 801667c:	b188      	cbz	r0, 80166a2 <fatfs_get_file_entry+0x4a>
 801667e:	4639      	mov	r1, r7
 8016680:	a802      	add	r0, sp, #8
 8016682:	f002 f965 	bl	8018950 <fatfs_lfn_cache_init>
 8016686:	3420      	adds	r4, #32
 8016688:	42a6      	cmp	r6, r4
 801668a:	d068      	beq.n	801675e <fatfs_get_file_entry+0x106>
 801668c:	4625      	mov	r5, r4
 801668e:	4620      	mov	r0, r4
 8016690:	f002 f9c0 	bl	8018a14 <fatfs_entry_lfn_text>
 8016694:	2800      	cmp	r0, #0
 8016696:	d0ee      	beq.n	8016676 <fatfs_get_file_entry+0x1e>
 8016698:	4621      	mov	r1, r4
 801669a:	a802      	add	r0, sp, #8
 801669c:	f002 f96b 	bl	8018976 <fatfs_lfn_cache_entry>
 80166a0:	e7f1      	b.n	8016686 <fatfs_get_file_entry+0x2e>
 80166a2:	4621      	mov	r1, r4
 80166a4:	a802      	add	r0, sp, #8
 80166a6:	f002 f9d0 	bl	8018a4a <fatfs_entry_lfn_exists>
 80166aa:	b1a0      	cbz	r0, 80166d6 <fatfs_get_file_entry+0x7e>
 80166ac:	a802      	add	r0, sp, #8
 80166ae:	f002 f99e 	bl	80189ee <fatfs_lfn_cache_get>
 80166b2:	4651      	mov	r1, sl
 80166b4:	f000 faf9 	bl	8016caa <fatfs_compare_names>
 80166b8:	b920      	cbnz	r0, 80166c4 <fatfs_get_file_entry+0x6c>
 80166ba:	4639      	mov	r1, r7
 80166bc:	a802      	add	r0, sp, #8
 80166be:	f002 f947 	bl	8018950 <fatfs_lfn_cache_init>
 80166c2:	e7e0      	b.n	8016686 <fatfs_get_file_entry+0x2e>
 80166c4:	2220      	movs	r2, #32
 80166c6:	4621      	mov	r1, r4
 80166c8:	9801      	ldr	r0, [sp, #4]
 80166ca:	f7fe ff1c 	bl	8015506 <memcpy>
 80166ce:	2001      	movs	r0, #1
 80166d0:	b049      	add	sp, #292	; 0x124
 80166d2:	e8bd 8ff0 	ldmia.w	sp!, {r4, r5, r6, r7, r8, r9, sl, fp, pc}
 80166d6:	4620      	mov	r0, r4
 80166d8:	f002 f9d3 	bl	8018a82 <fatfs_entry_sfn_only>
 80166dc:	2800      	cmp	r0, #0
 80166de:	d0d2      	beq.n	8016686 <fatfs_get_file_entry+0x2e>
 80166e0:	220d      	movs	r2, #13
 80166e2:	4639      	mov	r1, r7
 80166e4:	a844      	add	r0, sp, #272	; 0x110
 80166e6:	f7fe ff1d 	bl	8015524 <memset>
 80166ea:	1e63      	subs	r3, r4, #1
 80166ec:	f20d 120f 	addw	r2, sp, #271	; 0x10f
 80166f0:	1de0      	adds	r0, r4, #7
 80166f2:	f813 1f01 	ldrb.w	r1, [r3, #1]!
 80166f6:	f802 1f01 	strb.w	r1, [r2, #1]!
 80166fa:	4298      	cmp	r0, r3
 80166fc:	d1f9      	bne.n	80166f2 <fatfs_get_file_entry+0x9a>
 80166fe:	7a2b      	ldrb	r3, [r5, #8]
 8016700:	f88d 3119 	strb.w	r3, [sp, #281]	; 0x119
 8016704:	3b20      	subs	r3, #32
 8016706:	bf18      	it	ne
 8016708:	2301      	movne	r3, #1
 801670a:	7a6a      	ldrb	r2, [r5, #9]
 801670c:	f88d 211a 	strb.w	r2, [sp, #282]	; 0x11a
 8016710:	2a20      	cmp	r2, #32
 8016712:	bf18      	it	ne
 8016714:	2301      	movne	r3, #1
 8016716:	7aaa      	ldrb	r2, [r5, #10]
 8016718:	f88d 211b 	strb.w	r2, [sp, #283]	; 0x11b
 801671c:	2a20      	cmp	r2, #32
 801671e:	d011      	beq.n	8016744 <fatfs_get_file_entry+0xec>
 8016720:	f89d 3110 	ldrb.w	r3, [sp, #272]	; 0x110
 8016724:	2b2e      	cmp	r3, #46	; 0x2e
 8016726:	bf14      	ite	ne
 8016728:	232e      	movne	r3, #46	; 0x2e
 801672a:	2320      	moveq	r3, #32
 801672c:	f88d 3118 	strb.w	r3, [sp, #280]	; 0x118
 8016730:	4651      	mov	r1, sl
 8016732:	a844      	add	r0, sp, #272	; 0x110
 8016734:	f000 fab9 	bl	8016caa <fatfs_compare_names>
 8016738:	b950      	cbnz	r0, 8016750 <fatfs_get_file_entry+0xf8>
 801673a:	4639      	mov	r1, r7
 801673c:	a802      	add	r0, sp, #8
 801673e:	f002 f907 	bl	8018950 <fatfs_lfn_cache_init>
 8016742:	e7a0      	b.n	8016686 <fatfs_get_file_entry+0x2e>
 8016744:	2b00      	cmp	r3, #0
 8016746:	d1eb      	bne.n	8016720 <fatfs_get_file_entry+0xc8>
 8016748:	2320      	movs	r3, #32
 801674a:	f88d 3118 	strb.w	r3, [sp, #280]	; 0x118
 801674e:	e7ef      	b.n	8016730 <fatfs_get_file_entry+0xd8>
 8016750:	2220      	movs	r2, #32
 8016752:	4629      	mov	r1, r5
 8016754:	9801      	ldr	r0, [sp, #4]
 8016756:	f7fe fed6 	bl	8015506 <memcpy>
 801675a:	2001      	movs	r0, #1
 801675c:	e7b8      	b.n	80166d0 <fatfs_get_file_entry+0x78>
 801675e:	f109 0901 	add.w	r9, r9, #1
 8016762:	463b      	mov	r3, r7
 8016764:	464a      	mov	r2, r9
 8016766:	4659      	mov	r1, fp
 8016768:	4640      	mov	r0, r8
 801676a:	f7ff fe98 	bl	801649e <fatfs_sector_reader>
 801676e:	b120      	cbz	r0, 801677a <fatfs_get_file_entry+0x122>
 8016770:	f108 0440 	add.w	r4, r8, #64	; 0x40
 8016774:	f508 7610 	add.w	r6, r8, #576	; 0x240
 8016778:	e788      	b.n	801668c <fatfs_get_file_entry+0x34>
 801677a:	2000      	movs	r0, #0
 801677c:	e7a8      	b.n	80166d0 <fatfs_get_file_entry+0x78>

0801677e <fatfs_sfn_exists>:
 801677e:	e92d 4ff0 	stmdb	sp!, {r4, r5, r6, r7, r8, r9, sl, fp, lr}
 8016782:	b083      	sub	sp, #12
 8016784:	4680      	mov	r8, r0
 8016786:	4689      	mov	r9, r1
 8016788:	9201      	str	r2, [sp, #4]
 801678a:	2700      	movs	r7, #0
 801678c:	46ba      	mov	sl, r7
 801678e:	f500 7610 	add.w	r6, r0, #576	; 0x240
 8016792:	f04f 0b0b 	mov.w	fp, #11
 8016796:	e01e      	b.n	80167d6 <fatfs_sfn_exists+0x58>
 8016798:	3420      	adds	r4, #32
 801679a:	42b4      	cmp	r4, r6
 801679c:	d01a      	beq.n	80167d4 <fatfs_sfn_exists+0x56>
 801679e:	4620      	mov	r0, r4
 80167a0:	f002 f938 	bl	8018a14 <fatfs_entry_lfn_text>
 80167a4:	2800      	cmp	r0, #0
 80167a6:	d1f7      	bne.n	8016798 <fatfs_sfn_exists+0x1a>
 80167a8:	4620      	mov	r0, r4
 80167aa:	f002 f93b 	bl	8018a24 <fatfs_entry_lfn_invalid>
 80167ae:	2800      	cmp	r0, #0
 80167b0:	d1f2      	bne.n	8016798 <fatfs_sfn_exists+0x1a>
 80167b2:	4620      	mov	r0, r4
 80167b4:	f002 f965 	bl	8018a82 <fatfs_entry_sfn_only>
 80167b8:	2800      	cmp	r0, #0
 80167ba:	d0ed      	beq.n	8016798 <fatfs_sfn_exists+0x1a>
 80167bc:	465a      	mov	r2, fp
 80167be:	9901      	ldr	r1, [sp, #4]
 80167c0:	4620      	mov	r0, r4
 80167c2:	f7fe fee2 	bl	801558a <strncmp>
 80167c6:	2800      	cmp	r0, #0
 80167c8:	d1e6      	bne.n	8016798 <fatfs_sfn_exists+0x1a>
 80167ca:	2301      	movs	r3, #1
 80167cc:	4618      	mov	r0, r3
 80167ce:	b003      	add	sp, #12
 80167d0:	e8bd 8ff0 	ldmia.w	sp!, {r4, r5, r6, r7, r8, r9, sl, fp, pc}
 80167d4:	3701      	adds	r7, #1
 80167d6:	4653      	mov	r3, sl
 80167d8:	463a      	mov	r2, r7
 80167da:	4649      	mov	r1, r9
 80167dc:	4640      	mov	r0, r8
 80167de:	f7ff fe5e 	bl	801649e <fatfs_sector_reader>
 80167e2:	4603      	mov	r3, r0
 80167e4:	2800      	cmp	r0, #0
 80167e6:	d0f1      	beq.n	80167cc <fatfs_sfn_exists+0x4e>
 80167e8:	f108 0440 	add.w	r4, r8, #64	; 0x40
 80167ec:	e7d7      	b.n	801679e <fatfs_sfn_exists+0x20>

080167ee <fatfs_update_file_length>:
 80167ee:	e92d 4ff0 	stmdb	sp!, {r4, r5, r6, r7, r8, r9, sl, fp, lr}
 80167f2:	b085      	sub	sp, #20
 80167f4:	9202      	str	r2, [sp, #8]
 80167f6:	9303      	str	r3, [sp, #12]
 80167f8:	6b43      	ldr	r3, [r0, #52]	; 0x34
 80167fa:	2b00      	cmp	r3, #0
 80167fc:	d04e      	beq.n	801689c <fatfs_update_file_length+0xae>
 80167fe:	4680      	mov	r8, r0
 8016800:	468a      	mov	sl, r1
 8016802:	2700      	movs	r7, #0
 8016804:	46bb      	mov	fp, r7
 8016806:	f500 7610 	add.w	r6, r0, #576	; 0x240
 801680a:	f100 0340 	add.w	r3, r0, #64	; 0x40
 801680e:	9300      	str	r3, [sp, #0]
 8016810:	e034      	b.n	801687c <fatfs_update_file_length+0x8e>
 8016812:	3420      	adds	r4, #32
 8016814:	42b4      	cmp	r4, r6
 8016816:	d030      	beq.n	801687a <fatfs_update_file_length+0x8c>
 8016818:	4620      	mov	r0, r4
 801681a:	f002 f8fb 	bl	8018a14 <fatfs_entry_lfn_text>
 801681e:	2800      	cmp	r0, #0
 8016820:	d1f7      	bne.n	8016812 <fatfs_update_file_length+0x24>
 8016822:	4620      	mov	r0, r4
 8016824:	f002 f8fe 	bl	8018a24 <fatfs_entry_lfn_invalid>
 8016828:	2800      	cmp	r0, #0
 801682a:	d1f2      	bne.n	8016812 <fatfs_update_file_length+0x24>
 801682c:	4620      	mov	r0, r4
 801682e:	f002 f928 	bl	8018a82 <fatfs_entry_sfn_only>
 8016832:	2800      	cmp	r0, #0
 8016834:	d0ed      	beq.n	8016812 <fatfs_update_file_length+0x24>
 8016836:	464a      	mov	r2, r9
 8016838:	9902      	ldr	r1, [sp, #8]
 801683a:	4620      	mov	r0, r4
 801683c:	f7fe fea5 	bl	801558a <strncmp>
 8016840:	2800      	cmp	r0, #0
 8016842:	d1e6      	bne.n	8016812 <fatfs_update_file_length+0x24>
 8016844:	9a03      	ldr	r2, [sp, #12]
 8016846:	7722      	strb	r2, [r4, #28]
 8016848:	f3c2 2307 	ubfx	r3, r2, #8, #8
 801684c:	7763      	strb	r3, [r4, #29]
 801684e:	f3c2 4307 	ubfx	r3, r2, #16, #8
 8016852:	77a3      	strb	r3, [r4, #30]
 8016854:	0e13      	lsrs	r3, r2, #24
 8016856:	77e3      	strb	r3, [r4, #31]
 8016858:	2220      	movs	r2, #32
 801685a:	4621      	mov	r1, r4
 801685c:	4620      	mov	r0, r4
 801685e:	f7fe fe52 	bl	8015506 <memcpy>
 8016862:	f8d8 3034 	ldr.w	r3, [r8, #52]	; 0x34
 8016866:	2201      	movs	r2, #1
 8016868:	9901      	ldr	r1, [sp, #4]
 801686a:	f8d8 0240 	ldr.w	r0, [r8, #576]	; 0x240
 801686e:	4798      	blx	r3
 8016870:	4603      	mov	r3, r0
 8016872:	4618      	mov	r0, r3
 8016874:	b005      	add	sp, #20
 8016876:	e8bd 8ff0 	ldmia.w	sp!, {r4, r5, r6, r7, r8, r9, sl, fp, pc}
 801687a:	3701      	adds	r7, #1
 801687c:	465b      	mov	r3, fp
 801687e:	463a      	mov	r2, r7
 8016880:	4651      	mov	r1, sl
 8016882:	4640      	mov	r0, r8
 8016884:	f7ff fe0b 	bl	801649e <fatfs_sector_reader>
 8016888:	4603      	mov	r3, r0
 801688a:	2800      	cmp	r0, #0
 801688c:	d0f1      	beq.n	8016872 <fatfs_update_file_length+0x84>
 801688e:	f108 0440 	add.w	r4, r8, #64	; 0x40
 8016892:	9b00      	ldr	r3, [sp, #0]
 8016894:	9301      	str	r3, [sp, #4]
 8016896:	f04f 090b 	mov.w	r9, #11
 801689a:	e7bd      	b.n	8016818 <fatfs_update_file_length+0x2a>
 801689c:	2300      	movs	r3, #0
 801689e:	e7e8      	b.n	8016872 <fatfs_update_file_length+0x84>

080168a0 <fatfs_mark_file_deleted>:
 80168a0:	e92d 4ff0 	stmdb	sp!, {r4, r5, r6, r7, r8, r9, sl, fp, lr}
 80168a4:	b085      	sub	sp, #20
 80168a6:	9203      	str	r2, [sp, #12]
 80168a8:	6b43      	ldr	r3, [r0, #52]	; 0x34
 80168aa:	2b00      	cmp	r3, #0
 80168ac:	d046      	beq.n	801693c <fatfs_mark_file_deleted+0x9c>
 80168ae:	4680      	mov	r8, r0
 80168b0:	468a      	mov	sl, r1
 80168b2:	2700      	movs	r7, #0
 80168b4:	46bb      	mov	fp, r7
 80168b6:	f500 7610 	add.w	r6, r0, #576	; 0x240
 80168ba:	f100 0340 	add.w	r3, r0, #64	; 0x40
 80168be:	9301      	str	r3, [sp, #4]
 80168c0:	e02c      	b.n	801691c <fatfs_mark_file_deleted+0x7c>
 80168c2:	3420      	adds	r4, #32
 80168c4:	42b4      	cmp	r4, r6
 80168c6:	d028      	beq.n	801691a <fatfs_mark_file_deleted+0x7a>
 80168c8:	4620      	mov	r0, r4
 80168ca:	f002 f8a3 	bl	8018a14 <fatfs_entry_lfn_text>
 80168ce:	2800      	cmp	r0, #0
 80168d0:	d1f7      	bne.n	80168c2 <fatfs_mark_file_deleted+0x22>
 80168d2:	4620      	mov	r0, r4
 80168d4:	f002 f8a6 	bl	8018a24 <fatfs_entry_lfn_invalid>
 80168d8:	2800      	cmp	r0, #0
 80168da:	d1f2      	bne.n	80168c2 <fatfs_mark_file_deleted+0x22>
 80168dc:	4620      	mov	r0, r4
 80168de:	f002 f8d0 	bl	8018a82 <fatfs_entry_sfn_only>
 80168e2:	2800      	cmp	r0, #0
 80168e4:	d0ed      	beq.n	80168c2 <fatfs_mark_file_deleted+0x22>
 80168e6:	464a      	mov	r2, r9
 80168e8:	9903      	ldr	r1, [sp, #12]
 80168ea:	4620      	mov	r0, r4
 80168ec:	f7fe fe4d 	bl	801558a <strncmp>
 80168f0:	2800      	cmp	r0, #0
 80168f2:	d1e6      	bne.n	80168c2 <fatfs_mark_file_deleted+0x22>
 80168f4:	23e5      	movs	r3, #229	; 0xe5
 80168f6:	7023      	strb	r3, [r4, #0]
 80168f8:	2220      	movs	r2, #32
 80168fa:	4621      	mov	r1, r4
 80168fc:	4620      	mov	r0, r4
 80168fe:	f7fe fe02 	bl	8015506 <memcpy>
 8016902:	f8d8 3034 	ldr.w	r3, [r8, #52]	; 0x34
 8016906:	2201      	movs	r2, #1
 8016908:	9902      	ldr	r1, [sp, #8]
 801690a:	f8d8 0240 	ldr.w	r0, [r8, #576]	; 0x240
 801690e:	4798      	blx	r3
 8016910:	4603      	mov	r3, r0
 8016912:	4618      	mov	r0, r3
 8016914:	b005      	add	sp, #20
 8016916:	e8bd 8ff0 	ldmia.w	sp!, {r4, r5, r6, r7, r8, r9, sl, fp, pc}
 801691a:	3701      	adds	r7, #1
 801691c:	465b      	mov	r3, fp
 801691e:	463a      	mov	r2, r7
 8016920:	4651      	mov	r1, sl
 8016922:	4640      	mov	r0, r8
 8016924:	f7ff fdbb 	bl	801649e <fatfs_sector_reader>
 8016928:	4603      	mov	r3, r0
 801692a:	2800      	cmp	r0, #0
 801692c:	d0f1      	beq.n	8016912 <fatfs_mark_file_deleted+0x72>
 801692e:	f108 0440 	add.w	r4, r8, #64	; 0x40
 8016932:	9b01      	ldr	r3, [sp, #4]
 8016934:	9302      	str	r3, [sp, #8]
 8016936:	f04f 090b 	mov.w	r9, #11
 801693a:	e7c5      	b.n	80168c8 <fatfs_mark_file_deleted+0x28>
 801693c:	2300      	movs	r3, #0
 801693e:	e7e8      	b.n	8016912 <fatfs_mark_file_deleted+0x72>

08016940 <fatfs_list_directory_start>:
 8016940:	604a      	str	r2, [r1, #4]
 8016942:	2300      	movs	r3, #0
 8016944:	600b      	str	r3, [r1, #0]
 8016946:	720b      	strb	r3, [r1, #8]
 8016948:	4770      	bx	lr

0801694a <fatfs_list_directory_next>:
 801694a:	e92d 47f0 	stmdb	sp!, {r4, r5, r6, r7, r8, r9, sl, lr}
 801694e:	b0c6      	sub	sp, #280	; 0x118
 8016950:	4682      	mov	sl, r0
 8016952:	4688      	mov	r8, r1
 8016954:	4691      	mov	r9, r2
 8016956:	2100      	movs	r1, #0
 8016958:	4668      	mov	r0, sp
 801695a:	f001 fff9 	bl	8018950 <fatfs_lfn_cache_init>
 801695e:	2700      	movs	r7, #0
 8016960:	e0b5      	b.n	8016ace <fatfs_list_directory_next+0x184>
 8016962:	4620      	mov	r0, r4
 8016964:	f002 f85e 	bl	8018a24 <fatfs_entry_lfn_invalid>
 8016968:	b1a0      	cbz	r0, 8016994 <fatfs_list_directory_next+0x4a>
 801696a:	4639      	mov	r1, r7
 801696c:	4668      	mov	r0, sp
 801696e:	f001 ffef 	bl	8018950 <fatfs_lfn_cache_init>
 8016972:	3501      	adds	r5, #1
 8016974:	b2ed      	uxtb	r5, r5
 8016976:	3420      	adds	r4, #32
 8016978:	2d10      	cmp	r5, #16
 801697a:	f000 80a1 	beq.w	8016ac0 <fatfs_list_directory_next+0x176>
 801697e:	4626      	mov	r6, r4
 8016980:	4620      	mov	r0, r4
 8016982:	f002 f847 	bl	8018a14 <fatfs_entry_lfn_text>
 8016986:	2800      	cmp	r0, #0
 8016988:	d0eb      	beq.n	8016962 <fatfs_list_directory_next+0x18>
 801698a:	4621      	mov	r1, r4
 801698c:	4668      	mov	r0, sp
 801698e:	f001 fff2 	bl	8018976 <fatfs_lfn_cache_entry>
 8016992:	e7ee      	b.n	8016972 <fatfs_list_directory_next+0x28>
 8016994:	4621      	mov	r1, r4
 8016996:	4668      	mov	r0, sp
 8016998:	f002 f857 	bl	8018a4a <fatfs_entry_lfn_exists>
 801699c:	2800      	cmp	r0, #0
 801699e:	d159      	bne.n	8016a54 <fatfs_list_directory_next+0x10a>
 80169a0:	4620      	mov	r0, r4
 80169a2:	f002 f86e 	bl	8018a82 <fatfs_entry_sfn_only>
 80169a6:	2800      	cmp	r0, #0
 80169a8:	d0e3      	beq.n	8016972 <fatfs_list_directory_next+0x28>
 80169aa:	2100      	movs	r1, #0
 80169ac:	4668      	mov	r0, sp
 80169ae:	f001 ffcf 	bl	8018950 <fatfs_lfn_cache_init>
 80169b2:	220d      	movs	r2, #13
 80169b4:	2100      	movs	r1, #0
 80169b6:	a842      	add	r0, sp, #264	; 0x108
 80169b8:	f7fe fdb4 	bl	8015524 <memset>
 80169bc:	1e63      	subs	r3, r4, #1
 80169be:	f20d 1207 	addw	r2, sp, #263	; 0x107
 80169c2:	3407      	adds	r4, #7
 80169c4:	f813 1f01 	ldrb.w	r1, [r3, #1]!
 80169c8:	f802 1f01 	strb.w	r1, [r2, #1]!
 80169cc:	42a3      	cmp	r3, r4
 80169ce:	d1f9      	bne.n	80169c4 <fatfs_list_directory_next+0x7a>
 80169d0:	7a33      	ldrb	r3, [r6, #8]
 80169d2:	f88d 3111 	strb.w	r3, [sp, #273]	; 0x111
 80169d6:	3b20      	subs	r3, #32
 80169d8:	bf18      	it	ne
 80169da:	2301      	movne	r3, #1
 80169dc:	7a72      	ldrb	r2, [r6, #9]
 80169de:	f88d 2112 	strb.w	r2, [sp, #274]	; 0x112
 80169e2:	2a20      	cmp	r2, #32
 80169e4:	bf18      	it	ne
 80169e6:	2301      	movne	r3, #1
 80169e8:	7ab2      	ldrb	r2, [r6, #10]
 80169ea:	f88d 2113 	strb.w	r2, [sp, #275]	; 0x113
 80169ee:	2a20      	cmp	r2, #32
 80169f0:	d060      	beq.n	8016ab4 <fatfs_list_directory_next+0x16a>
 80169f2:	f89d 3108 	ldrb.w	r3, [sp, #264]	; 0x108
 80169f6:	2b2e      	cmp	r3, #46	; 0x2e
 80169f8:	bf14      	ite	ne
 80169fa:	232e      	movne	r3, #46	; 0x2e
 80169fc:	2320      	moveq	r3, #32
 80169fe:	f88d 3110 	strb.w	r3, [sp, #272]	; 0x110
 8016a02:	a942      	add	r1, sp, #264	; 0x108
 8016a04:	4648      	mov	r0, r9
 8016a06:	f000 f9d2 	bl	8016dae <fatfs_get_sfn_display_name>
 8016a0a:	4630      	mov	r0, r6
 8016a0c:	f002 f850 	bl	8018ab0 <fatfs_entry_is_dir>
 8016a10:	1e03      	subs	r3, r0, #0
 8016a12:	bf18      	it	ne
 8016a14:	2301      	movne	r3, #1
 8016a16:	f889 3040 	strb.w	r3, [r9, #64]	; 0x40
 8016a1a:	7f33      	ldrb	r3, [r6, #28]
 8016a1c:	7f72      	ldrb	r2, [r6, #29]
 8016a1e:	ea43 2302 	orr.w	r3, r3, r2, lsl #8
 8016a22:	7fb2      	ldrb	r2, [r6, #30]
 8016a24:	ea43 4302 	orr.w	r3, r3, r2, lsl #16
 8016a28:	7ff2      	ldrb	r2, [r6, #31]
 8016a2a:	ea43 6302 	orr.w	r3, r3, r2, lsl #24
 8016a2e:	f8c9 3048 	str.w	r3, [r9, #72]	; 0x48
 8016a32:	7d33      	ldrb	r3, [r6, #20]
 8016a34:	7d72      	ldrb	r2, [r6, #21]
 8016a36:	ea43 2202 	orr.w	r2, r3, r2, lsl #8
 8016a3a:	7eb3      	ldrb	r3, [r6, #26]
 8016a3c:	7ef1      	ldrb	r1, [r6, #27]
 8016a3e:	ea43 2301 	orr.w	r3, r3, r1, lsl #8
 8016a42:	ea43 4302 	orr.w	r3, r3, r2, lsl #16
 8016a46:	f8c9 3044 	str.w	r3, [r9, #68]	; 0x44
 8016a4a:	3501      	adds	r5, #1
 8016a4c:	f888 5008 	strb.w	r5, [r8, #8]
 8016a50:	2301      	movs	r3, #1
 8016a52:	e02b      	b.n	8016aac <fatfs_list_directory_next+0x162>
 8016a54:	4668      	mov	r0, sp
 8016a56:	f001 ffca 	bl	80189ee <fatfs_lfn_cache_get>
 8016a5a:	4601      	mov	r1, r0
 8016a5c:	223f      	movs	r2, #63	; 0x3f
 8016a5e:	4648      	mov	r0, r9
 8016a60:	f7fe fdad 	bl	80155be <strncpy>
 8016a64:	4620      	mov	r0, r4
 8016a66:	f002 f823 	bl	8018ab0 <fatfs_entry_is_dir>
 8016a6a:	1e03      	subs	r3, r0, #0
 8016a6c:	bf18      	it	ne
 8016a6e:	2301      	movne	r3, #1
 8016a70:	f889 3040 	strb.w	r3, [r9, #64]	; 0x40
 8016a74:	7f23      	ldrb	r3, [r4, #28]
 8016a76:	7f62      	ldrb	r2, [r4, #29]
 8016a78:	ea43 2302 	orr.w	r3, r3, r2, lsl #8
 8016a7c:	7fa2      	ldrb	r2, [r4, #30]
 8016a7e:	ea43 4302 	orr.w	r3, r3, r2, lsl #16
 8016a82:	7fe2      	ldrb	r2, [r4, #31]
 8016a84:	ea43 6302 	orr.w	r3, r3, r2, lsl #24
 8016a88:	f8c9 3048 	str.w	r3, [r9, #72]	; 0x48
 8016a8c:	7d23      	ldrb	r3, [r4, #20]
 8016a8e:	7d62      	ldrb	r2, [r4, #21]
 8016a90:	ea43 2202 	orr.w	r2, r3, r2, lsl #8
 8016a94:	7ea3      	ldrb	r3, [r4, #26]
 8016a96:	7ee1      	ldrb	r1, [r4, #27]
 8016a98:	ea43 2301 	orr.w	r3, r3, r1, lsl #8
 8016a9c:	ea43 4302 	orr.w	r3, r3, r2, lsl #16
 8016aa0:	f8c9 3044 	str.w	r3, [r9, #68]	; 0x44
 8016aa4:	3501      	adds	r5, #1
 8016aa6:	f888 5008 	strb.w	r5, [r8, #8]
 8016aaa:	2301      	movs	r3, #1
 8016aac:	4618      	mov	r0, r3
 8016aae:	b046      	add	sp, #280	; 0x118
 8016ab0:	e8bd 87f0 	ldmia.w	sp!, {r4, r5, r6, r7, r8, r9, sl, pc}
 8016ab4:	2b00      	cmp	r3, #0
 8016ab6:	d19c      	bne.n	80169f2 <fatfs_list_directory_next+0xa8>
 8016ab8:	2320      	movs	r3, #32
 8016aba:	f88d 3110 	strb.w	r3, [sp, #272]	; 0x110
 8016abe:	e7a0      	b.n	8016a02 <fatfs_list_directory_next+0xb8>
 8016ac0:	f8d8 3000 	ldr.w	r3, [r8]
 8016ac4:	3301      	adds	r3, #1
 8016ac6:	f8c8 3000 	str.w	r3, [r8]
 8016aca:	f888 7008 	strb.w	r7, [r8, #8]
 8016ace:	463b      	mov	r3, r7
 8016ad0:	f8d8 2000 	ldr.w	r2, [r8]
 8016ad4:	f8d8 1004 	ldr.w	r1, [r8, #4]
 8016ad8:	4650      	mov	r0, sl
 8016ada:	f7ff fce0 	bl	801649e <fatfs_sector_reader>
 8016ade:	4603      	mov	r3, r0
 8016ae0:	2800      	cmp	r0, #0
 8016ae2:	d0e3      	beq.n	8016aac <fatfs_list_directory_next+0x162>
 8016ae4:	f898 5008 	ldrb.w	r5, [r8, #8]
 8016ae8:	2d0f      	cmp	r5, #15
 8016aea:	d8e9      	bhi.n	8016ac0 <fatfs_list_directory_next+0x176>
 8016aec:	eb0a 1445 	add.w	r4, sl, r5, lsl #5
 8016af0:	3440      	adds	r4, #64	; 0x40
 8016af2:	e744      	b.n	801697e <fatfs_list_directory_next+0x34>

08016af4 <FileString_StrCmpNoCase>:
 8016af4:	4694      	mov	ip, r2
 8016af6:	b31a      	cbz	r2, 8016b40 <FileString_StrCmpNoCase+0x4c>
 8016af8:	b4f0      	push	{r4, r5, r6, r7}
 8016afa:	4606      	mov	r6, r0
 8016afc:	1e45      	subs	r5, r0, #1
 8016afe:	1e4f      	subs	r7, r1, #1
 8016b00:	f815 1f01 	ldrb.w	r1, [r5, #1]!
 8016b04:	f817 4f01 	ldrb.w	r4, [r7, #1]!
 8016b08:	f1a1 0341 	sub.w	r3, r1, #65	; 0x41
 8016b0c:	b2db      	uxtb	r3, r3
 8016b0e:	2b19      	cmp	r3, #25
 8016b10:	bf9a      	itte	ls
 8016b12:	f101 0320 	addls.w	r3, r1, #32
 8016b16:	b2db      	uxtbls	r3, r3
 8016b18:	460b      	movhi	r3, r1
 8016b1a:	f1a4 0241 	sub.w	r2, r4, #65	; 0x41
 8016b1e:	b2d2      	uxtb	r2, r2
 8016b20:	2a19      	cmp	r2, #25
 8016b22:	bf9a      	itte	ls
 8016b24:	f104 0020 	addls.w	r0, r4, #32
 8016b28:	b2c0      	uxtbls	r0, r0
 8016b2a:	4620      	movhi	r0, r4
 8016b2c:	1a18      	subs	r0, r3, r0
 8016b2e:	d105      	bne.n	8016b3c <FileString_StrCmpNoCase+0x48>
 8016b30:	b121      	cbz	r1, 8016b3c <FileString_StrCmpNoCase+0x48>
 8016b32:	b11c      	cbz	r4, 8016b3c <FileString_StrCmpNoCase+0x48>
 8016b34:	43eb      	mvns	r3, r5
 8016b36:	4463      	add	r3, ip
 8016b38:	42de      	cmn	r6, r3
 8016b3a:	d1e1      	bne.n	8016b00 <FileString_StrCmpNoCase+0xc>
 8016b3c:	bcf0      	pop	{r4, r5, r6, r7}
 8016b3e:	4770      	bx	lr
 8016b40:	4610      	mov	r0, r2
 8016b42:	4770      	bx	lr

08016b44 <FileString_GetExtension>:
 8016b44:	4601      	mov	r1, r0
 8016b46:	7803      	ldrb	r3, [r0, #0]
 8016b48:	b153      	cbz	r3, 8016b60 <FileString_GetExtension+0x1c>
 8016b4a:	4602      	mov	r2, r0
 8016b4c:	f04f 30ff 	mov.w	r0, #4294967295	; 0xffffffff
 8016b50:	2b2e      	cmp	r3, #46	; 0x2e
 8016b52:	bf08      	it	eq
 8016b54:	1a50      	subeq	r0, r2, r1
 8016b56:	f812 3f01 	ldrb.w	r3, [r2, #1]!
 8016b5a:	2b00      	cmp	r3, #0
 8016b5c:	d1f8      	bne.n	8016b50 <FileString_GetExtension+0xc>
 8016b5e:	4770      	bx	lr
 8016b60:	f04f 30ff 	mov.w	r0, #4294967295	; 0xffffffff
 8016b64:	4770      	bx	lr

08016b66 <fatfs_total_path_levels>:
 8016b66:	4603      	mov	r3, r0
 8016b68:	b1f0      	cbz	r0, 8016ba8 <fatfs_total_path_levels+0x42>
 8016b6a:	7801      	ldrb	r1, [r0, #0]
 8016b6c:	292f      	cmp	r1, #47	; 0x2f
 8016b6e:	d00d      	beq.n	8016b8c <fatfs_total_path_levels+0x26>
 8016b70:	7842      	ldrb	r2, [r0, #1]
 8016b72:	2a3a      	cmp	r2, #58	; 0x3a
 8016b74:	d002      	beq.n	8016b7c <fatfs_total_path_levels+0x16>
 8016b76:	7882      	ldrb	r2, [r0, #2]
 8016b78:	2a5c      	cmp	r2, #92	; 0x5c
 8016b7a:	d118      	bne.n	8016bae <fatfs_total_path_levels+0x48>
 8016b7c:	3303      	adds	r3, #3
 8016b7e:	215c      	movs	r1, #92	; 0x5c
 8016b80:	781a      	ldrb	r2, [r3, #0]
 8016b82:	2000      	movs	r0, #0
 8016b84:	b172      	cbz	r2, 8016ba4 <fatfs_total_path_levels+0x3e>
 8016b86:	3301      	adds	r3, #1
 8016b88:	2000      	movs	r0, #0
 8016b8a:	e005      	b.n	8016b98 <fatfs_total_path_levels+0x32>
 8016b8c:	3301      	adds	r3, #1
 8016b8e:	e7f7      	b.n	8016b80 <fatfs_total_path_levels+0x1a>
 8016b90:	3001      	adds	r0, #1
 8016b92:	781a      	ldrb	r2, [r3, #0]
 8016b94:	b132      	cbz	r2, 8016ba4 <fatfs_total_path_levels+0x3e>
 8016b96:	3301      	adds	r3, #1
 8016b98:	4291      	cmp	r1, r2
 8016b9a:	d0f9      	beq.n	8016b90 <fatfs_total_path_levels+0x2a>
 8016b9c:	781a      	ldrb	r2, [r3, #0]
 8016b9e:	2a00      	cmp	r2, #0
 8016ba0:	d1f9      	bne.n	8016b96 <fatfs_total_path_levels+0x30>
 8016ba2:	3001      	adds	r0, #1
 8016ba4:	3801      	subs	r0, #1
 8016ba6:	4770      	bx	lr
 8016ba8:	f04f 30ff 	mov.w	r0, #4294967295	; 0xffffffff
 8016bac:	4770      	bx	lr
 8016bae:	f04f 30ff 	mov.w	r0, #4294967295	; 0xffffffff
 8016bb2:	4770      	bx	lr

08016bb4 <fatfs_get_substring>:
 8016bb4:	2800      	cmp	r0, #0
 8016bb6:	d03c      	beq.n	8016c32 <fatfs_get_substring+0x7e>
 8016bb8:	e92d 43f8 	stmdb	sp!, {r3, r4, r5, r6, r7, r8, r9, lr}
 8016bbc:	460f      	mov	r7, r1
 8016bbe:	4691      	mov	r9, r2
 8016bc0:	4698      	mov	r8, r3
 8016bc2:	4604      	mov	r4, r0
 8016bc4:	2b00      	cmp	r3, #0
 8016bc6:	dd37      	ble.n	8016c38 <fatfs_get_substring+0x84>
 8016bc8:	7806      	ldrb	r6, [r0, #0]
 8016bca:	2e2f      	cmp	r6, #47	; 0x2f
 8016bcc:	d014      	beq.n	8016bf8 <fatfs_get_substring+0x44>
 8016bce:	7843      	ldrb	r3, [r0, #1]
 8016bd0:	2b3a      	cmp	r3, #58	; 0x3a
 8016bd2:	d002      	beq.n	8016bda <fatfs_get_substring+0x26>
 8016bd4:	7883      	ldrb	r3, [r0, #2]
 8016bd6:	2b5c      	cmp	r3, #92	; 0x5c
 8016bd8:	d131      	bne.n	8016c3e <fatfs_get_substring+0x8a>
 8016bda:	1ce5      	adds	r5, r4, #3
 8016bdc:	265c      	movs	r6, #92	; 0x5c
 8016bde:	4628      	mov	r0, r5
 8016be0:	f7fe fd25 	bl	801562e <strlen>
 8016be4:	2800      	cmp	r0, #0
 8016be6:	dd18      	ble.n	8016c1a <fatfs_get_substring+0x66>
 8016be8:	1e6c      	subs	r4, r5, #1
 8016bea:	4428      	add	r0, r5
 8016bec:	3801      	subs	r0, #1
 8016bee:	2500      	movs	r5, #0
 8016bf0:	4629      	mov	r1, r5
 8016bf2:	f108 38ff 	add.w	r8, r8, #4294967295	; 0xffffffff
 8016bf6:	e004      	b.n	8016c02 <fatfs_get_substring+0x4e>
 8016bf8:	1c45      	adds	r5, r0, #1
 8016bfa:	e7f0      	b.n	8016bde <fatfs_get_substring+0x2a>
 8016bfc:	3101      	adds	r1, #1
 8016bfe:	4284      	cmp	r4, r0
 8016c00:	d00c      	beq.n	8016c1c <fatfs_get_substring+0x68>
 8016c02:	f814 2f01 	ldrb.w	r2, [r4, #1]!
 8016c06:	42b2      	cmp	r2, r6
 8016c08:	d0f8      	beq.n	8016bfc <fatfs_get_substring+0x48>
 8016c0a:	428f      	cmp	r7, r1
 8016c0c:	d1f7      	bne.n	8016bfe <fatfs_get_substring+0x4a>
 8016c0e:	45a8      	cmp	r8, r5
 8016c10:	bfc4      	itt	gt
 8016c12:	f809 2005 	strbgt.w	r2, [r9, r5]
 8016c16:	3501      	addgt	r5, #1
 8016c18:	e7f1      	b.n	8016bfe <fatfs_get_substring+0x4a>
 8016c1a:	2500      	movs	r5, #0
 8016c1c:	2300      	movs	r3, #0
 8016c1e:	f809 3005 	strb.w	r3, [r9, r5]
 8016c22:	f899 0000 	ldrb.w	r0, [r9]
 8016c26:	fab0 f080 	clz	r0, r0
 8016c2a:	0940      	lsrs	r0, r0, #5
 8016c2c:	4240      	negs	r0, r0
 8016c2e:	e8bd 83f8 	ldmia.w	sp!, {r3, r4, r5, r6, r7, r8, r9, pc}
 8016c32:	f04f 30ff 	mov.w	r0, #4294967295	; 0xffffffff
 8016c36:	4770      	bx	lr
 8016c38:	f04f 30ff 	mov.w	r0, #4294967295	; 0xffffffff
 8016c3c:	e7f7      	b.n	8016c2e <fatfs_get_substring+0x7a>
 8016c3e:	f04f 30ff 	mov.w	r0, #4294967295	; 0xffffffff
 8016c42:	e7f4      	b.n	8016c2e <fatfs_get_substring+0x7a>

08016c44 <fatfs_split_path>:
 8016c44:	e92d 43f8 	stmdb	sp!, {r3, r4, r5, r6, r7, r8, r9, lr}
 8016c48:	4680      	mov	r8, r0
 8016c4a:	460d      	mov	r5, r1
 8016c4c:	4617      	mov	r7, r2
 8016c4e:	461e      	mov	r6, r3
 8016c50:	f7ff ff89 	bl	8016b66 <fatfs_total_path_levels>
 8016c54:	4604      	mov	r4, r0
 8016c56:	f1b0 3fff 	cmp.w	r0, #4294967295	; 0xffffffff
 8016c5a:	d00a      	beq.n	8016c72 <fatfs_split_path+0x2e>
 8016c5c:	9b08      	ldr	r3, [sp, #32]
 8016c5e:	4632      	mov	r2, r6
 8016c60:	4601      	mov	r1, r0
 8016c62:	4640      	mov	r0, r8
 8016c64:	f7ff ffa6 	bl	8016bb4 <fatfs_get_substring>
 8016c68:	4681      	mov	r9, r0
 8016c6a:	b9d8      	cbnz	r0, 8016ca4 <fatfs_split_path+0x60>
 8016c6c:	b924      	cbnz	r4, 8016c78 <fatfs_split_path+0x34>
 8016c6e:	2300      	movs	r3, #0
 8016c70:	702b      	strb	r3, [r5, #0]
 8016c72:	4620      	mov	r0, r4
 8016c74:	e8bd 83f8 	ldmia.w	sp!, {r3, r4, r5, r6, r7, r8, r9, pc}
 8016c78:	4640      	mov	r0, r8
 8016c7a:	f7fe fcd8 	bl	801562e <strlen>
 8016c7e:	4604      	mov	r4, r0
 8016c80:	4630      	mov	r0, r6
 8016c82:	f7fe fcd4 	bl	801562e <strlen>
 8016c86:	1a20      	subs	r0, r4, r0
 8016c88:	4287      	cmp	r7, r0
 8016c8a:	bfa8      	it	ge
 8016c8c:	4607      	movge	r7, r0
 8016c8e:	463a      	mov	r2, r7
 8016c90:	4641      	mov	r1, r8
 8016c92:	4628      	mov	r0, r5
 8016c94:	f7fe fc37 	bl	8015506 <memcpy>
 8016c98:	443d      	add	r5, r7
 8016c9a:	2300      	movs	r3, #0
 8016c9c:	f805 3c01 	strb.w	r3, [r5, #-1]
 8016ca0:	464c      	mov	r4, r9
 8016ca2:	e7e6      	b.n	8016c72 <fatfs_split_path+0x2e>
 8016ca4:	f04f 34ff 	mov.w	r4, #4294967295	; 0xffffffff
 8016ca8:	e7e3      	b.n	8016c72 <fatfs_split_path+0x2e>

08016caa <fatfs_compare_names>:
 8016caa:	e92d 47f0 	stmdb	sp!, {r4, r5, r6, r7, r8, r9, sl, lr}
 8016cae:	4607      	mov	r7, r0
 8016cb0:	460e      	mov	r6, r1
 8016cb2:	f7ff ff47 	bl	8016b44 <FileString_GetExtension>
 8016cb6:	4604      	mov	r4, r0
 8016cb8:	4630      	mov	r0, r6
 8016cba:	f7ff ff43 	bl	8016b44 <FileString_GetExtension>
 8016cbe:	4605      	mov	r5, r0
 8016cc0:	f1b4 3fff 	cmp.w	r4, #4294967295	; 0xffffffff
 8016cc4:	d014      	beq.n	8016cf0 <fatfs_compare_names+0x46>
 8016cc6:	f1b0 3fff 	cmp.w	r0, #4294967295	; 0xffffffff
 8016cca:	d04b      	beq.n	8016d64 <fatfs_compare_names+0xba>
 8016ccc:	f104 0801 	add.w	r8, r4, #1
 8016cd0:	44b8      	add	r8, r7
 8016cd2:	f105 0901 	add.w	r9, r5, #1
 8016cd6:	44b1      	add	r9, r6
 8016cd8:	4640      	mov	r0, r8
 8016cda:	f7fe fca8 	bl	801562e <strlen>
 8016cde:	4682      	mov	sl, r0
 8016ce0:	4648      	mov	r0, r9
 8016ce2:	f7fe fca4 	bl	801562e <strlen>
 8016ce6:	4582      	cmp	sl, r0
 8016ce8:	d02c      	beq.n	8016d44 <fatfs_compare_names+0x9a>
 8016cea:	2000      	movs	r0, #0
 8016cec:	e8bd 87f0 	ldmia.w	sp!, {r4, r5, r6, r7, r8, r9, sl, pc}
 8016cf0:	f1b0 3fff 	cmp.w	r0, #4294967295	; 0xffffffff
 8016cf4:	d134      	bne.n	8016d60 <fatfs_compare_names+0xb6>
 8016cf6:	4638      	mov	r0, r7
 8016cf8:	f7fe fc99 	bl	801562e <strlen>
 8016cfc:	4604      	mov	r4, r0
 8016cfe:	4630      	mov	r0, r6
 8016d00:	f7fe fc95 	bl	801562e <strlen>
 8016d04:	4605      	mov	r5, r0
 8016d06:	1e62      	subs	r2, r4, #1
 8016d08:	443a      	add	r2, r7
 8016d0a:	b36c      	cbz	r4, 8016d68 <fatfs_compare_names+0xbe>
 8016d0c:	4613      	mov	r3, r2
 8016d0e:	1aa0      	subs	r0, r4, r2
 8016d10:	461a      	mov	r2, r3
 8016d12:	3b01      	subs	r3, #1
 8016d14:	7811      	ldrb	r1, [r2, #0]
 8016d16:	2920      	cmp	r1, #32
 8016d18:	d102      	bne.n	8016d20 <fatfs_compare_names+0x76>
 8016d1a:	1bd4      	subs	r4, r2, r7
 8016d1c:	42d8      	cmn	r0, r3
 8016d1e:	d1f7      	bne.n	8016d10 <fatfs_compare_names+0x66>
 8016d20:	1e68      	subs	r0, r5, #1
 8016d22:	4430      	add	r0, r6
 8016d24:	b1d5      	cbz	r5, 8016d5c <fatfs_compare_names+0xb2>
 8016d26:	4603      	mov	r3, r0
 8016d28:	462a      	mov	r2, r5
 8016d2a:	1a2d      	subs	r5, r5, r0
 8016d2c:	4619      	mov	r1, r3
 8016d2e:	3b01      	subs	r3, #1
 8016d30:	7808      	ldrb	r0, [r1, #0]
 8016d32:	2820      	cmp	r0, #32
 8016d34:	d102      	bne.n	8016d3c <fatfs_compare_names+0x92>
 8016d36:	1b8a      	subs	r2, r1, r6
 8016d38:	42dd      	cmn	r5, r3
 8016d3a:	d1f7      	bne.n	8016d2c <fatfs_compare_names+0x82>
 8016d3c:	4294      	cmp	r4, r2
 8016d3e:	d018      	beq.n	8016d72 <fatfs_compare_names+0xc8>
 8016d40:	2000      	movs	r0, #0
 8016d42:	e7d3      	b.n	8016cec <fatfs_compare_names+0x42>
 8016d44:	4640      	mov	r0, r8
 8016d46:	f7fe fc72 	bl	801562e <strlen>
 8016d4a:	4602      	mov	r2, r0
 8016d4c:	4649      	mov	r1, r9
 8016d4e:	4640      	mov	r0, r8
 8016d50:	f7ff fed0 	bl	8016af4 <FileString_StrCmpNoCase>
 8016d54:	2800      	cmp	r0, #0
 8016d56:	d0d6      	beq.n	8016d06 <fatfs_compare_names+0x5c>
 8016d58:	2000      	movs	r0, #0
 8016d5a:	e7c7      	b.n	8016cec <fatfs_compare_names+0x42>
 8016d5c:	462a      	mov	r2, r5
 8016d5e:	e7ed      	b.n	8016d3c <fatfs_compare_names+0x92>
 8016d60:	2000      	movs	r0, #0
 8016d62:	e7c3      	b.n	8016cec <fatfs_compare_names+0x42>
 8016d64:	2000      	movs	r0, #0
 8016d66:	e7c1      	b.n	8016cec <fatfs_compare_names+0x42>
 8016d68:	1e68      	subs	r0, r5, #1
 8016d6a:	4430      	add	r0, r6
 8016d6c:	462a      	mov	r2, r5
 8016d6e:	2d00      	cmp	r5, #0
 8016d70:	d1d9      	bne.n	8016d26 <fatfs_compare_names+0x7c>
 8016d72:	4631      	mov	r1, r6
 8016d74:	4638      	mov	r0, r7
 8016d76:	f7ff febd 	bl	8016af4 <FileString_StrCmpNoCase>
 8016d7a:	fab0 f080 	clz	r0, r0
 8016d7e:	0940      	lsrs	r0, r0, #5
 8016d80:	e7b4      	b.n	8016cec <fatfs_compare_names+0x42>

08016d82 <fatfs_string_ends_with_slash>:
 8016d82:	4602      	mov	r2, r0
 8016d84:	b168      	cbz	r0, 8016da2 <fatfs_string_ends_with_slash+0x20>
 8016d86:	7803      	ldrb	r3, [r0, #0]
 8016d88:	b16b      	cbz	r3, 8016da6 <fatfs_string_ends_with_slash+0x24>
 8016d8a:	4618      	mov	r0, r3
 8016d8c:	f812 3f01 	ldrb.w	r3, [r2, #1]!
 8016d90:	2b00      	cmp	r3, #0
 8016d92:	d1fa      	bne.n	8016d8a <fatfs_string_ends_with_slash+0x8>
 8016d94:	285c      	cmp	r0, #92	; 0x5c
 8016d96:	d008      	beq.n	8016daa <fatfs_string_ends_with_slash+0x28>
 8016d98:	282f      	cmp	r0, #47	; 0x2f
 8016d9a:	bf14      	ite	ne
 8016d9c:	2000      	movne	r0, #0
 8016d9e:	2001      	moveq	r0, #1
 8016da0:	4770      	bx	lr
 8016da2:	2000      	movs	r0, #0
 8016da4:	4770      	bx	lr
 8016da6:	2000      	movs	r0, #0
 8016da8:	4770      	bx	lr
 8016daa:	2001      	movs	r0, #1
 8016dac:	4770      	bx	lr

08016dae <fatfs_get_sfn_display_name>:
 8016dae:	780b      	ldrb	r3, [r1, #0]
 8016db0:	b1d3      	cbz	r3, 8016de8 <fatfs_get_sfn_display_name+0x3a>
 8016db2:	b410      	push	{r4}
 8016db4:	2400      	movs	r4, #0
 8016db6:	e004      	b.n	8016dc2 <fatfs_get_sfn_display_name+0x14>
 8016db8:	f811 3f01 	ldrb.w	r3, [r1, #1]!
 8016dbc:	b173      	cbz	r3, 8016ddc <fatfs_get_sfn_display_name+0x2e>
 8016dbe:	2c0b      	cmp	r4, #11
 8016dc0:	dc0c      	bgt.n	8016ddc <fatfs_get_sfn_display_name+0x2e>
 8016dc2:	2b20      	cmp	r3, #32
 8016dc4:	d0f8      	beq.n	8016db8 <fatfs_get_sfn_display_name+0xa>
 8016dc6:	f1a3 0241 	sub.w	r2, r3, #65	; 0x41
 8016dca:	b2d2      	uxtb	r2, r2
 8016dcc:	2a19      	cmp	r2, #25
 8016dce:	bf9c      	itt	ls
 8016dd0:	3320      	addls	r3, #32
 8016dd2:	b2db      	uxtbls	r3, r3
 8016dd4:	f800 3b01 	strb.w	r3, [r0], #1
 8016dd8:	3401      	adds	r4, #1
 8016dda:	e7ed      	b.n	8016db8 <fatfs_get_sfn_display_name+0xa>
 8016ddc:	2300      	movs	r3, #0
 8016dde:	7003      	strb	r3, [r0, #0]
 8016de0:	2001      	movs	r0, #1
 8016de2:	f85d 4b04 	ldr.w	r4, [sp], #4
 8016de6:	4770      	bx	lr
 8016de8:	2300      	movs	r3, #0
 8016dea:	7003      	strb	r3, [r0, #0]
 8016dec:	2001      	movs	r0, #1
 8016dee:	4770      	bx	lr

08016df0 <fatfs_get_extension>:
 8016df0:	b570      	push	{r4, r5, r6, lr}
 8016df2:	4606      	mov	r6, r0
 8016df4:	460c      	mov	r4, r1
 8016df6:	4615      	mov	r5, r2
 8016df8:	f7ff fea4 	bl	8016b44 <FileString_GetExtension>
 8016dfc:	1e03      	subs	r3, r0, #0
 8016dfe:	dd1e      	ble.n	8016e3e <fatfs_get_extension+0x4e>
 8016e00:	b1fc      	cbz	r4, 8016e42 <fatfs_get_extension+0x52>
 8016e02:	b90d      	cbnz	r5, 8016e08 <fatfs_get_extension+0x18>
 8016e04:	4628      	mov	r0, r5
 8016e06:	e01b      	b.n	8016e40 <fatfs_get_extension+0x50>
 8016e08:	3301      	adds	r3, #1
 8016e0a:	18f1      	adds	r1, r6, r3
 8016e0c:	5cf3      	ldrb	r3, [r6, r3]
 8016e0e:	b193      	cbz	r3, 8016e36 <fatfs_get_extension+0x46>
 8016e10:	2d01      	cmp	r5, #1
 8016e12:	dd10      	ble.n	8016e36 <fatfs_get_extension+0x46>
 8016e14:	1e68      	subs	r0, r5, #1
 8016e16:	4420      	add	r0, r4
 8016e18:	f1a3 0241 	sub.w	r2, r3, #65	; 0x41
 8016e1c:	b2d2      	uxtb	r2, r2
 8016e1e:	2a19      	cmp	r2, #25
 8016e20:	bf9c      	itt	ls
 8016e22:	3320      	addls	r3, #32
 8016e24:	b2db      	uxtbls	r3, r3
 8016e26:	f804 3b01 	strb.w	r3, [r4], #1
 8016e2a:	f811 3f01 	ldrb.w	r3, [r1, #1]!
 8016e2e:	b113      	cbz	r3, 8016e36 <fatfs_get_extension+0x46>
 8016e30:	4284      	cmp	r4, r0
 8016e32:	d1f1      	bne.n	8016e18 <fatfs_get_extension+0x28>
 8016e34:	4604      	mov	r4, r0
 8016e36:	2300      	movs	r3, #0
 8016e38:	7023      	strb	r3, [r4, #0]
 8016e3a:	2001      	movs	r0, #1
 8016e3c:	e000      	b.n	8016e40 <fatfs_get_extension+0x50>
 8016e3e:	2000      	movs	r0, #0
 8016e40:	bd70      	pop	{r4, r5, r6, pc}
 8016e42:	2000      	movs	r0, #0
 8016e44:	e7fc      	b.n	8016e40 <fatfs_get_extension+0x50>

08016e46 <fatfs_create_path_string>:
 8016e46:	2800      	cmp	r0, #0
 8016e48:	d045      	beq.n	8016ed6 <fatfs_create_path_string+0x90>
 8016e4a:	b5f0      	push	{r4, r5, r6, r7, lr}
 8016e4c:	4605      	mov	r5, r0
 8016e4e:	2900      	cmp	r1, #0
 8016e50:	d043      	beq.n	8016eda <fatfs_create_path_string+0x94>
 8016e52:	2a00      	cmp	r2, #0
 8016e54:	d043      	beq.n	8016ede <fatfs_create_path_string+0x98>
 8016e56:	2b00      	cmp	r3, #0
 8016e58:	dc01      	bgt.n	8016e5e <fatfs_create_path_string+0x18>
 8016e5a:	2000      	movs	r0, #0
 8016e5c:	e03e      	b.n	8016edc <fatfs_create_path_string+0x96>
 8016e5e:	7800      	ldrb	r0, [r0, #0]
 8016e60:	b388      	cbz	r0, 8016ec6 <fatfs_create_path_string+0x80>
 8016e62:	2b02      	cmp	r3, #2
 8016e64:	dd33      	ble.n	8016ece <fatfs_create_path_string+0x88>
 8016e66:	f1a3 0c02 	sub.w	ip, r3, #2
 8016e6a:	4494      	add	ip, r2
 8016e6c:	462c      	mov	r4, r5
 8016e6e:	272f      	movs	r7, #47	; 0x2f
 8016e70:	f1c5 0601 	rsb	r6, r5, #1
 8016e74:	e000      	b.n	8016e78 <fatfs_create_path_string+0x32>
 8016e76:	4628      	mov	r0, r5
 8016e78:	285c      	cmp	r0, #92	; 0x5c
 8016e7a:	bf08      	it	eq
 8016e7c:	4607      	moveq	r7, r0
 8016e7e:	f802 0b01 	strb.w	r0, [r2], #1
 8016e82:	eb06 0e04 	add.w	lr, r6, r4
 8016e86:	f814 5f01 	ldrb.w	r5, [r4, #1]!
 8016e8a:	b115      	cbz	r5, 8016e92 <fatfs_create_path_string+0x4c>
 8016e8c:	4562      	cmp	r2, ip
 8016e8e:	d1f2      	bne.n	8016e76 <fatfs_create_path_string+0x30>
 8016e90:	4662      	mov	r2, ip
 8016e92:	285c      	cmp	r0, #92	; 0x5c
 8016e94:	d003      	beq.n	8016e9e <fatfs_create_path_string+0x58>
 8016e96:	282f      	cmp	r0, #47	; 0x2f
 8016e98:	d001      	beq.n	8016e9e <fatfs_create_path_string+0x58>
 8016e9a:	f802 7b01 	strb.w	r7, [r2], #1
 8016e9e:	7808      	ldrb	r0, [r1, #0]
 8016ea0:	b168      	cbz	r0, 8016ebe <fatfs_create_path_string+0x78>
 8016ea2:	1e5c      	subs	r4, r3, #1
 8016ea4:	45a6      	cmp	lr, r4
 8016ea6:	da0a      	bge.n	8016ebe <fatfs_create_path_string+0x78>
 8016ea8:	1c4c      	adds	r4, r1, #1
 8016eaa:	4419      	add	r1, r3
 8016eac:	eba1 010e 	sub.w	r1, r1, lr
 8016eb0:	f802 0b01 	strb.w	r0, [r2], #1
 8016eb4:	f814 0b01 	ldrb.w	r0, [r4], #1
 8016eb8:	b108      	cbz	r0, 8016ebe <fatfs_create_path_string+0x78>
 8016eba:	428c      	cmp	r4, r1
 8016ebc:	d1f8      	bne.n	8016eb0 <fatfs_create_path_string+0x6a>
 8016ebe:	2300      	movs	r3, #0
 8016ec0:	7013      	strb	r3, [r2, #0]
 8016ec2:	2001      	movs	r0, #1
 8016ec4:	e00a      	b.n	8016edc <fatfs_create_path_string+0x96>
 8016ec6:	272f      	movs	r7, #47	; 0x2f
 8016ec8:	f04f 0e00 	mov.w	lr, #0
 8016ecc:	e7e5      	b.n	8016e9a <fatfs_create_path_string+0x54>
 8016ece:	272f      	movs	r7, #47	; 0x2f
 8016ed0:	f04f 0e00 	mov.w	lr, #0
 8016ed4:	e7e1      	b.n	8016e9a <fatfs_create_path_string+0x54>
 8016ed6:	2000      	movs	r0, #0
 8016ed8:	4770      	bx	lr
 8016eda:	2000      	movs	r0, #0
 8016edc:	bdf0      	pop	{r4, r5, r6, r7, pc}
 8016ede:	2000      	movs	r0, #0
 8016ee0:	e7fc      	b.n	8016edc <fatfs_create_path_string+0x96>

08016ee2 <fatfs_add_free_space>:
 8016ee2:	e92d 43f0 	stmdb	sp!, {r4, r5, r6, r7, r8, r9, lr}
 8016ee6:	b083      	sub	sp, #12
 8016ee8:	4604      	mov	r4, r0
 8016eea:	4689      	mov	r9, r1
 8016eec:	4617      	mov	r7, r2
 8016eee:	680e      	ldr	r6, [r1, #0]
 8016ef0:	6a43      	ldr	r3, [r0, #36]	; 0x24
 8016ef2:	f1b3 3fff 	cmp.w	r3, #4294967295	; 0xffffffff
 8016ef6:	d104      	bne.n	8016f02 <fatfs_add_free_space+0x20>
 8016ef8:	b33f      	cbz	r7, 8016f4a <fatfs_add_free_space+0x68>
 8016efa:	2500      	movs	r5, #0
 8016efc:	f04f 38ff 	mov.w	r8, #4294967295	; 0xffffffff
 8016f00:	e009      	b.n	8016f16 <fatfs_add_free_space+0x34>
 8016f02:	f04f 31ff 	mov.w	r1, #4294967295	; 0xffffffff
 8016f06:	f002 f824 	bl	8018f52 <fatfs_set_fs_info_next_free_cluster>
 8016f0a:	e7f5      	b.n	8016ef8 <fatfs_add_free_space+0x16>
 8016f0c:	f8c9 6000 	str.w	r6, [r9]
 8016f10:	3501      	adds	r5, #1
 8016f12:	42af      	cmp	r7, r5
 8016f14:	d014      	beq.n	8016f40 <fatfs_add_free_space+0x5e>
 8016f16:	aa01      	add	r2, sp, #4
 8016f18:	68a1      	ldr	r1, [r4, #8]
 8016f1a:	4620      	mov	r0, r4
 8016f1c:	f002 f84d 	bl	8018fba <fatfs_find_blank_cluster>
 8016f20:	4603      	mov	r3, r0
 8016f22:	b170      	cbz	r0, 8016f42 <fatfs_add_free_space+0x60>
 8016f24:	9a01      	ldr	r2, [sp, #4]
 8016f26:	4631      	mov	r1, r6
 8016f28:	4620      	mov	r0, r4
 8016f2a:	f002 f885 	bl	8019038 <fatfs_fat_set_cluster>
 8016f2e:	4642      	mov	r2, r8
 8016f30:	9901      	ldr	r1, [sp, #4]
 8016f32:	4620      	mov	r0, r4
 8016f34:	f002 f880 	bl	8019038 <fatfs_fat_set_cluster>
 8016f38:	9e01      	ldr	r6, [sp, #4]
 8016f3a:	2d00      	cmp	r5, #0
 8016f3c:	d1e8      	bne.n	8016f10 <fatfs_add_free_space+0x2e>
 8016f3e:	e7e5      	b.n	8016f0c <fatfs_add_free_space+0x2a>
 8016f40:	2301      	movs	r3, #1
 8016f42:	4618      	mov	r0, r3
 8016f44:	b003      	add	sp, #12
 8016f46:	e8bd 83f0 	ldmia.w	sp!, {r4, r5, r6, r7, r8, r9, pc}
 8016f4a:	2301      	movs	r3, #1
 8016f4c:	e7f9      	b.n	8016f42 <fatfs_add_free_space+0x60>

08016f4e <fatfs_allocate_free_space>:
 8016f4e:	2b00      	cmp	r3, #0
 8016f50:	d03b      	beq.n	8016fca <fatfs_allocate_free_space+0x7c>
 8016f52:	e92d 41f0 	stmdb	sp!, {r4, r5, r6, r7, r8, lr}
 8016f56:	b082      	sub	sp, #8
 8016f58:	4604      	mov	r4, r0
 8016f5a:	460d      	mov	r5, r1
 8016f5c:	4616      	mov	r6, r2
 8016f5e:	461f      	mov	r7, r3
 8016f60:	6a43      	ldr	r3, [r0, #36]	; 0x24
 8016f62:	f1b3 3fff 	cmp.w	r3, #4294967295	; 0xffffffff
 8016f66:	d117      	bne.n	8016f98 <fatfs_allocate_free_space+0x4a>
 8016f68:	7823      	ldrb	r3, [r4, #0]
 8016f6a:	025b      	lsls	r3, r3, #9
 8016f6c:	fbb7 f8f3 	udiv	r8, r7, r3
 8016f70:	fb08 f303 	mul.w	r3, r8, r3
 8016f74:	42bb      	cmp	r3, r7
 8016f76:	bf18      	it	ne
 8016f78:	f108 0801 	addne.w	r8, r8, #1
 8016f7c:	b98d      	cbnz	r5, 8016fa2 <fatfs_allocate_free_space+0x54>
 8016f7e:	6833      	ldr	r3, [r6, #0]
 8016f80:	9301      	str	r3, [sp, #4]
 8016f82:	4642      	mov	r2, r8
 8016f84:	a901      	add	r1, sp, #4
 8016f86:	4620      	mov	r0, r4
 8016f88:	f7ff ffab 	bl	8016ee2 <fatfs_add_free_space>
 8016f8c:	3800      	subs	r0, #0
 8016f8e:	bf18      	it	ne
 8016f90:	2001      	movne	r0, #1
 8016f92:	b002      	add	sp, #8
 8016f94:	e8bd 81f0 	ldmia.w	sp!, {r4, r5, r6, r7, r8, pc}
 8016f98:	f04f 31ff 	mov.w	r1, #4294967295	; 0xffffffff
 8016f9c:	f001 ffd9 	bl	8018f52 <fatfs_set_fs_info_next_free_cluster>
 8016fa0:	e7e2      	b.n	8016f68 <fatfs_allocate_free_space+0x1a>
 8016fa2:	aa01      	add	r2, sp, #4
 8016fa4:	68a1      	ldr	r1, [r4, #8]
 8016fa6:	4620      	mov	r0, r4
 8016fa8:	f002 f807 	bl	8018fba <fatfs_find_blank_cluster>
 8016fac:	2800      	cmp	r0, #0
 8016fae:	d0f0      	beq.n	8016f92 <fatfs_allocate_free_space+0x44>
 8016fb0:	f1b8 0f01 	cmp.w	r8, #1
 8016fb4:	d1e5      	bne.n	8016f82 <fatfs_allocate_free_space+0x34>
 8016fb6:	f04f 32ff 	mov.w	r2, #4294967295	; 0xffffffff
 8016fba:	9901      	ldr	r1, [sp, #4]
 8016fbc:	4620      	mov	r0, r4
 8016fbe:	f002 f83b 	bl	8019038 <fatfs_fat_set_cluster>
 8016fc2:	9b01      	ldr	r3, [sp, #4]
 8016fc4:	6033      	str	r3, [r6, #0]
 8016fc6:	2001      	movs	r0, #1
 8016fc8:	e7e3      	b.n	8016f92 <fatfs_allocate_free_space+0x44>
 8016fca:	2000      	movs	r0, #0
 8016fcc:	4770      	bx	lr

08016fce <fatfs_add_file_entry>:
 8016fce:	e92d 4ff0 	stmdb	sp!, {r4, r5, r6, r7, r8, r9, sl, fp, lr}
 8016fd2:	b095      	sub	sp, #84	; 0x54
 8016fd4:	9106      	str	r1, [sp, #24]
 8016fd6:	9209      	str	r2, [sp, #36]	; 0x24
 8016fd8:	9308      	str	r3, [sp, #32]
 8016fda:	6b43      	ldr	r3, [r0, #52]	; 0x34
 8016fdc:	2b00      	cmp	r3, #0
 8016fde:	f000 80ef 	beq.w	80171c0 <fatfs_add_file_entry+0x1f2>
 8016fe2:	4681      	mov	r9, r0
 8016fe4:	4610      	mov	r0, r2
 8016fe6:	f001 fd6b 	bl	8018ac0 <fatfs_lfn_entries_required>
 8016fea:	4607      	mov	r7, r0
 8016fec:	1c43      	adds	r3, r0, #1
 8016fee:	2b01      	cmp	r3, #1
 8016ff0:	f240 80ec 	bls.w	80171cc <fatfs_add_file_entry+0x1fe>
 8016ff4:	f04f 0b00 	mov.w	fp, #0
 8016ff8:	f8cd b00c 	str.w	fp, [sp, #12]
 8016ffc:	46d8      	mov	r8, fp
 8016ffe:	f8cd b008 	str.w	fp, [sp, #8]
 8017002:	465c      	mov	r4, fp
 8017004:	e031      	b.n	801706a <fatfs_add_file_entry+0x9c>
 8017006:	3401      	adds	r4, #1
 8017008:	3501      	adds	r5, #1
 801700a:	3620      	adds	r6, #32
 801700c:	2d10      	cmp	r5, #16
 801700e:	d02a      	beq.n	8017066 <fatfs_add_file_entry+0x98>
 8017010:	fa5f fa85 	uxtb.w	sl, r5
 8017014:	4630      	mov	r0, r6
 8017016:	f001 fcfd 	bl	8018a14 <fatfs_entry_lfn_text>
 801701a:	b138      	cbz	r0, 801702c <fatfs_add_file_entry+0x5e>
 801701c:	2c00      	cmp	r4, #0
 801701e:	d1f2      	bne.n	8017006 <fatfs_add_file_entry+0x38>
 8017020:	f8cd a00c 	str.w	sl, [sp, #12]
 8017024:	46d8      	mov	r8, fp
 8017026:	2301      	movs	r3, #1
 8017028:	9302      	str	r3, [sp, #8]
 801702a:	e7ec      	b.n	8017006 <fatfs_add_file_entry+0x38>
 801702c:	7833      	ldrb	r3, [r6, #0]
 801702e:	2be5      	cmp	r3, #229	; 0xe5
 8017030:	d00b      	beq.n	801704a <fatfs_add_file_entry+0x7c>
 8017032:	b9ab      	cbnz	r3, 8017060 <fatfs_add_file_entry+0x92>
 8017034:	b924      	cbnz	r4, 8017040 <fatfs_add_file_entry+0x72>
 8017036:	f8cd a00c 	str.w	sl, [sp, #12]
 801703a:	46d8      	mov	r8, fp
 801703c:	2301      	movs	r3, #1
 801703e:	9302      	str	r3, [sp, #8]
 8017040:	1c63      	adds	r3, r4, #1
 8017042:	42a7      	cmp	r7, r4
 8017044:	dd51      	ble.n	80170ea <fatfs_add_file_entry+0x11c>
 8017046:	461c      	mov	r4, r3
 8017048:	e7de      	b.n	8017008 <fatfs_add_file_entry+0x3a>
 801704a:	b924      	cbnz	r4, 8017056 <fatfs_add_file_entry+0x88>
 801704c:	f8cd a00c 	str.w	sl, [sp, #12]
 8017050:	46d8      	mov	r8, fp
 8017052:	2301      	movs	r3, #1
 8017054:	9302      	str	r3, [sp, #8]
 8017056:	1c63      	adds	r3, r4, #1
 8017058:	42a7      	cmp	r7, r4
 801705a:	dd46      	ble.n	80170ea <fatfs_add_file_entry+0x11c>
 801705c:	461c      	mov	r4, r3
 801705e:	e7d3      	b.n	8017008 <fatfs_add_file_entry+0x3a>
 8017060:	9002      	str	r0, [sp, #8]
 8017062:	4604      	mov	r4, r0
 8017064:	e7d0      	b.n	8017008 <fatfs_add_file_entry+0x3a>
 8017066:	f10b 0b01 	add.w	fp, fp, #1
 801706a:	2300      	movs	r3, #0
 801706c:	465a      	mov	r2, fp
 801706e:	9906      	ldr	r1, [sp, #24]
 8017070:	4648      	mov	r0, r9
 8017072:	f7ff fa14 	bl	801649e <fatfs_sector_reader>
 8017076:	4682      	mov	sl, r0
 8017078:	b118      	cbz	r0, 8017082 <fatfs_add_file_entry+0xb4>
 801707a:	f109 0640 	add.w	r6, r9, #64	; 0x40
 801707e:	2500      	movs	r5, #0
 8017080:	e7c6      	b.n	8017010 <fatfs_add_file_entry+0x42>
 8017082:	aa0b      	add	r2, sp, #44	; 0x2c
 8017084:	f8d9 1008 	ldr.w	r1, [r9, #8]
 8017088:	4648      	mov	r0, r9
 801708a:	f001 ff96 	bl	8018fba <fatfs_find_blank_cluster>
 801708e:	2800      	cmp	r0, #0
 8017090:	f000 8098 	beq.w	80171c4 <fatfs_add_file_entry+0x1f6>
 8017094:	9a0b      	ldr	r2, [sp, #44]	; 0x2c
 8017096:	9906      	ldr	r1, [sp, #24]
 8017098:	4648      	mov	r0, r9
 801709a:	f002 f827 	bl	80190ec <fatfs_fat_add_cluster_to_chain>
 801709e:	2800      	cmp	r0, #0
 80170a0:	f000 8090 	beq.w	80171c4 <fatfs_add_file_entry+0x1f6>
 80170a4:	f44f 7200 	mov.w	r2, #512	; 0x200
 80170a8:	2100      	movs	r1, #0
 80170aa:	f109 0040 	add.w	r0, r9, #64	; 0x40
 80170ae:	f7fe fa39 	bl	8015524 <memset>
 80170b2:	f899 3000 	ldrb.w	r3, [r9]
 80170b6:	b17b      	cbz	r3, 80170d8 <fatfs_add_file_entry+0x10a>
 80170b8:	2400      	movs	r4, #0
 80170ba:	4625      	mov	r5, r4
 80170bc:	462b      	mov	r3, r5
 80170be:	b2e2      	uxtb	r2, r4
 80170c0:	990b      	ldr	r1, [sp, #44]	; 0x2c
 80170c2:	4648      	mov	r0, r9
 80170c4:	f7ff fa5f 	bl	8016586 <fatfs_write_sector>
 80170c8:	2800      	cmp	r0, #0
 80170ca:	d07b      	beq.n	80171c4 <fatfs_add_file_entry+0x1f6>
 80170cc:	3401      	adds	r4, #1
 80170ce:	f899 2000 	ldrb.w	r2, [r9]
 80170d2:	b2e3      	uxtb	r3, r4
 80170d4:	429a      	cmp	r2, r3
 80170d6:	d8f1      	bhi.n	80170bc <fatfs_add_file_entry+0xee>
 80170d8:	9b02      	ldr	r3, [sp, #8]
 80170da:	2b00      	cmp	r3, #0
 80170dc:	bf08      	it	eq
 80170de:	46d8      	moveq	r8, fp
 80170e0:	2b00      	cmp	r3, #0
 80170e2:	9b03      	ldr	r3, [sp, #12]
 80170e4:	bf08      	it	eq
 80170e6:	2300      	moveq	r3, #0
 80170e8:	9303      	str	r3, [sp, #12]
 80170ea:	9a08      	ldr	r2, [sp, #32]
 80170ec:	f102 010b 	add.w	r1, r2, #11
 80170f0:	2500      	movs	r5, #0
 80170f2:	f812 3b01 	ldrb.w	r3, [r2], #1
 80170f6:	eb03 0355 	add.w	r3, r3, r5, lsr #1
 80170fa:	eb03 15c5 	add.w	r5, r3, r5, lsl #7
 80170fe:	f005 05ff 	and.w	r5, r5, #255	; 0xff
 8017102:	428a      	cmp	r2, r1
 8017104:	d1f5      	bne.n	80170f2 <fatfs_add_file_entry+0x124>
 8017106:	46c3      	mov	fp, r8
 8017108:	2600      	movs	r6, #0
 801710a:	9602      	str	r6, [sp, #8]
 801710c:	2301      	movs	r3, #1
 801710e:	9304      	str	r3, [sp, #16]
 8017110:	9305      	str	r3, [sp, #20]
 8017112:	f8cd 901c 	str.w	r9, [sp, #28]
 8017116:	f8dd 9024 	ldr.w	r9, [sp, #36]	; 0x24
 801711a:	e044      	b.n	80171a6 <fatfs_add_file_entry+0x1d8>
 801711c:	0166      	lsls	r6, r4, #5
 801711e:	b2b6      	uxth	r6, r6
 8017120:	b1b7      	cbz	r7, 8017150 <fatfs_add_file_entry+0x182>
 8017122:	3f01      	subs	r7, #1
 8017124:	462b      	mov	r3, r5
 8017126:	463a      	mov	r2, r7
 8017128:	eb0a 1144 	add.w	r1, sl, r4, lsl #5
 801712c:	4648      	mov	r0, r9
 801712e:	f001 fcd7 	bl	8018ae0 <fatfs_filename_to_lfn>
 8017132:	9e04      	ldr	r6, [sp, #16]
 8017134:	9b05      	ldr	r3, [sp, #20]
 8017136:	9302      	str	r3, [sp, #8]
 8017138:	3401      	adds	r4, #1
 801713a:	2c10      	cmp	r4, #16
 801713c:	d023      	beq.n	8017186 <fatfs_add_file_entry+0x1b8>
 801713e:	2e00      	cmp	r6, #0
 8017140:	d1ec      	bne.n	801711c <fatfs_add_file_entry+0x14e>
 8017142:	45c3      	cmp	fp, r8
 8017144:	d1f8      	bne.n	8017138 <fatfs_add_file_entry+0x16a>
 8017146:	b2e3      	uxtb	r3, r4
 8017148:	9a03      	ldr	r2, [sp, #12]
 801714a:	429a      	cmp	r2, r3
 801714c:	d1f4      	bne.n	8017138 <fatfs_add_file_entry+0x16a>
 801714e:	e7e5      	b.n	801711c <fatfs_add_file_entry+0x14e>
 8017150:	f8dd 901c 	ldr.w	r9, [sp, #28]
 8017154:	9b20      	ldr	r3, [sp, #128]	; 0x80
 8017156:	9300      	str	r3, [sp, #0]
 8017158:	ab0c      	add	r3, sp, #48	; 0x30
 801715a:	9a1e      	ldr	r2, [sp, #120]	; 0x78
 801715c:	991f      	ldr	r1, [sp, #124]	; 0x7c
 801715e:	9808      	ldr	r0, [sp, #32]
 8017160:	f001 fd18 	bl	8018b94 <fatfs_sfn_create_entry>
 8017164:	f106 0040 	add.w	r0, r6, #64	; 0x40
 8017168:	2220      	movs	r2, #32
 801716a:	a90c      	add	r1, sp, #48	; 0x30
 801716c:	4448      	add	r0, r9
 801716e:	f7fe f9ca 	bl	8015506 <memcpy>
 8017172:	f8d9 3034 	ldr.w	r3, [r9, #52]	; 0x34
 8017176:	2201      	movs	r2, #1
 8017178:	f109 0140 	add.w	r1, r9, #64	; 0x40
 801717c:	f8d9 0240 	ldr.w	r0, [r9, #576]	; 0x240
 8017180:	4798      	blx	r3
 8017182:	4682      	mov	sl, r0
 8017184:	e01e      	b.n	80171c4 <fatfs_add_file_entry+0x1f6>
 8017186:	9b02      	ldr	r3, [sp, #8]
 8017188:	b15b      	cbz	r3, 80171a2 <fatfs_add_file_entry+0x1d4>
 801718a:	9807      	ldr	r0, [sp, #28]
 801718c:	6b43      	ldr	r3, [r0, #52]	; 0x34
 801718e:	2201      	movs	r2, #1
 8017190:	4601      	mov	r1, r0
 8017192:	3140      	adds	r1, #64	; 0x40
 8017194:	f8d0 0240 	ldr.w	r0, [r0, #576]	; 0x240
 8017198:	4798      	blx	r3
 801719a:	4682      	mov	sl, r0
 801719c:	b190      	cbz	r0, 80171c4 <fatfs_add_file_entry+0x1f6>
 801719e:	2300      	movs	r3, #0
 80171a0:	9302      	str	r3, [sp, #8]
 80171a2:	f10b 0b01 	add.w	fp, fp, #1
 80171a6:	2300      	movs	r3, #0
 80171a8:	465a      	mov	r2, fp
 80171aa:	9906      	ldr	r1, [sp, #24]
 80171ac:	9807      	ldr	r0, [sp, #28]
 80171ae:	f7ff f976 	bl	801649e <fatfs_sector_reader>
 80171b2:	4682      	mov	sl, r0
 80171b4:	b130      	cbz	r0, 80171c4 <fatfs_add_file_entry+0x1f6>
 80171b6:	2400      	movs	r4, #0
 80171b8:	9b07      	ldr	r3, [sp, #28]
 80171ba:	f103 0a40 	add.w	sl, r3, #64	; 0x40
 80171be:	e7be      	b.n	801713e <fatfs_add_file_entry+0x170>
 80171c0:	f04f 0a00 	mov.w	sl, #0
 80171c4:	4650      	mov	r0, sl
 80171c6:	b015      	add	sp, #84	; 0x54
 80171c8:	e8bd 8ff0 	ldmia.w	sp!, {r4, r5, r6, r7, r8, r9, sl, fp, pc}
 80171cc:	f04f 0a00 	mov.w	sl, #0
 80171d0:	e7f8      	b.n	80171c4 <fatfs_add_file_entry+0x1f6>
	...

080171d4 <fatfs_erase_fat>:
 80171d4:	b5f8      	push	{r3, r4, r5, r6, r7, lr}
 80171d6:	4604      	mov	r4, r0
 80171d8:	460d      	mov	r5, r1
 80171da:	f100 0640 	add.w	r6, r0, #64	; 0x40
 80171de:	f44f 7200 	mov.w	r2, #512	; 0x200
 80171e2:	2100      	movs	r1, #0
 80171e4:	4630      	mov	r0, r6
 80171e6:	f7fe f99d 	bl	8015524 <memset>
 80171ea:	b995      	cbnz	r5, 8017212 <fatfs_erase_fat+0x3e>
 80171ec:	23f8      	movs	r3, #248	; 0xf8
 80171ee:	f884 3040 	strb.w	r3, [r4, #64]	; 0x40
 80171f2:	23ff      	movs	r3, #255	; 0xff
 80171f4:	f884 3041 	strb.w	r3, [r4, #65]	; 0x41
 80171f8:	f884 3042 	strb.w	r3, [r4, #66]	; 0x42
 80171fc:	f884 3043 	strb.w	r3, [r4, #67]	; 0x43
 8017200:	6b63      	ldr	r3, [r4, #52]	; 0x34
 8017202:	2201      	movs	r2, #1
 8017204:	4631      	mov	r1, r6
 8017206:	6960      	ldr	r0, [r4, #20]
 8017208:	4798      	blx	r3
 801720a:	4603      	mov	r3, r0
 801720c:	b9e8      	cbnz	r0, 801724a <fatfs_erase_fat+0x76>
 801720e:	4618      	mov	r0, r3
 8017210:	bdf8      	pop	{r3, r4, r5, r6, r7, pc}
 8017212:	23f8      	movs	r3, #248	; 0xf8
 8017214:	f884 3040 	strb.w	r3, [r4, #64]	; 0x40
 8017218:	23ff      	movs	r3, #255	; 0xff
 801721a:	f884 3041 	strb.w	r3, [r4, #65]	; 0x41
 801721e:	f884 3042 	strb.w	r3, [r4, #66]	; 0x42
 8017222:	220f      	movs	r2, #15
 8017224:	f884 2043 	strb.w	r2, [r4, #67]	; 0x43
 8017228:	f884 3044 	strb.w	r3, [r4, #68]	; 0x44
 801722c:	f884 3045 	strb.w	r3, [r4, #69]	; 0x45
 8017230:	f884 3046 	strb.w	r3, [r4, #70]	; 0x46
 8017234:	f884 3047 	strb.w	r3, [r4, #71]	; 0x47
 8017238:	f884 3048 	strb.w	r3, [r4, #72]	; 0x48
 801723c:	f884 3049 	strb.w	r3, [r4, #73]	; 0x49
 8017240:	f884 304a 	strb.w	r3, [r4, #74]	; 0x4a
 8017244:	f884 204b 	strb.w	r2, [r4, #75]	; 0x4b
 8017248:	e7da      	b.n	8017200 <fatfs_erase_fat+0x2c>
 801724a:	f44f 7200 	mov.w	r2, #512	; 0x200
 801724e:	2100      	movs	r1, #0
 8017250:	4630      	mov	r0, r6
 8017252:	f7fe f967 	bl	8015524 <memset>
 8017256:	f894 202c 	ldrb.w	r2, [r4, #44]	; 0x2c
 801725a:	6a23      	ldr	r3, [r4, #32]
 801725c:	fb03 f302 	mul.w	r3, r3, r2
 8017260:	2b01      	cmp	r3, #1
 8017262:	d914      	bls.n	801728e <fatfs_erase_fat+0xba>
 8017264:	2501      	movs	r5, #1
 8017266:	462f      	mov	r7, r5
 8017268:	6960      	ldr	r0, [r4, #20]
 801726a:	6b63      	ldr	r3, [r4, #52]	; 0x34
 801726c:	463a      	mov	r2, r7
 801726e:	4631      	mov	r1, r6
 8017270:	4428      	add	r0, r5
 8017272:	4798      	blx	r3
 8017274:	4603      	mov	r3, r0
 8017276:	2800      	cmp	r0, #0
 8017278:	d0c9      	beq.n	801720e <fatfs_erase_fat+0x3a>
 801727a:	3501      	adds	r5, #1
 801727c:	f894 202c 	ldrb.w	r2, [r4, #44]	; 0x2c
 8017280:	6a23      	ldr	r3, [r4, #32]
 8017282:	fb03 f302 	mul.w	r3, r3, r2
 8017286:	42ab      	cmp	r3, r5
 8017288:	d8ee      	bhi.n	8017268 <fatfs_erase_fat+0x94>
 801728a:	2301      	movs	r3, #1
 801728c:	e7bf      	b.n	801720e <fatfs_erase_fat+0x3a>
 801728e:	2301      	movs	r3, #1
 8017290:	e7bd      	b.n	801720e <fatfs_erase_fat+0x3a>

08017292 <fatfs_erase_sectors>:
 8017292:	e92d 41f0 	stmdb	sp!, {r4, r5, r6, r7, r8, lr}
 8017296:	4606      	mov	r6, r0
 8017298:	460c      	mov	r4, r1
 801729a:	4615      	mov	r5, r2
 801729c:	f100 0740 	add.w	r7, r0, #64	; 0x40
 80172a0:	f44f 7200 	mov.w	r2, #512	; 0x200
 80172a4:	2100      	movs	r1, #0
 80172a6:	4638      	mov	r0, r7
 80172a8:	f7fe f93c 	bl	8015524 <memset>
 80172ac:	2d00      	cmp	r5, #0
 80172ae:	dd10      	ble.n	80172d2 <fatfs_erase_sectors+0x40>
 80172b0:	4425      	add	r5, r4
 80172b2:	f04f 0801 	mov.w	r8, #1
 80172b6:	6b73      	ldr	r3, [r6, #52]	; 0x34
 80172b8:	4642      	mov	r2, r8
 80172ba:	4639      	mov	r1, r7
 80172bc:	4620      	mov	r0, r4
 80172be:	4798      	blx	r3
 80172c0:	4603      	mov	r3, r0
 80172c2:	b118      	cbz	r0, 80172cc <fatfs_erase_sectors+0x3a>
 80172c4:	3401      	adds	r4, #1
 80172c6:	42ac      	cmp	r4, r5
 80172c8:	d1f5      	bne.n	80172b6 <fatfs_erase_sectors+0x24>
 80172ca:	2301      	movs	r3, #1
 80172cc:	4618      	mov	r0, r3
 80172ce:	e8bd 81f0 	ldmia.w	sp!, {r4, r5, r6, r7, r8, pc}
 80172d2:	2301      	movs	r3, #1
 80172d4:	e7fa      	b.n	80172cc <fatfs_erase_sectors+0x3a>

080172d6 <fatfs_format_fat16>:
 80172d6:	e92d 43f8 	stmdb	sp!, {r3, r4, r5, r6, r7, r8, r9, lr}
 80172da:	4604      	mov	r4, r0
 80172dc:	460d      	mov	r5, r1
 80172de:	4616      	mov	r6, r2
 80172e0:	f04f 33ff 	mov.w	r3, #4294967295	; 0xffffffff
 80172e4:	f8c0 3240 	str.w	r3, [r0, #576]	; 0x240
 80172e8:	2300      	movs	r3, #0
 80172ea:	f8c0 3244 	str.w	r3, [r0, #580]	; 0x244
 80172ee:	6243      	str	r3, [r0, #36]	; 0x24
 80172f0:	f001 fdb5 	bl	8018e5e <fatfs_fat_init>
 80172f4:	6b23      	ldr	r3, [r4, #48]	; 0x30
 80172f6:	2b00      	cmp	r3, #0
 80172f8:	f000 80fb 	beq.w	80174f2 <fatfs_format_fat16+0x21c>
 80172fc:	6b63      	ldr	r3, [r4, #52]	; 0x34
 80172fe:	2b00      	cmp	r3, #0
 8017300:	f000 80fa 	beq.w	80174f8 <fatfs_format_fat16+0x222>
 8017304:	f04f 0800 	mov.w	r8, #0
 8017308:	f884 802d 	strb.w	r8, [r4, #45]	; 0x2d
 801730c:	f8a4 8018 	strh.w	r8, [r4, #24]
 8017310:	f8c4 8008 	str.w	r8, [r4, #8]
 8017314:	f8c4 801c 	str.w	r8, [r4, #28]
 8017318:	f104 0740 	add.w	r7, r4, #64	; 0x40
 801731c:	f44f 7200 	mov.w	r2, #512	; 0x200
 8017320:	4641      	mov	r1, r8
 8017322:	4638      	mov	r0, r7
 8017324:	f7fe f8fe 	bl	8015524 <memset>
 8017328:	23eb      	movs	r3, #235	; 0xeb
 801732a:	f884 3040 	strb.w	r3, [r4, #64]	; 0x40
 801732e:	233c      	movs	r3, #60	; 0x3c
 8017330:	f884 3041 	strb.w	r3, [r4, #65]	; 0x41
 8017334:	2390      	movs	r3, #144	; 0x90
 8017336:	f884 3042 	strb.w	r3, [r4, #66]	; 0x42
 801733a:	234d      	movs	r3, #77	; 0x4d
 801733c:	f884 3043 	strb.w	r3, [r4, #67]	; 0x43
 8017340:	2353      	movs	r3, #83	; 0x53
 8017342:	f884 3044 	strb.w	r3, [r4, #68]	; 0x44
 8017346:	2244      	movs	r2, #68	; 0x44
 8017348:	f884 2045 	strb.w	r2, [r4, #69]	; 0x45
 801734c:	224f      	movs	r2, #79	; 0x4f
 801734e:	f884 2046 	strb.w	r2, [r4, #70]	; 0x46
 8017352:	f884 3047 	strb.w	r3, [r4, #71]	; 0x47
 8017356:	2335      	movs	r3, #53	; 0x35
 8017358:	f884 3048 	strb.w	r3, [r4, #72]	; 0x48
 801735c:	232e      	movs	r3, #46	; 0x2e
 801735e:	f884 3049 	strb.w	r3, [r4, #73]	; 0x49
 8017362:	2330      	movs	r3, #48	; 0x30
 8017364:	f884 304a 	strb.w	r3, [r4, #74]	; 0x4a
 8017368:	f884 804b 	strb.w	r8, [r4, #75]	; 0x4b
 801736c:	2302      	movs	r3, #2
 801736e:	f884 304c 	strb.w	r3, [r4, #76]	; 0x4c
 8017372:	4b63      	ldr	r3, [pc, #396]	; (8017500 <fatfs_format_fat16+0x22a>)
 8017374:	7918      	ldrb	r0, [r3, #4]
 8017376:	b130      	cbz	r0, 8017386 <fatfs_format_fat16+0xb0>
 8017378:	681a      	ldr	r2, [r3, #0]
 801737a:	4295      	cmp	r5, r2
 801737c:	d907      	bls.n	801738e <fatfs_format_fat16+0xb8>
 801737e:	3308      	adds	r3, #8
 8017380:	7918      	ldrb	r0, [r3, #4]
 8017382:	2800      	cmp	r0, #0
 8017384:	d1f8      	bne.n	8017378 <fatfs_format_fat16+0xa2>
 8017386:	2300      	movs	r3, #0
 8017388:	7023      	strb	r3, [r4, #0]
 801738a:	2000      	movs	r0, #0
 801738c:	e0b6      	b.n	80174fc <fatfs_format_fat16+0x226>
 801738e:	7020      	strb	r0, [r4, #0]
 8017390:	2800      	cmp	r0, #0
 8017392:	d0fa      	beq.n	801738a <fatfs_format_fat16+0xb4>
 8017394:	f884 004d 	strb.w	r0, [r4, #77]	; 0x4d
 8017398:	2308      	movs	r3, #8
 801739a:	8563      	strh	r3, [r4, #42]	; 0x2a
 801739c:	f884 304e 	strb.w	r3, [r4, #78]	; 0x4e
 80173a0:	2300      	movs	r3, #0
 80173a2:	f884 304f 	strb.w	r3, [r4, #79]	; 0x4f
 80173a6:	2202      	movs	r2, #2
 80173a8:	f884 202c 	strb.w	r2, [r4, #44]	; 0x2c
 80173ac:	f884 2050 	strb.w	r2, [r4, #80]	; 0x50
 80173b0:	f44f 7100 	mov.w	r1, #512	; 0x200
 80173b4:	8521      	strh	r1, [r4, #40]	; 0x28
 80173b6:	f884 3051 	strb.w	r3, [r4, #81]	; 0x51
 80173ba:	f884 2052 	strb.w	r2, [r4, #82]	; 0x52
 80173be:	f884 3053 	strb.w	r3, [r4, #83]	; 0x53
 80173c2:	f884 3054 	strb.w	r3, [r4, #84]	; 0x54
 80173c6:	22f8      	movs	r2, #248	; 0xf8
 80173c8:	f884 2055 	strb.w	r2, [r4, #85]	; 0x55
 80173cc:	fbb5 f0f0 	udiv	r0, r5, r0
 80173d0:	3001      	adds	r0, #1
 80173d2:	0a00      	lsrs	r0, r0, #8
 80173d4:	3001      	adds	r0, #1
 80173d6:	6220      	str	r0, [r4, #32]
 80173d8:	f884 0056 	strb.w	r0, [r4, #86]	; 0x56
 80173dc:	0a00      	lsrs	r0, r0, #8
 80173de:	f884 0057 	strb.w	r0, [r4, #87]	; 0x57
 80173e2:	f884 3058 	strb.w	r3, [r4, #88]	; 0x58
 80173e6:	f884 3059 	strb.w	r3, [r4, #89]	; 0x59
 80173ea:	f884 305a 	strb.w	r3, [r4, #90]	; 0x5a
 80173ee:	f884 305b 	strb.w	r3, [r4, #91]	; 0x5b
 80173f2:	2220      	movs	r2, #32
 80173f4:	f884 205c 	strb.w	r2, [r4, #92]	; 0x5c
 80173f8:	f884 305d 	strb.w	r3, [r4, #93]	; 0x5d
 80173fc:	f884 305e 	strb.w	r3, [r4, #94]	; 0x5e
 8017400:	f884 305f 	strb.w	r3, [r4, #95]	; 0x5f
 8017404:	f884 5060 	strb.w	r5, [r4, #96]	; 0x60
 8017408:	0a2a      	lsrs	r2, r5, #8
 801740a:	f884 2061 	strb.w	r2, [r4, #97]	; 0x61
 801740e:	0c2a      	lsrs	r2, r5, #16
 8017410:	f884 2062 	strb.w	r2, [r4, #98]	; 0x62
 8017414:	0e2d      	lsrs	r5, r5, #24
 8017416:	f884 5063 	strb.w	r5, [r4, #99]	; 0x63
 801741a:	f884 3064 	strb.w	r3, [r4, #100]	; 0x64
 801741e:	f884 3065 	strb.w	r3, [r4, #101]	; 0x65
 8017422:	2229      	movs	r2, #41	; 0x29
 8017424:	f884 2066 	strb.w	r2, [r4, #102]	; 0x66
 8017428:	2212      	movs	r2, #18
 801742a:	f884 2067 	strb.w	r2, [r4, #103]	; 0x67
 801742e:	2234      	movs	r2, #52	; 0x34
 8017430:	f884 2068 	strb.w	r2, [r4, #104]	; 0x68
 8017434:	2256      	movs	r2, #86	; 0x56
 8017436:	f884 2069 	strb.w	r2, [r4, #105]	; 0x69
 801743a:	2278      	movs	r2, #120	; 0x78
 801743c:	f884 206a 	strb.w	r2, [r4, #106]	; 0x6a
 8017440:	f104 086b 	add.w	r8, r4, #107	; 0x6b
 8017444:	461d      	mov	r5, r3
 8017446:	f04f 0920 	mov.w	r9, #32
 801744a:	4630      	mov	r0, r6
 801744c:	f7fe f8ef 	bl	801562e <strlen>
 8017450:	42a8      	cmp	r0, r5
 8017452:	bfc6      	itte	gt
 8017454:	5d73      	ldrbgt	r3, [r6, r5]
 8017456:	f888 3000 	strbgt.w	r3, [r8]
 801745a:	f888 9000 	strble.w	r9, [r8]
 801745e:	3501      	adds	r5, #1
 8017460:	f108 0801 	add.w	r8, r8, #1
 8017464:	2d0b      	cmp	r5, #11
 8017466:	d1f0      	bne.n	801744a <fatfs_format_fat16+0x174>
 8017468:	2346      	movs	r3, #70	; 0x46
 801746a:	f884 3076 	strb.w	r3, [r4, #118]	; 0x76
 801746e:	2341      	movs	r3, #65	; 0x41
 8017470:	f884 3077 	strb.w	r3, [r4, #119]	; 0x77
 8017474:	2354      	movs	r3, #84	; 0x54
 8017476:	f884 3078 	strb.w	r3, [r4, #120]	; 0x78
 801747a:	2331      	movs	r3, #49	; 0x31
 801747c:	f884 3079 	strb.w	r3, [r4, #121]	; 0x79
 8017480:	2336      	movs	r3, #54	; 0x36
 8017482:	f884 307a 	strb.w	r3, [r4, #122]	; 0x7a
 8017486:	2320      	movs	r3, #32
 8017488:	f884 307b 	strb.w	r3, [r4, #123]	; 0x7b
 801748c:	f884 307c 	strb.w	r3, [r4, #124]	; 0x7c
 8017490:	f884 307d 	strb.w	r3, [r4, #125]	; 0x7d
 8017494:	2355      	movs	r3, #85	; 0x55
 8017496:	f884 323e 	strb.w	r3, [r4, #574]	; 0x23e
 801749a:	23aa      	movs	r3, #170	; 0xaa
 801749c:	f884 323f 	strb.w	r3, [r4, #575]	; 0x23f
 80174a0:	6b63      	ldr	r3, [r4, #52]	; 0x34
 80174a2:	2201      	movs	r2, #1
 80174a4:	4639      	mov	r1, r7
 80174a6:	2000      	movs	r0, #0
 80174a8:	4798      	blx	r3
 80174aa:	b338      	cbz	r0, 80174fc <fatfs_format_fat16+0x226>
 80174ac:	8d61      	ldrh	r1, [r4, #42]	; 0x2a
 80174ae:	f894 302c 	ldrb.w	r3, [r4, #44]	; 0x2c
 80174b2:	6a22      	ldr	r2, [r4, #32]
 80174b4:	fb02 f203 	mul.w	r2, r2, r3
 80174b8:	188b      	adds	r3, r1, r2
 80174ba:	60e3      	str	r3, [r4, #12]
 80174bc:	8d23      	ldrh	r3, [r4, #40]	; 0x28
 80174be:	015b      	lsls	r3, r3, #5
 80174c0:	f203 13ff 	addw	r3, r3, #511	; 0x1ff
 80174c4:	125b      	asrs	r3, r3, #9
 80174c6:	6123      	str	r3, [r4, #16]
 80174c8:	69e3      	ldr	r3, [r4, #28]
 80174ca:	440b      	add	r3, r1
 80174cc:	6163      	str	r3, [r4, #20]
 80174ce:	441a      	add	r2, r3
 80174d0:	6062      	str	r2, [r4, #4]
 80174d2:	2100      	movs	r1, #0
 80174d4:	4620      	mov	r0, r4
 80174d6:	f7ff fe7d 	bl	80171d4 <fatfs_erase_fat>
 80174da:	b178      	cbz	r0, 80174fc <fatfs_format_fat16+0x226>
 80174dc:	69e1      	ldr	r1, [r4, #28]
 80174de:	68e3      	ldr	r3, [r4, #12]
 80174e0:	6922      	ldr	r2, [r4, #16]
 80174e2:	4419      	add	r1, r3
 80174e4:	4620      	mov	r0, r4
 80174e6:	f7ff fed4 	bl	8017292 <fatfs_erase_sectors>
 80174ea:	3800      	subs	r0, #0
 80174ec:	bf18      	it	ne
 80174ee:	2001      	movne	r0, #1
 80174f0:	e004      	b.n	80174fc <fatfs_format_fat16+0x226>
 80174f2:	f04f 30ff 	mov.w	r0, #4294967295	; 0xffffffff
 80174f6:	e001      	b.n	80174fc <fatfs_format_fat16+0x226>
 80174f8:	f04f 30ff 	mov.w	r0, #4294967295	; 0xffffffff
 80174fc:	e8bd 83f8 	ldmia.w	sp!, {r3, r4, r5, r6, r7, r8, r9, pc}
 8017500:	2000000c 	.word	0x2000000c

08017504 <fatfs_format_fat32>:
 8017504:	e92d 43f8 	stmdb	sp!, {r3, r4, r5, r6, r7, r8, r9, lr}
 8017508:	4604      	mov	r4, r0
 801750a:	460d      	mov	r5, r1
 801750c:	4616      	mov	r6, r2
 801750e:	f04f 33ff 	mov.w	r3, #4294967295	; 0xffffffff
 8017512:	f8c0 3240 	str.w	r3, [r0, #576]	; 0x240
 8017516:	2300      	movs	r3, #0
 8017518:	f8c0 3244 	str.w	r3, [r0, #580]	; 0x244
 801751c:	6243      	str	r3, [r0, #36]	; 0x24
 801751e:	f001 fc9e 	bl	8018e5e <fatfs_fat_init>
 8017522:	6b23      	ldr	r3, [r4, #48]	; 0x30
 8017524:	2b00      	cmp	r3, #0
 8017526:	f000 8156 	beq.w	80177d6 <fatfs_format_fat32+0x2d2>
 801752a:	6b63      	ldr	r3, [r4, #52]	; 0x34
 801752c:	2b00      	cmp	r3, #0
 801752e:	f000 8155 	beq.w	80177dc <fatfs_format_fat32+0x2d8>
 8017532:	2301      	movs	r3, #1
 8017534:	f884 302d 	strb.w	r3, [r4, #45]	; 0x2d
 8017538:	8323      	strh	r3, [r4, #24]
 801753a:	f04f 0902 	mov.w	r9, #2
 801753e:	f8c4 9008 	str.w	r9, [r4, #8]
 8017542:	f04f 0800 	mov.w	r8, #0
 8017546:	f8c4 801c 	str.w	r8, [r4, #28]
 801754a:	f104 0740 	add.w	r7, r4, #64	; 0x40
 801754e:	f44f 7200 	mov.w	r2, #512	; 0x200
 8017552:	4641      	mov	r1, r8
 8017554:	4638      	mov	r0, r7
 8017556:	f7fd ffe5 	bl	8015524 <memset>
 801755a:	23eb      	movs	r3, #235	; 0xeb
 801755c:	f884 3040 	strb.w	r3, [r4, #64]	; 0x40
 8017560:	233c      	movs	r3, #60	; 0x3c
 8017562:	f884 3041 	strb.w	r3, [r4, #65]	; 0x41
 8017566:	2390      	movs	r3, #144	; 0x90
 8017568:	f884 3042 	strb.w	r3, [r4, #66]	; 0x42
 801756c:	234d      	movs	r3, #77	; 0x4d
 801756e:	f884 3043 	strb.w	r3, [r4, #67]	; 0x43
 8017572:	2353      	movs	r3, #83	; 0x53
 8017574:	f884 3044 	strb.w	r3, [r4, #68]	; 0x44
 8017578:	2244      	movs	r2, #68	; 0x44
 801757a:	f884 2045 	strb.w	r2, [r4, #69]	; 0x45
 801757e:	224f      	movs	r2, #79	; 0x4f
 8017580:	f884 2046 	strb.w	r2, [r4, #70]	; 0x46
 8017584:	f884 3047 	strb.w	r3, [r4, #71]	; 0x47
 8017588:	2335      	movs	r3, #53	; 0x35
 801758a:	f884 3048 	strb.w	r3, [r4, #72]	; 0x48
 801758e:	232e      	movs	r3, #46	; 0x2e
 8017590:	f884 3049 	strb.w	r3, [r4, #73]	; 0x49
 8017594:	2330      	movs	r3, #48	; 0x30
 8017596:	f884 304a 	strb.w	r3, [r4, #74]	; 0x4a
 801759a:	f884 804b 	strb.w	r8, [r4, #75]	; 0x4b
 801759e:	f884 904c 	strb.w	r9, [r4, #76]	; 0x4c
 80175a2:	4b90      	ldr	r3, [pc, #576]	; (80177e4 <fatfs_format_fat32+0x2e0>)
 80175a4:	f893 1044 	ldrb.w	r1, [r3, #68]	; 0x44
 80175a8:	b139      	cbz	r1, 80175ba <fatfs_format_fat32+0xb6>
 80175aa:	3340      	adds	r3, #64	; 0x40
 80175ac:	681a      	ldr	r2, [r3, #0]
 80175ae:	4295      	cmp	r5, r2
 80175b0:	d907      	bls.n	80175c2 <fatfs_format_fat32+0xbe>
 80175b2:	3308      	adds	r3, #8
 80175b4:	7919      	ldrb	r1, [r3, #4]
 80175b6:	2900      	cmp	r1, #0
 80175b8:	d1f8      	bne.n	80175ac <fatfs_format_fat32+0xa8>
 80175ba:	2300      	movs	r3, #0
 80175bc:	7023      	strb	r3, [r4, #0]
 80175be:	2000      	movs	r0, #0
 80175c0:	e10e      	b.n	80177e0 <fatfs_format_fat32+0x2dc>
 80175c2:	7021      	strb	r1, [r4, #0]
 80175c4:	2900      	cmp	r1, #0
 80175c6:	d0fa      	beq.n	80175be <fatfs_format_fat32+0xba>
 80175c8:	f884 104d 	strb.w	r1, [r4, #77]	; 0x4d
 80175cc:	2320      	movs	r3, #32
 80175ce:	8563      	strh	r3, [r4, #42]	; 0x2a
 80175d0:	f884 304e 	strb.w	r3, [r4, #78]	; 0x4e
 80175d4:	2300      	movs	r3, #0
 80175d6:	f884 304f 	strb.w	r3, [r4, #79]	; 0x4f
 80175da:	2202      	movs	r2, #2
 80175dc:	f884 202c 	strb.w	r2, [r4, #44]	; 0x2c
 80175e0:	f884 2050 	strb.w	r2, [r4, #80]	; 0x50
 80175e4:	8523      	strh	r3, [r4, #40]	; 0x28
 80175e6:	f884 3051 	strb.w	r3, [r4, #81]	; 0x51
 80175ea:	f884 3052 	strb.w	r3, [r4, #82]	; 0x52
 80175ee:	f884 3053 	strb.w	r3, [r4, #83]	; 0x53
 80175f2:	f884 3054 	strb.w	r3, [r4, #84]	; 0x54
 80175f6:	22f8      	movs	r2, #248	; 0xf8
 80175f8:	f884 2055 	strb.w	r2, [r4, #85]	; 0x55
 80175fc:	f884 3056 	strb.w	r3, [r4, #86]	; 0x56
 8017600:	f884 3057 	strb.w	r3, [r4, #87]	; 0x57
 8017604:	223f      	movs	r2, #63	; 0x3f
 8017606:	f884 2058 	strb.w	r2, [r4, #88]	; 0x58
 801760a:	f884 3059 	strb.w	r3, [r4, #89]	; 0x59
 801760e:	22ff      	movs	r2, #255	; 0xff
 8017610:	f884 205a 	strb.w	r2, [r4, #90]	; 0x5a
 8017614:	f884 305b 	strb.w	r3, [r4, #91]	; 0x5b
 8017618:	f884 305c 	strb.w	r3, [r4, #92]	; 0x5c
 801761c:	f884 305d 	strb.w	r3, [r4, #93]	; 0x5d
 8017620:	f884 305e 	strb.w	r3, [r4, #94]	; 0x5e
 8017624:	f884 305f 	strb.w	r3, [r4, #95]	; 0x5f
 8017628:	f884 5060 	strb.w	r5, [r4, #96]	; 0x60
 801762c:	0a2a      	lsrs	r2, r5, #8
 801762e:	f884 2061 	strb.w	r2, [r4, #97]	; 0x61
 8017632:	0c2a      	lsrs	r2, r5, #16
 8017634:	f884 2062 	strb.w	r2, [r4, #98]	; 0x62
 8017638:	0e2a      	lsrs	r2, r5, #24
 801763a:	f884 2063 	strb.w	r2, [r4, #99]	; 0x63
 801763e:	fbb5 f5f1 	udiv	r5, r5, r1
 8017642:	3501      	adds	r5, #1
 8017644:	09ed      	lsrs	r5, r5, #7
 8017646:	3501      	adds	r5, #1
 8017648:	6225      	str	r5, [r4, #32]
 801764a:	f884 5064 	strb.w	r5, [r4, #100]	; 0x64
 801764e:	0a2a      	lsrs	r2, r5, #8
 8017650:	f884 2065 	strb.w	r2, [r4, #101]	; 0x65
 8017654:	0c2a      	lsrs	r2, r5, #16
 8017656:	f884 2066 	strb.w	r2, [r4, #102]	; 0x66
 801765a:	0e2d      	lsrs	r5, r5, #24
 801765c:	f884 5067 	strb.w	r5, [r4, #103]	; 0x67
 8017660:	f884 3068 	strb.w	r3, [r4, #104]	; 0x68
 8017664:	f884 3069 	strb.w	r3, [r4, #105]	; 0x69
 8017668:	f884 306a 	strb.w	r3, [r4, #106]	; 0x6a
 801766c:	f884 306b 	strb.w	r3, [r4, #107]	; 0x6b
 8017670:	68a2      	ldr	r2, [r4, #8]
 8017672:	f884 206c 	strb.w	r2, [r4, #108]	; 0x6c
 8017676:	0a11      	lsrs	r1, r2, #8
 8017678:	f884 106d 	strb.w	r1, [r4, #109]	; 0x6d
 801767c:	0c11      	lsrs	r1, r2, #16
 801767e:	f884 106e 	strb.w	r1, [r4, #110]	; 0x6e
 8017682:	0e12      	lsrs	r2, r2, #24
 8017684:	f884 206f 	strb.w	r2, [r4, #111]	; 0x6f
 8017688:	8b22      	ldrh	r2, [r4, #24]
 801768a:	f884 2070 	strb.w	r2, [r4, #112]	; 0x70
 801768e:	0a12      	lsrs	r2, r2, #8
 8017690:	f884 2071 	strb.w	r2, [r4, #113]	; 0x71
 8017694:	2206      	movs	r2, #6
 8017696:	f884 2072 	strb.w	r2, [r4, #114]	; 0x72
 801769a:	f884 3073 	strb.w	r3, [r4, #115]	; 0x73
 801769e:	f884 3080 	strb.w	r3, [r4, #128]	; 0x80
 80176a2:	2229      	movs	r2, #41	; 0x29
 80176a4:	f884 2082 	strb.w	r2, [r4, #130]	; 0x82
 80176a8:	2212      	movs	r2, #18
 80176aa:	f884 2083 	strb.w	r2, [r4, #131]	; 0x83
 80176ae:	2234      	movs	r2, #52	; 0x34
 80176b0:	f884 2084 	strb.w	r2, [r4, #132]	; 0x84
 80176b4:	2256      	movs	r2, #86	; 0x56
 80176b6:	f884 2085 	strb.w	r2, [r4, #133]	; 0x85
 80176ba:	2278      	movs	r2, #120	; 0x78
 80176bc:	f884 2086 	strb.w	r2, [r4, #134]	; 0x86
 80176c0:	f104 0887 	add.w	r8, r4, #135	; 0x87
 80176c4:	461d      	mov	r5, r3
 80176c6:	f04f 0920 	mov.w	r9, #32
 80176ca:	4630      	mov	r0, r6
 80176cc:	f7fd ffaf 	bl	801562e <strlen>
 80176d0:	42a8      	cmp	r0, r5
 80176d2:	bfc6      	itte	gt
 80176d4:	5d73      	ldrbgt	r3, [r6, r5]
 80176d6:	f888 3000 	strbgt.w	r3, [r8]
 80176da:	f888 9000 	strble.w	r9, [r8]
 80176de:	3501      	adds	r5, #1
 80176e0:	f108 0801 	add.w	r8, r8, #1
 80176e4:	2d0b      	cmp	r5, #11
 80176e6:	d1f0      	bne.n	80176ca <fatfs_format_fat32+0x1c6>
 80176e8:	2346      	movs	r3, #70	; 0x46
 80176ea:	f884 3092 	strb.w	r3, [r4, #146]	; 0x92
 80176ee:	2341      	movs	r3, #65	; 0x41
 80176f0:	f884 3093 	strb.w	r3, [r4, #147]	; 0x93
 80176f4:	2354      	movs	r3, #84	; 0x54
 80176f6:	f884 3094 	strb.w	r3, [r4, #148]	; 0x94
 80176fa:	2333      	movs	r3, #51	; 0x33
 80176fc:	f884 3095 	strb.w	r3, [r4, #149]	; 0x95
 8017700:	2332      	movs	r3, #50	; 0x32
 8017702:	f884 3096 	strb.w	r3, [r4, #150]	; 0x96
 8017706:	2320      	movs	r3, #32
 8017708:	f884 3097 	strb.w	r3, [r4, #151]	; 0x97
 801770c:	f884 3098 	strb.w	r3, [r4, #152]	; 0x98
 8017710:	f884 3099 	strb.w	r3, [r4, #153]	; 0x99
 8017714:	2355      	movs	r3, #85	; 0x55
 8017716:	f884 323e 	strb.w	r3, [r4, #574]	; 0x23e
 801771a:	23aa      	movs	r3, #170	; 0xaa
 801771c:	f884 323f 	strb.w	r3, [r4, #575]	; 0x23f
 8017720:	6b63      	ldr	r3, [r4, #52]	; 0x34
 8017722:	2201      	movs	r2, #1
 8017724:	4639      	mov	r1, r7
 8017726:	2000      	movs	r0, #0
 8017728:	4798      	blx	r3
 801772a:	2800      	cmp	r0, #0
 801772c:	d058      	beq.n	80177e0 <fatfs_format_fat32+0x2dc>
 801772e:	8d63      	ldrh	r3, [r4, #42]	; 0x2a
 8017730:	69e2      	ldr	r2, [r4, #28]
 8017732:	4413      	add	r3, r2
 8017734:	6163      	str	r3, [r4, #20]
 8017736:	f894 202c 	ldrb.w	r2, [r4, #44]	; 0x2c
 801773a:	6a21      	ldr	r1, [r4, #32]
 801773c:	fb01 3302 	mla	r3, r1, r2, r3
 8017740:	6063      	str	r3, [r4, #4]
 8017742:	8b25      	ldrh	r5, [r4, #24]
 8017744:	f44f 7200 	mov.w	r2, #512	; 0x200
 8017748:	2100      	movs	r1, #0
 801774a:	4638      	mov	r0, r7
 801774c:	f7fd feea 	bl	8015524 <memset>
 8017750:	2352      	movs	r3, #82	; 0x52
 8017752:	f884 3040 	strb.w	r3, [r4, #64]	; 0x40
 8017756:	f884 3041 	strb.w	r3, [r4, #65]	; 0x41
 801775a:	2361      	movs	r3, #97	; 0x61
 801775c:	f884 3042 	strb.w	r3, [r4, #66]	; 0x42
 8017760:	2241      	movs	r2, #65	; 0x41
 8017762:	f884 2043 	strb.w	r2, [r4, #67]	; 0x43
 8017766:	2172      	movs	r1, #114	; 0x72
 8017768:	f884 1224 	strb.w	r1, [r4, #548]	; 0x224
 801776c:	f884 1225 	strb.w	r1, [r4, #549]	; 0x225
 8017770:	f884 2226 	strb.w	r2, [r4, #550]	; 0x226
 8017774:	f884 3227 	strb.w	r3, [r4, #551]	; 0x227
 8017778:	23ff      	movs	r3, #255	; 0xff
 801777a:	f884 3228 	strb.w	r3, [r4, #552]	; 0x228
 801777e:	f884 3229 	strb.w	r3, [r4, #553]	; 0x229
 8017782:	f884 322a 	strb.w	r3, [r4, #554]	; 0x22a
 8017786:	f884 322b 	strb.w	r3, [r4, #555]	; 0x22b
 801778a:	f884 322c 	strb.w	r3, [r4, #556]	; 0x22c
 801778e:	f884 322d 	strb.w	r3, [r4, #557]	; 0x22d
 8017792:	f884 322e 	strb.w	r3, [r4, #558]	; 0x22e
 8017796:	f884 322f 	strb.w	r3, [r4, #559]	; 0x22f
 801779a:	2355      	movs	r3, #85	; 0x55
 801779c:	f884 323e 	strb.w	r3, [r4, #574]	; 0x23e
 80177a0:	23aa      	movs	r3, #170	; 0xaa
 80177a2:	f884 323f 	strb.w	r3, [r4, #575]	; 0x23f
 80177a6:	6b63      	ldr	r3, [r4, #52]	; 0x34
 80177a8:	2201      	movs	r2, #1
 80177aa:	4639      	mov	r1, r7
 80177ac:	4628      	mov	r0, r5
 80177ae:	4798      	blx	r3
 80177b0:	b1b0      	cbz	r0, 80177e0 <fatfs_format_fat32+0x2dc>
 80177b2:	2101      	movs	r1, #1
 80177b4:	4620      	mov	r0, r4
 80177b6:	f7ff fd0d 	bl	80171d4 <fatfs_erase_fat>
 80177ba:	b188      	cbz	r0, 80177e0 <fatfs_format_fat32+0x2dc>
 80177bc:	68a1      	ldr	r1, [r4, #8]
 80177be:	4620      	mov	r0, r4
 80177c0:	f7fe fe4b 	bl	801645a <fatfs_lba_of_cluster>
 80177c4:	4601      	mov	r1, r0
 80177c6:	7822      	ldrb	r2, [r4, #0]
 80177c8:	4620      	mov	r0, r4
 80177ca:	f7ff fd62 	bl	8017292 <fatfs_erase_sectors>
 80177ce:	3800      	subs	r0, #0
 80177d0:	bf18      	it	ne
 80177d2:	2001      	movne	r0, #1
 80177d4:	e004      	b.n	80177e0 <fatfs_format_fat32+0x2dc>
 80177d6:	f04f 30ff 	mov.w	r0, #4294967295	; 0xffffffff
 80177da:	e001      	b.n	80177e0 <fatfs_format_fat32+0x2dc>
 80177dc:	f04f 30ff 	mov.w	r0, #4294967295	; 0xffffffff
 80177e0:	e8bd 83f8 	ldmia.w	sp!, {r3, r4, r5, r6, r7, r8, r9, pc}
 80177e4:	2000000c 	.word	0x2000000c

080177e8 <fatfs_format>:
 80177e8:	b508      	push	{r3, lr}
 80177ea:	f5b1 0f80 	cmp.w	r1, #4194304	; 0x400000
 80177ee:	d802      	bhi.n	80177f6 <fatfs_format+0xe>
 80177f0:	f7ff fd71 	bl	80172d6 <fatfs_format_fat16>
 80177f4:	bd08      	pop	{r3, pc}
 80177f6:	f7ff fe85 	bl	8017504 <fatfs_format_fat32>
 80177fa:	e7fb      	b.n	80177f4 <fatfs_format+0xc>

080177fc <fat_list_insert_last>:
 80177fc:	6843      	ldr	r3, [r0, #4]
 80177fe:	b133      	cbz	r3, 801780e <fat_list_insert_last+0x12>
 8017800:	600b      	str	r3, [r1, #0]
 8017802:	685a      	ldr	r2, [r3, #4]
 8017804:	604a      	str	r2, [r1, #4]
 8017806:	b19a      	cbz	r2, 8017830 <fat_list_insert_last+0x34>
 8017808:	6011      	str	r1, [r2, #0]
 801780a:	6059      	str	r1, [r3, #4]
 801780c:	4770      	bx	lr
 801780e:	6803      	ldr	r3, [r0, #0]
 8017810:	b13b      	cbz	r3, 8017822 <fat_list_insert_last+0x26>
 8017812:	681a      	ldr	r2, [r3, #0]
 8017814:	600a      	str	r2, [r1, #0]
 8017816:	604b      	str	r3, [r1, #4]
 8017818:	681a      	ldr	r2, [r3, #0]
 801781a:	b13a      	cbz	r2, 801782c <fat_list_insert_last+0x30>
 801781c:	6051      	str	r1, [r2, #4]
 801781e:	6019      	str	r1, [r3, #0]
 8017820:	4770      	bx	lr
 8017822:	6001      	str	r1, [r0, #0]
 8017824:	6041      	str	r1, [r0, #4]
 8017826:	600b      	str	r3, [r1, #0]
 8017828:	604b      	str	r3, [r1, #4]
 801782a:	4770      	bx	lr
 801782c:	6001      	str	r1, [r0, #0]
 801782e:	e7f6      	b.n	801781e <fat_list_insert_last+0x22>
 8017830:	6041      	str	r1, [r0, #4]
 8017832:	e7ea      	b.n	801780a <fat_list_insert_last+0xe>

08017834 <_allocate_file>:
 8017834:	b510      	push	{r4, lr}
 8017836:	4b0d      	ldr	r3, [pc, #52]	; (801786c <_allocate_file+0x38>)
 8017838:	681c      	ldr	r4, [r3, #0]
 801783a:	b16c      	cbz	r4, 8017858 <_allocate_file+0x24>
 801783c:	6823      	ldr	r3, [r4, #0]
 801783e:	b16b      	cbz	r3, 801785c <_allocate_file+0x28>
 8017840:	6862      	ldr	r2, [r4, #4]
 8017842:	605a      	str	r2, [r3, #4]
 8017844:	6863      	ldr	r3, [r4, #4]
 8017846:	b16b      	cbz	r3, 8017864 <_allocate_file+0x30>
 8017848:	6822      	ldr	r2, [r4, #0]
 801784a:	601a      	str	r2, [r3, #0]
 801784c:	4621      	mov	r1, r4
 801784e:	4808      	ldr	r0, [pc, #32]	; (8017870 <_allocate_file+0x3c>)
 8017850:	f7ff ffd4 	bl	80177fc <fat_list_insert_last>
 8017854:	f5a4 742d 	sub.w	r4, r4, #692	; 0x2b4
 8017858:	4620      	mov	r0, r4
 801785a:	bd10      	pop	{r4, pc}
 801785c:	6862      	ldr	r2, [r4, #4]
 801785e:	4b03      	ldr	r3, [pc, #12]	; (801786c <_allocate_file+0x38>)
 8017860:	601a      	str	r2, [r3, #0]
 8017862:	e7ef      	b.n	8017844 <_allocate_file+0x10>
 8017864:	6822      	ldr	r2, [r4, #0]
 8017866:	4b01      	ldr	r3, [pc, #4]	; (801786c <_allocate_file+0x38>)
 8017868:	605a      	str	r2, [r3, #4]
 801786a:	e7ef      	b.n	801784c <_allocate_file+0x18>
 801786c:	200000ac 	.word	0x200000ac
 8017870:	200000b4 	.word	0x200000b4

08017874 <_check_file_open>:
 8017874:	e92d 41f0 	stmdb	sp!, {r4, r5, r6, r7, r8, lr}
 8017878:	4b11      	ldr	r3, [pc, #68]	; (80178c0 <_check_file_open+0x4c>)
 801787a:	689c      	ldr	r4, [r3, #8]
 801787c:	b1f4      	cbz	r4, 80178bc <_check_file_open+0x48>
 801787e:	4606      	mov	r6, r0
 8017880:	f100 0714 	add.w	r7, r0, #20
 8017884:	f100 0854 	add.w	r8, r0, #84	; 0x54
 8017888:	e001      	b.n	801788e <_check_file_open+0x1a>
 801788a:	6864      	ldr	r4, [r4, #4]
 801788c:	b19c      	cbz	r4, 80178b6 <_check_file_open+0x42>
 801788e:	f5a4 752d 	sub.w	r5, r4, #692	; 0x2b4
 8017892:	42b5      	cmp	r5, r6
 8017894:	d0f9      	beq.n	801788a <_check_file_open+0x16>
 8017896:	4639      	mov	r1, r7
 8017898:	f5a4 7028 	sub.w	r0, r4, #672	; 0x2a0
 801789c:	f7ff fa05 	bl	8016caa <fatfs_compare_names>
 80178a0:	2800      	cmp	r0, #0
 80178a2:	d0f2      	beq.n	801788a <_check_file_open+0x16>
 80178a4:	4641      	mov	r1, r8
 80178a6:	f5a4 7018 	sub.w	r0, r4, #608	; 0x260
 80178aa:	f7ff f9fe 	bl	8016caa <fatfs_compare_names>
 80178ae:	2800      	cmp	r0, #0
 80178b0:	d0eb      	beq.n	801788a <_check_file_open+0x16>
 80178b2:	2001      	movs	r0, #1
 80178b4:	e000      	b.n	80178b8 <_check_file_open+0x44>
 80178b6:	2000      	movs	r0, #0
 80178b8:	e8bd 81f0 	ldmia.w	sp!, {r4, r5, r6, r7, r8, pc}
 80178bc:	2000      	movs	r0, #0
 80178be:	e7fb      	b.n	80178b8 <_check_file_open+0x44>
 80178c0:	200000ac 	.word	0x200000ac

080178c4 <_open_directory>:
 80178c4:	e92d 43f0 	stmdb	sp!, {r4, r5, r6, r7, r8, r9, lr}
 80178c8:	b099      	sub	sp, #100	; 0x64
 80178ca:	4606      	mov	r6, r0
 80178cc:	4688      	mov	r8, r1
 80178ce:	481a      	ldr	r0, [pc, #104]	; (8017938 <_open_directory+0x74>)
 80178d0:	f7fe fec0 	bl	8016654 <fatfs_get_root_cluster>
 80178d4:	4604      	mov	r4, r0
 80178d6:	4630      	mov	r0, r6
 80178d8:	f7ff f945 	bl	8016b66 <fatfs_total_path_levels>
 80178dc:	1e07      	subs	r7, r0, #0
 80178de:	db20      	blt.n	8017922 <_open_directory+0x5e>
 80178e0:	2500      	movs	r5, #0
 80178e2:	f8df 9054 	ldr.w	r9, [pc, #84]	; 8017938 <_open_directory+0x74>
 80178e6:	2340      	movs	r3, #64	; 0x40
 80178e8:	aa08      	add	r2, sp, #32
 80178ea:	4629      	mov	r1, r5
 80178ec:	4630      	mov	r0, r6
 80178ee:	f7ff f961 	bl	8016bb4 <fatfs_get_substring>
 80178f2:	f1b0 3fff 	cmp.w	r0, #4294967295	; 0xffffffff
 80178f6:	d01b      	beq.n	8017930 <_open_directory+0x6c>
 80178f8:	466b      	mov	r3, sp
 80178fa:	aa08      	add	r2, sp, #32
 80178fc:	4621      	mov	r1, r4
 80178fe:	4648      	mov	r0, r9
 8017900:	f7fe feaa 	bl	8016658 <fatfs_get_file_entry>
 8017904:	b1b0      	cbz	r0, 8017934 <_open_directory+0x70>
 8017906:	4668      	mov	r0, sp
 8017908:	f001 f8d2 	bl	8018ab0 <fatfs_entry_is_dir>
 801790c:	4603      	mov	r3, r0
 801790e:	b158      	cbz	r0, 8017928 <_open_directory+0x64>
 8017910:	f8bd 0014 	ldrh.w	r0, [sp, #20]
 8017914:	f8bd 401a 	ldrh.w	r4, [sp, #26]
 8017918:	eb04 4400 	add.w	r4, r4, r0, lsl #16
 801791c:	3501      	adds	r5, #1
 801791e:	42af      	cmp	r7, r5
 8017920:	dae1      	bge.n	80178e6 <_open_directory+0x22>
 8017922:	f8c8 4000 	str.w	r4, [r8]
 8017926:	2301      	movs	r3, #1
 8017928:	4618      	mov	r0, r3
 801792a:	b019      	add	sp, #100	; 0x64
 801792c:	e8bd 83f0 	ldmia.w	sp!, {r4, r5, r6, r7, r8, r9, pc}
 8017930:	2300      	movs	r3, #0
 8017932:	e7f9      	b.n	8017928 <_open_directory+0x64>
 8017934:	2300      	movs	r3, #0
 8017936:	e7f7      	b.n	8017928 <_open_directory+0x64>
 8017938:	200000bc 	.word	0x200000bc

0801793c <_write_sectors>:
 801793c:	e92d 4ff0 	stmdb	sp!, {r4, r5, r6, r7, r8, r9, sl, fp, lr}
 8017940:	b085      	sub	sp, #20
 8017942:	4606      	mov	r6, r0
 8017944:	9201      	str	r2, [sp, #4]
 8017946:	469a      	mov	sl, r3
 8017948:	f04f 33ff 	mov.w	r3, #4294967295	; 0xffffffff
 801794c:	9303      	str	r3, [sp, #12]
 801794e:	4b36      	ldr	r3, [pc, #216]	; (8017a28 <_write_sectors+0xec>)
 8017950:	7c1b      	ldrb	r3, [r3, #16]
 8017952:	fbb1 f7f3 	udiv	r7, r1, r3
 8017956:	fb03 1b17 	mls	fp, r3, r7, r1
 801795a:	eb0a 020b 	add.w	r2, sl, fp
 801795e:	4293      	cmp	r3, r2
 8017960:	bf3a      	itte	cc
 8017962:	eba3 0901 	subcc.w	r9, r3, r1
 8017966:	fb07 9903 	mlacc	r9, r7, r3, r9
 801796a:	46d1      	movcs	r9, sl
 801796c:	f8d0 40a0 	ldr.w	r4, [r0, #160]	; 0xa0
 8017970:	42bc      	cmp	r4, r7
 8017972:	d00b      	beq.n	801798c <_write_sectors+0x50>
 8017974:	428b      	cmp	r3, r1
 8017976:	d802      	bhi.n	801797e <_write_sectors+0x42>
 8017978:	1c63      	adds	r3, r4, #1
 801797a:	42bb      	cmp	r3, r7
 801797c:	d009      	beq.n	8017992 <_write_sectors+0x56>
 801797e:	6875      	ldr	r5, [r6, #4]
 8017980:	2400      	movs	r4, #0
 8017982:	42a7      	cmp	r7, r4
 8017984:	d924      	bls.n	80179d0 <_write_sectors+0x94>
 8017986:	f8df 80a4 	ldr.w	r8, [pc, #164]	; 8017a2c <_write_sectors+0xf0>
 801798a:	e018      	b.n	80179be <_write_sectors+0x82>
 801798c:	f8d0 50a4 	ldr.w	r5, [r0, #164]	; 0xa4
 8017990:	e025      	b.n	80179de <_write_sectors+0xa2>
 8017992:	f8d0 50a4 	ldr.w	r5, [r0, #164]	; 0xa4
 8017996:	e7f4      	b.n	8017982 <_write_sectors+0x46>
 8017998:	4629      	mov	r1, r5
 801799a:	4640      	mov	r0, r8
 801799c:	f001 fa94 	bl	8018ec8 <fatfs_find_next_cluster>
 80179a0:	4603      	mov	r3, r0
 80179a2:	9002      	str	r0, [sp, #8]
 80179a4:	4622      	mov	r2, r4
 80179a6:	4631      	mov	r1, r6
 80179a8:	4640      	mov	r0, r8
 80179aa:	f7fe fc31 	bl	8016210 <fatfs_cache_set_next_cluster>
 80179ae:	9503      	str	r5, [sp, #12]
 80179b0:	9d02      	ldr	r5, [sp, #8]
 80179b2:	f1b5 3fff 	cmp.w	r5, #4294967295	; 0xffffffff
 80179b6:	d026      	beq.n	8017a06 <_write_sectors+0xca>
 80179b8:	3401      	adds	r4, #1
 80179ba:	42a7      	cmp	r7, r4
 80179bc:	d00b      	beq.n	80179d6 <_write_sectors+0x9a>
 80179be:	ab02      	add	r3, sp, #8
 80179c0:	4622      	mov	r2, r4
 80179c2:	4631      	mov	r1, r6
 80179c4:	4640      	mov	r0, r8
 80179c6:	f7fe fc21 	bl	801620c <fatfs_cache_get_next_cluster>
 80179ca:	2800      	cmp	r0, #0
 80179cc:	d1ef      	bne.n	80179ae <_write_sectors+0x72>
 80179ce:	e7e3      	b.n	8017998 <_write_sectors+0x5c>
 80179d0:	f1b5 3fff 	cmp.w	r5, #4294967295	; 0xffffffff
 80179d4:	d017      	beq.n	8017a06 <_write_sectors+0xca>
 80179d6:	f8c6 50a4 	str.w	r5, [r6, #164]	; 0xa4
 80179da:	f8c6 70a0 	str.w	r7, [r6, #160]	; 0xa0
 80179de:	4c13      	ldr	r4, [pc, #76]	; (8017a2c <_write_sectors+0xf0>)
 80179e0:	4629      	mov	r1, r5
 80179e2:	4620      	mov	r0, r4
 80179e4:	f7fe fd39 	bl	801645a <fatfs_lba_of_cluster>
 80179e8:	464b      	mov	r3, r9
 80179ea:	9a01      	ldr	r2, [sp, #4]
 80179ec:	eb00 010b 	add.w	r1, r0, fp
 80179f0:	4620      	mov	r0, r4
 80179f2:	f7fe fd4c 	bl	801648e <fatfs_sector_write>
 80179f6:	2800      	cmp	r0, #0
 80179f8:	bf08      	it	eq
 80179fa:	f04f 0900 	moveq.w	r9, #0
 80179fe:	4648      	mov	r0, r9
 8017a00:	b005      	add	sp, #20
 8017a02:	e8bd 8ff0 	ldmia.w	sp!, {r4, r5, r6, r7, r8, r9, sl, fp, pc}
 8017a06:	4808      	ldr	r0, [pc, #32]	; (8017a28 <_write_sectors+0xec>)
 8017a08:	f810 2f10 	ldrb.w	r2, [r0, #16]!
 8017a0c:	1e53      	subs	r3, r2, #1
 8017a0e:	449a      	add	sl, r3
 8017a10:	fbba f2f2 	udiv	r2, sl, r2
 8017a14:	a903      	add	r1, sp, #12
 8017a16:	f7ff fa64 	bl	8016ee2 <fatfs_add_free_space>
 8017a1a:	b108      	cbz	r0, 8017a20 <_write_sectors+0xe4>
 8017a1c:	9d03      	ldr	r5, [sp, #12]
 8017a1e:	e7da      	b.n	80179d6 <_write_sectors+0x9a>
 8017a20:	f04f 0900 	mov.w	r9, #0
 8017a24:	e7eb      	b.n	80179fe <_write_sectors+0xc2>
 8017a26:	bf00      	nop
 8017a28:	200000ac 	.word	0x200000ac
 8017a2c:	200000bc 	.word	0x200000bc

08017a30 <_read_sectors>:
 8017a30:	e92d 4ff0 	stmdb	sp!, {r4, r5, r6, r7, r8, r9, sl, fp, lr}
 8017a34:	b083      	sub	sp, #12
 8017a36:	4605      	mov	r5, r0
 8017a38:	4692      	mov	sl, r2
 8017a3a:	4699      	mov	r9, r3
 8017a3c:	4b2d      	ldr	r3, [pc, #180]	; (8017af4 <_read_sectors+0xc4>)
 8017a3e:	7c1a      	ldrb	r2, [r3, #16]
 8017a40:	fbb1 f6f2 	udiv	r6, r1, r2
 8017a44:	fb02 1b16 	mls	fp, r2, r6, r1
 8017a48:	eb09 030b 	add.w	r3, r9, fp
 8017a4c:	429a      	cmp	r2, r3
 8017a4e:	bf3c      	itt	cc
 8017a50:	eba2 0901 	subcc.w	r9, r2, r1
 8017a54:	fb06 9902 	mlacc	r9, r6, r2, r9
 8017a58:	f8d0 40a0 	ldr.w	r4, [r0, #160]	; 0xa0
 8017a5c:	42b4      	cmp	r4, r6
 8017a5e:	d00b      	beq.n	8017a78 <_read_sectors+0x48>
 8017a60:	428a      	cmp	r2, r1
 8017a62:	d802      	bhi.n	8017a6a <_read_sectors+0x3a>
 8017a64:	1c63      	adds	r3, r4, #1
 8017a66:	42b3      	cmp	r3, r6
 8017a68:	d00d      	beq.n	8017a86 <_read_sectors+0x56>
 8017a6a:	686f      	ldr	r7, [r5, #4]
 8017a6c:	2400      	movs	r4, #0
 8017a6e:	42a6      	cmp	r6, r4
 8017a70:	d924      	bls.n	8017abc <_read_sectors+0x8c>
 8017a72:	f8df 8084 	ldr.w	r8, [pc, #132]	; 8017af8 <_read_sectors+0xc8>
 8017a76:	e018      	b.n	8017aaa <_read_sectors+0x7a>
 8017a78:	f8d0 70a4 	ldr.w	r7, [r0, #164]	; 0xa4
 8017a7c:	f1b7 3fff 	cmp.w	r7, #4294967295	; 0xffffffff
 8017a80:	d123      	bne.n	8017aca <_read_sectors+0x9a>
 8017a82:	2000      	movs	r0, #0
 8017a84:	e031      	b.n	8017aea <_read_sectors+0xba>
 8017a86:	f8d0 70a4 	ldr.w	r7, [r0, #164]	; 0xa4
 8017a8a:	e7f0      	b.n	8017a6e <_read_sectors+0x3e>
 8017a8c:	4639      	mov	r1, r7
 8017a8e:	4640      	mov	r0, r8
 8017a90:	f001 fa1a 	bl	8018ec8 <fatfs_find_next_cluster>
 8017a94:	4603      	mov	r3, r0
 8017a96:	9001      	str	r0, [sp, #4]
 8017a98:	4622      	mov	r2, r4
 8017a9a:	4629      	mov	r1, r5
 8017a9c:	4640      	mov	r0, r8
 8017a9e:	f7fe fbb7 	bl	8016210 <fatfs_cache_set_next_cluster>
 8017aa2:	9f01      	ldr	r7, [sp, #4]
 8017aa4:	3401      	adds	r4, #1
 8017aa6:	42a6      	cmp	r6, r4
 8017aa8:	d008      	beq.n	8017abc <_read_sectors+0x8c>
 8017aaa:	ab01      	add	r3, sp, #4
 8017aac:	4622      	mov	r2, r4
 8017aae:	4629      	mov	r1, r5
 8017ab0:	4640      	mov	r0, r8
 8017ab2:	f7fe fbab 	bl	801620c <fatfs_cache_get_next_cluster>
 8017ab6:	2800      	cmp	r0, #0
 8017ab8:	d1f3      	bne.n	8017aa2 <_read_sectors+0x72>
 8017aba:	e7e7      	b.n	8017a8c <_read_sectors+0x5c>
 8017abc:	f1b7 3fff 	cmp.w	r7, #4294967295	; 0xffffffff
 8017ac0:	d016      	beq.n	8017af0 <_read_sectors+0xc0>
 8017ac2:	f8c5 70a4 	str.w	r7, [r5, #164]	; 0xa4
 8017ac6:	f8c5 60a0 	str.w	r6, [r5, #160]	; 0xa0
 8017aca:	4c0b      	ldr	r4, [pc, #44]	; (8017af8 <_read_sectors+0xc8>)
 8017acc:	4639      	mov	r1, r7
 8017ace:	4620      	mov	r0, r4
 8017ad0:	f7fe fcc3 	bl	801645a <fatfs_lba_of_cluster>
 8017ad4:	464b      	mov	r3, r9
 8017ad6:	4652      	mov	r2, sl
 8017ad8:	eb00 010b 	add.w	r1, r0, fp
 8017adc:	4620      	mov	r0, r4
 8017ade:	f7fe fcce 	bl	801647e <fatfs_sector_read>
 8017ae2:	2800      	cmp	r0, #0
 8017ae4:	bf14      	ite	ne
 8017ae6:	4648      	movne	r0, r9
 8017ae8:	2000      	moveq	r0, #0
 8017aea:	b003      	add	sp, #12
 8017aec:	e8bd 8ff0 	ldmia.w	sp!, {r4, r5, r6, r7, r8, r9, sl, fp, pc}
 8017af0:	2000      	movs	r0, #0
 8017af2:	e7fa      	b.n	8017aea <_read_sectors+0xba>
 8017af4:	200000ac 	.word	0x200000ac
 8017af8:	200000bc 	.word	0x200000bc

08017afc <_free_file>:
 8017afc:	b508      	push	{r3, lr}
 8017afe:	f500 712d 	add.w	r1, r0, #692	; 0x2b4
 8017b02:	f8d0 32b4 	ldr.w	r3, [r0, #692]	; 0x2b4
 8017b06:	b163      	cbz	r3, 8017b22 <_free_file+0x26>
 8017b08:	f8d0 22b8 	ldr.w	r2, [r0, #696]	; 0x2b8
 8017b0c:	605a      	str	r2, [r3, #4]
 8017b0e:	f8d0 32b8 	ldr.w	r3, [r0, #696]	; 0x2b8
 8017b12:	b15b      	cbz	r3, 8017b2c <_free_file+0x30>
 8017b14:	f8d0 22b4 	ldr.w	r2, [r0, #692]	; 0x2b4
 8017b18:	601a      	str	r2, [r3, #0]
 8017b1a:	4807      	ldr	r0, [pc, #28]	; (8017b38 <_free_file+0x3c>)
 8017b1c:	f7ff fe6e 	bl	80177fc <fat_list_insert_last>
 8017b20:	bd08      	pop	{r3, pc}
 8017b22:	f8d0 22b8 	ldr.w	r2, [r0, #696]	; 0x2b8
 8017b26:	4b04      	ldr	r3, [pc, #16]	; (8017b38 <_free_file+0x3c>)
 8017b28:	609a      	str	r2, [r3, #8]
 8017b2a:	e7f0      	b.n	8017b0e <_free_file+0x12>
 8017b2c:	f8d0 22b4 	ldr.w	r2, [r0, #692]	; 0x2b4
 8017b30:	4b01      	ldr	r3, [pc, #4]	; (8017b38 <_free_file+0x3c>)
 8017b32:	60da      	str	r2, [r3, #12]
 8017b34:	e7f1      	b.n	8017b1a <_free_file+0x1e>
 8017b36:	bf00      	nop
 8017b38:	200000ac 	.word	0x200000ac

08017b3c <_open_file>:
 8017b3c:	b5f0      	push	{r4, r5, r6, r7, lr}
 8017b3e:	b08b      	sub	sp, #44	; 0x2c
 8017b40:	4605      	mov	r5, r0
 8017b42:	f7ff fe77 	bl	8017834 <_allocate_file>
 8017b46:	4604      	mov	r4, r0
 8017b48:	b380      	cbz	r0, 8017bac <_open_file+0x70>
 8017b4a:	f100 0714 	add.w	r7, r0, #20
 8017b4e:	2240      	movs	r2, #64	; 0x40
 8017b50:	2100      	movs	r1, #0
 8017b52:	4638      	mov	r0, r7
 8017b54:	f7fd fce6 	bl	8015524 <memset>
 8017b58:	f104 0654 	add.w	r6, r4, #84	; 0x54
 8017b5c:	2240      	movs	r2, #64	; 0x40
 8017b5e:	2100      	movs	r1, #0
 8017b60:	4630      	mov	r0, r6
 8017b62:	f7fd fcdf 	bl	8015524 <memset>
 8017b66:	2240      	movs	r2, #64	; 0x40
 8017b68:	9200      	str	r2, [sp, #0]
 8017b6a:	4633      	mov	r3, r6
 8017b6c:	4639      	mov	r1, r7
 8017b6e:	4628      	mov	r0, r5
 8017b70:	f7ff f868 	bl	8016c44 <fatfs_split_path>
 8017b74:	f1b0 3fff 	cmp.w	r0, #4294967295	; 0xffffffff
 8017b78:	d01b      	beq.n	8017bb2 <_open_file+0x76>
 8017b7a:	4620      	mov	r0, r4
 8017b7c:	f7ff fe7a 	bl	8017874 <_check_file_open>
 8017b80:	b9e0      	cbnz	r0, 8017bbc <_open_file+0x80>
 8017b82:	7d23      	ldrb	r3, [r4, #20]
 8017b84:	b9fb      	cbnz	r3, 8017bc6 <_open_file+0x8a>
 8017b86:	4828      	ldr	r0, [pc, #160]	; (8017c28 <_open_file+0xec>)
 8017b88:	f7fe fd64 	bl	8016654 <fatfs_get_root_cluster>
 8017b8c:	6020      	str	r0, [r4, #0]
 8017b8e:	ab02      	add	r3, sp, #8
 8017b90:	4632      	mov	r2, r6
 8017b92:	6821      	ldr	r1, [r4, #0]
 8017b94:	4824      	ldr	r0, [pc, #144]	; (8017c28 <_open_file+0xec>)
 8017b96:	f7fe fd5f 	bl	8016658 <fatfs_get_file_entry>
 8017b9a:	b118      	cbz	r0, 8017ba4 <_open_file+0x68>
 8017b9c:	a802      	add	r0, sp, #8
 8017b9e:	f000 ff8b 	bl	8018ab8 <fatfs_entry_is_file>
 8017ba2:	b9d8      	cbnz	r0, 8017bdc <_open_file+0xa0>
 8017ba4:	4620      	mov	r0, r4
 8017ba6:	f7ff ffa9 	bl	8017afc <_free_file>
 8017baa:	2400      	movs	r4, #0
 8017bac:	4620      	mov	r0, r4
 8017bae:	b00b      	add	sp, #44	; 0x2c
 8017bb0:	bdf0      	pop	{r4, r5, r6, r7, pc}
 8017bb2:	4620      	mov	r0, r4
 8017bb4:	f7ff ffa2 	bl	8017afc <_free_file>
 8017bb8:	2400      	movs	r4, #0
 8017bba:	e7f7      	b.n	8017bac <_open_file+0x70>
 8017bbc:	4620      	mov	r0, r4
 8017bbe:	f7ff ff9d 	bl	8017afc <_free_file>
 8017bc2:	2400      	movs	r4, #0
 8017bc4:	e7f2      	b.n	8017bac <_open_file+0x70>
 8017bc6:	4621      	mov	r1, r4
 8017bc8:	4638      	mov	r0, r7
 8017bca:	f7ff fe7b 	bl	80178c4 <_open_directory>
 8017bce:	2800      	cmp	r0, #0
 8017bd0:	d1dd      	bne.n	8017b8e <_open_file+0x52>
 8017bd2:	4620      	mov	r0, r4
 8017bd4:	f7ff ff92 	bl	8017afc <_free_file>
 8017bd8:	2400      	movs	r4, #0
 8017bda:	e7e7      	b.n	8017bac <_open_file+0x70>
 8017bdc:	220b      	movs	r2, #11
 8017bde:	a902      	add	r1, sp, #8
 8017be0:	f104 0094 	add.w	r0, r4, #148	; 0x94
 8017be4:	f7fd fc8f 	bl	8015506 <memcpy>
 8017be8:	9b09      	ldr	r3, [sp, #36]	; 0x24
 8017bea:	60e3      	str	r3, [r4, #12]
 8017bec:	2200      	movs	r2, #0
 8017bee:	60a2      	str	r2, [r4, #8]
 8017bf0:	f8bd 101c 	ldrh.w	r1, [sp, #28]
 8017bf4:	f8bd 3022 	ldrh.w	r3, [sp, #34]	; 0x22
 8017bf8:	eb03 4301 	add.w	r3, r3, r1, lsl #16
 8017bfc:	6063      	str	r3, [r4, #4]
 8017bfe:	f04f 33ff 	mov.w	r3, #4294967295	; 0xffffffff
 8017c02:	f8c4 32a8 	str.w	r3, [r4, #680]	; 0x2a8
 8017c06:	f8c4 22ac 	str.w	r2, [r4, #684]	; 0x2ac
 8017c0a:	6122      	str	r2, [r4, #16]
 8017c0c:	f8c4 30a0 	str.w	r3, [r4, #160]	; 0xa0
 8017c10:	f8c4 30a4 	str.w	r3, [r4, #164]	; 0xa4
 8017c14:	4d04      	ldr	r5, [pc, #16]	; (8017c28 <_open_file+0xec>)
 8017c16:	4621      	mov	r1, r4
 8017c18:	4628      	mov	r0, r5
 8017c1a:	f7fe faf5 	bl	8016208 <fatfs_cache_init>
 8017c1e:	4628      	mov	r0, r5
 8017c20:	f001 f939 	bl	8018e96 <fatfs_fat_purge>
 8017c24:	e7c2      	b.n	8017bac <_open_file+0x70>
 8017c26:	bf00      	nop
 8017c28:	200000bc 	.word	0x200000bc

08017c2c <fl_init>:
 8017c2c:	b510      	push	{r4, lr}
 8017c2e:	4c0c      	ldr	r4, [pc, #48]	; (8017c60 <fl_init+0x34>)
 8017c30:	2300      	movs	r3, #0
 8017c32:	6063      	str	r3, [r4, #4]
 8017c34:	6023      	str	r3, [r4, #0]
 8017c36:	60e3      	str	r3, [r4, #12]
 8017c38:	60a3      	str	r3, [r4, #8]
 8017c3a:	f504 61e5 	add.w	r1, r4, #1832	; 0x728
 8017c3e:	4620      	mov	r0, r4
 8017c40:	f7ff fddc 	bl	80177fc <fat_list_insert_last>
 8017c44:	f604 11e4 	addw	r1, r4, #2532	; 0x9e4
 8017c48:	4620      	mov	r0, r4
 8017c4a:	f7ff fdd7 	bl	80177fc <fat_list_insert_last>
 8017c4e:	f504 614a 	add.w	r1, r4, #3232	; 0xca0
 8017c52:	4620      	mov	r0, r4
 8017c54:	f7ff fdd2 	bl	80177fc <fat_list_insert_last>
 8017c58:	2301      	movs	r3, #1
 8017c5a:	f8c4 3ca8 	str.w	r3, [r4, #3240]	; 0xca8
 8017c5e:	bd10      	pop	{r4, pc}
 8017c60:	200000ac 	.word	0x200000ac

08017c64 <fl_attach_locks>:
 8017c64:	4b01      	ldr	r3, [pc, #4]	; (8017c6c <fl_attach_locks+0x8>)
 8017c66:	6498      	str	r0, [r3, #72]	; 0x48
 8017c68:	64d9      	str	r1, [r3, #76]	; 0x4c
 8017c6a:	4770      	bx	lr
 8017c6c:	200000ac 	.word	0x200000ac

08017c70 <fl_attach_media>:
 8017c70:	b538      	push	{r3, r4, r5, lr}
 8017c72:	4605      	mov	r5, r0
 8017c74:	460c      	mov	r4, r1
 8017c76:	4b0d      	ldr	r3, [pc, #52]	; (8017cac <fl_attach_media+0x3c>)
 8017c78:	f8d3 3ca8 	ldr.w	r3, [r3, #3240]	; 0xca8
 8017c7c:	b16b      	cbz	r3, 8017c9a <fl_attach_media+0x2a>
 8017c7e:	480b      	ldr	r0, [pc, #44]	; (8017cac <fl_attach_media+0x3c>)
 8017c80:	6405      	str	r5, [r0, #64]	; 0x40
 8017c82:	6444      	str	r4, [r0, #68]	; 0x44
 8017c84:	3010      	adds	r0, #16
 8017c86:	f7fe fac5 	bl	8016214 <fatfs_init>
 8017c8a:	4604      	mov	r4, r0
 8017c8c:	b940      	cbnz	r0, 8017ca0 <fl_attach_media+0x30>
 8017c8e:	4b07      	ldr	r3, [pc, #28]	; (8017cac <fl_attach_media+0x3c>)
 8017c90:	2201      	movs	r2, #1
 8017c92:	f8c3 2cac 	str.w	r2, [r3, #3244]	; 0xcac
 8017c96:	4620      	mov	r0, r4
 8017c98:	bd38      	pop	{r3, r4, r5, pc}
 8017c9a:	f7ff ffc7 	bl	8017c2c <fl_init>
 8017c9e:	e7ee      	b.n	8017c7e <fl_attach_media+0xe>
 8017ca0:	4601      	mov	r1, r0
 8017ca2:	4803      	ldr	r0, [pc, #12]	; (8017cb0 <fl_attach_media+0x40>)
 8017ca4:	f7f9 f93a 	bl	8010f1c <kprintf>
 8017ca8:	e7f5      	b.n	8017c96 <fl_attach_media+0x26>
 8017caa:	bf00      	nop
 8017cac:	200000ac 	.word	0x200000ac
 8017cb0:	08019a78 	.word	0x08019a78

08017cb4 <fl_shutdown>:
 8017cb4:	b510      	push	{r4, lr}
 8017cb6:	4b0a      	ldr	r3, [pc, #40]	; (8017ce0 <fl_shutdown+0x2c>)
 8017cb8:	f8d3 3ca8 	ldr.w	r3, [r3, #3240]	; 0xca8
 8017cbc:	b163      	cbz	r3, 8017cd8 <fl_shutdown+0x24>
 8017cbe:	4b08      	ldr	r3, [pc, #32]	; (8017ce0 <fl_shutdown+0x2c>)
 8017cc0:	6c9b      	ldr	r3, [r3, #72]	; 0x48
 8017cc2:	b103      	cbz	r3, 8017cc6 <fl_shutdown+0x12>
 8017cc4:	4798      	blx	r3
 8017cc6:	4c06      	ldr	r4, [pc, #24]	; (8017ce0 <fl_shutdown+0x2c>)
 8017cc8:	f104 0010 	add.w	r0, r4, #16
 8017ccc:	f001 f8e3 	bl	8018e96 <fatfs_fat_purge>
 8017cd0:	6ce3      	ldr	r3, [r4, #76]	; 0x4c
 8017cd2:	b103      	cbz	r3, 8017cd6 <fl_shutdown+0x22>
 8017cd4:	4798      	blx	r3
 8017cd6:	bd10      	pop	{r4, pc}
 8017cd8:	f7ff ffa8 	bl	8017c2c <fl_init>
 8017cdc:	e7ef      	b.n	8017cbe <fl_shutdown+0xa>
 8017cde:	bf00      	nop
 8017ce0:	200000ac 	.word	0x200000ac

08017ce4 <fl_fopen>:
 8017ce4:	e92d 4ff0 	stmdb	sp!, {r4, r5, r6, r7, r8, r9, sl, fp, lr}
 8017ce8:	b093      	sub	sp, #76	; 0x4c
 8017cea:	4680      	mov	r8, r0
 8017cec:	460c      	mov	r4, r1
 8017cee:	4bb5      	ldr	r3, [pc, #724]	; (8017fc4 <fl_fopen+0x2e0>)
 8017cf0:	f8d3 3ca8 	ldr.w	r3, [r3, #3240]	; 0xca8
 8017cf4:	b18b      	cbz	r3, 8017d1a <fl_fopen+0x36>
 8017cf6:	4bb3      	ldr	r3, [pc, #716]	; (8017fc4 <fl_fopen+0x2e0>)
 8017cf8:	f8d3 3cac 	ldr.w	r3, [r3, #3244]	; 0xcac
 8017cfc:	2b00      	cmp	r3, #0
 8017cfe:	f000 81ab 	beq.w	8018058 <fl_fopen+0x374>
 8017d02:	f1b8 0f00 	cmp.w	r8, #0
 8017d06:	f000 81a9 	beq.w	801805c <fl_fopen+0x378>
 8017d0a:	2c00      	cmp	r4, #0
 8017d0c:	f000 81a0 	beq.w	8018050 <fl_fopen+0x36c>
 8017d10:	1e66      	subs	r6, r4, #1
 8017d12:	2500      	movs	r5, #0
 8017d14:	f1c4 0701 	rsb	r7, r4, #1
 8017d18:	e004      	b.n	8017d24 <fl_fopen+0x40>
 8017d1a:	f7ff ff87 	bl	8017c2c <fl_init>
 8017d1e:	e7ea      	b.n	8017cf6 <fl_fopen+0x12>
 8017d20:	f045 0501 	orr.w	r5, r5, #1
 8017d24:	4620      	mov	r0, r4
 8017d26:	f7fd fc82 	bl	801562e <strlen>
 8017d2a:	19bb      	adds	r3, r7, r6
 8017d2c:	4298      	cmp	r0, r3
 8017d2e:	f340 8099 	ble.w	8017e64 <fl_fopen+0x180>
 8017d32:	f816 3f01 	ldrb.w	r3, [r6, #1]!
 8017d36:	2b2b      	cmp	r3, #43	; 0x2b
 8017d38:	d07e      	beq.n	8017e38 <fl_fopen+0x154>
 8017d3a:	f1a3 0241 	sub.w	r2, r3, #65	; 0x41
 8017d3e:	b2d2      	uxtb	r2, r2
 8017d40:	2a36      	cmp	r2, #54	; 0x36
 8017d42:	d8ef      	bhi.n	8017d24 <fl_fopen+0x40>
 8017d44:	3b41      	subs	r3, #65	; 0x41
 8017d46:	2b36      	cmp	r3, #54	; 0x36
 8017d48:	d8ec      	bhi.n	8017d24 <fl_fopen+0x40>
 8017d4a:	a201      	add	r2, pc, #4	; (adr r2, 8017d50 <fl_fopen+0x6c>)
 8017d4c:	f852 f023 	ldr.w	pc, [r2, r3, lsl #2]
 8017d50:	08017e33 	.word	0x08017e33
 8017d54:	08017e5f 	.word	0x08017e5f
 8017d58:	08017d25 	.word	0x08017d25
 8017d5c:	08017d25 	.word	0x08017d25
 8017d60:	08017d25 	.word	0x08017d25
 8017d64:	08017d25 	.word	0x08017d25
 8017d68:	08017d25 	.word	0x08017d25
 8017d6c:	08017d25 	.word	0x08017d25
 8017d70:	08017d25 	.word	0x08017d25
 8017d74:	08017d25 	.word	0x08017d25
 8017d78:	08017d25 	.word	0x08017d25
 8017d7c:	08017d25 	.word	0x08017d25
 8017d80:	08017d25 	.word	0x08017d25
 8017d84:	08017d25 	.word	0x08017d25
 8017d88:	08017d25 	.word	0x08017d25
 8017d8c:	08017d25 	.word	0x08017d25
 8017d90:	08017d25 	.word	0x08017d25
 8017d94:	08017d21 	.word	0x08017d21
 8017d98:	08017d25 	.word	0x08017d25
 8017d9c:	08017d25 	.word	0x08017d25
 8017da0:	08017d25 	.word	0x08017d25
 8017da4:	08017d25 	.word	0x08017d25
 8017da8:	08017e2d 	.word	0x08017e2d
 8017dac:	08017d25 	.word	0x08017d25
 8017db0:	08017d25 	.word	0x08017d25
 8017db4:	08017d25 	.word	0x08017d25
 8017db8:	08017d25 	.word	0x08017d25
 8017dbc:	08017d25 	.word	0x08017d25
 8017dc0:	08017d25 	.word	0x08017d25
 8017dc4:	08017d25 	.word	0x08017d25
 8017dc8:	08017d25 	.word	0x08017d25
 8017dcc:	08017d25 	.word	0x08017d25
 8017dd0:	08017e33 	.word	0x08017e33
 8017dd4:	08017e5f 	.word	0x08017e5f
 8017dd8:	08017d25 	.word	0x08017d25
 8017ddc:	08017d25 	.word	0x08017d25
 8017de0:	08017d25 	.word	0x08017d25
 8017de4:	08017d25 	.word	0x08017d25
 8017de8:	08017d25 	.word	0x08017d25
 8017dec:	08017d25 	.word	0x08017d25
 8017df0:	08017d25 	.word	0x08017d25
 8017df4:	08017d25 	.word	0x08017d25
 8017df8:	08017d25 	.word	0x08017d25
 8017dfc:	08017d25 	.word	0x08017d25
 8017e00:	08017d25 	.word	0x08017d25
 8017e04:	08017d25 	.word	0x08017d25
 8017e08:	08017d25 	.word	0x08017d25
 8017e0c:	08017d25 	.word	0x08017d25
 8017e10:	08017d25 	.word	0x08017d25
 8017e14:	08017d21 	.word	0x08017d21
 8017e18:	08017d25 	.word	0x08017d25
 8017e1c:	08017d25 	.word	0x08017d25
 8017e20:	08017d25 	.word	0x08017d25
 8017e24:	08017d25 	.word	0x08017d25
 8017e28:	08017e2d 	.word	0x08017e2d
 8017e2c:	f045 0532 	orr.w	r5, r5, #50	; 0x32
 8017e30:	e778      	b.n	8017d24 <fl_fopen+0x40>
 8017e32:	f045 0526 	orr.w	r5, r5, #38	; 0x26
 8017e36:	e775      	b.n	8017d24 <fl_fopen+0x40>
 8017e38:	f015 0f01 	tst.w	r5, #1
 8017e3c:	d002      	beq.n	8017e44 <fl_fopen+0x160>
 8017e3e:	f045 0502 	orr.w	r5, r5, #2
 8017e42:	e76f      	b.n	8017d24 <fl_fopen+0x40>
 8017e44:	f015 0f02 	tst.w	r5, #2
 8017e48:	d002      	beq.n	8017e50 <fl_fopen+0x16c>
 8017e4a:	f045 0531 	orr.w	r5, r5, #49	; 0x31
 8017e4e:	e769      	b.n	8017d24 <fl_fopen+0x40>
 8017e50:	f015 0f04 	tst.w	r5, #4
 8017e54:	f43f af66 	beq.w	8017d24 <fl_fopen+0x40>
 8017e58:	f045 0527 	orr.w	r5, r5, #39	; 0x27
 8017e5c:	e762      	b.n	8017d24 <fl_fopen+0x40>
 8017e5e:	f045 0508 	orr.w	r5, r5, #8
 8017e62:	e75f      	b.n	8017d24 <fl_fopen+0x40>
 8017e64:	4b57      	ldr	r3, [pc, #348]	; (8017fc4 <fl_fopen+0x2e0>)
 8017e66:	6c5b      	ldr	r3, [r3, #68]	; 0x44
 8017e68:	b15b      	cbz	r3, 8017e82 <fl_fopen+0x19e>
 8017e6a:	4b56      	ldr	r3, [pc, #344]	; (8017fc4 <fl_fopen+0x2e0>)
 8017e6c:	6c9b      	ldr	r3, [r3, #72]	; 0x48
 8017e6e:	b103      	cbz	r3, 8017e72 <fl_fopen+0x18e>
 8017e70:	4798      	blx	r3
 8017e72:	f015 0b01 	ands.w	fp, r5, #1
 8017e76:	d107      	bne.n	8017e88 <fl_fopen+0x1a4>
 8017e78:	f015 0f20 	tst.w	r5, #32
 8017e7c:	d10c      	bne.n	8017e98 <fl_fopen+0x1b4>
 8017e7e:	2400      	movs	r4, #0
 8017e80:	e0e2      	b.n	8018048 <fl_fopen+0x364>
 8017e82:	f005 05d9 	and.w	r5, r5, #217	; 0xd9
 8017e86:	e7f0      	b.n	8017e6a <fl_fopen+0x186>
 8017e88:	4640      	mov	r0, r8
 8017e8a:	f7ff fe57 	bl	8017b3c <_open_file>
 8017e8e:	4604      	mov	r4, r0
 8017e90:	2800      	cmp	r0, #0
 8017e92:	f040 80d7 	bne.w	8018044 <fl_fopen+0x360>
 8017e96:	e7ef      	b.n	8017e78 <fl_fopen+0x194>
 8017e98:	4b4a      	ldr	r3, [pc, #296]	; (8017fc4 <fl_fopen+0x2e0>)
 8017e9a:	6c5b      	ldr	r3, [r3, #68]	; 0x44
 8017e9c:	2b00      	cmp	r3, #0
 8017e9e:	d03f      	beq.n	8017f20 <fl_fopen+0x23c>
 8017ea0:	f7ff fcc8 	bl	8017834 <_allocate_file>
 8017ea4:	4604      	mov	r4, r0
 8017ea6:	2800      	cmp	r0, #0
 8017ea8:	d03a      	beq.n	8017f20 <fl_fopen+0x23c>
 8017eaa:	f100 0714 	add.w	r7, r0, #20
 8017eae:	2240      	movs	r2, #64	; 0x40
 8017eb0:	2100      	movs	r1, #0
 8017eb2:	4638      	mov	r0, r7
 8017eb4:	f7fd fb36 	bl	8015524 <memset>
 8017eb8:	f104 0954 	add.w	r9, r4, #84	; 0x54
 8017ebc:	2240      	movs	r2, #64	; 0x40
 8017ebe:	2100      	movs	r1, #0
 8017ec0:	4648      	mov	r0, r9
 8017ec2:	f7fd fb2f 	bl	8015524 <memset>
 8017ec6:	2240      	movs	r2, #64	; 0x40
 8017ec8:	9200      	str	r2, [sp, #0]
 8017eca:	464b      	mov	r3, r9
 8017ecc:	4639      	mov	r1, r7
 8017ece:	4640      	mov	r0, r8
 8017ed0:	f7fe feb8 	bl	8016c44 <fatfs_split_path>
 8017ed4:	f1b0 3fff 	cmp.w	r0, #4294967295	; 0xffffffff
 8017ed8:	d01f      	beq.n	8017f1a <fl_fopen+0x236>
 8017eda:	4620      	mov	r0, r4
 8017edc:	f7ff fcca 	bl	8017874 <_check_file_open>
 8017ee0:	4606      	mov	r6, r0
 8017ee2:	bb40      	cbnz	r0, 8017f36 <fl_fopen+0x252>
 8017ee4:	7d23      	ldrb	r3, [r4, #20]
 8017ee6:	bb53      	cbnz	r3, 8017f3e <fl_fopen+0x25a>
 8017ee8:	4837      	ldr	r0, [pc, #220]	; (8017fc8 <fl_fopen+0x2e4>)
 8017eea:	f7fe fbb3 	bl	8016654 <fatfs_get_root_cluster>
 8017eee:	6020      	str	r0, [r4, #0]
 8017ef0:	ab0a      	add	r3, sp, #40	; 0x28
 8017ef2:	464a      	mov	r2, r9
 8017ef4:	6821      	ldr	r1, [r4, #0]
 8017ef6:	4834      	ldr	r0, [pc, #208]	; (8017fc8 <fl_fopen+0x2e4>)
 8017ef8:	f7fe fbae 	bl	8016658 <fatfs_get_file_entry>
 8017efc:	2801      	cmp	r0, #1
 8017efe:	d028      	beq.n	8017f52 <fl_fopen+0x26e>
 8017f00:	4622      	mov	r2, r4
 8017f02:	2300      	movs	r3, #0
 8017f04:	f842 3f04 	str.w	r3, [r2, #4]!
 8017f08:	2301      	movs	r3, #1
 8017f0a:	4619      	mov	r1, r3
 8017f0c:	482e      	ldr	r0, [pc, #184]	; (8017fc8 <fl_fopen+0x2e4>)
 8017f0e:	f7ff f81e 	bl	8016f4e <fatfs_allocate_free_space>
 8017f12:	b310      	cbz	r0, 8017f5a <fl_fopen+0x276>
 8017f14:	f8df a0b0 	ldr.w	sl, [pc, #176]	; 8017fc8 <fl_fopen+0x2e4>
 8017f18:	e032      	b.n	8017f80 <fl_fopen+0x29c>
 8017f1a:	4620      	mov	r0, r4
 8017f1c:	f7ff fdee 	bl	8017afc <_free_file>
 8017f20:	2400      	movs	r4, #0
 8017f22:	f1bb 0f00 	cmp.w	fp, #0
 8017f26:	f040 808f 	bne.w	8018048 <fl_fopen+0x364>
 8017f2a:	f015 0f06 	tst.w	r5, #6
 8017f2e:	f040 8084 	bne.w	801803a <fl_fopen+0x356>
 8017f32:	2400      	movs	r4, #0
 8017f34:	e088      	b.n	8018048 <fl_fopen+0x364>
 8017f36:	4620      	mov	r0, r4
 8017f38:	f7ff fde0 	bl	8017afc <_free_file>
 8017f3c:	e7f0      	b.n	8017f20 <fl_fopen+0x23c>
 8017f3e:	4621      	mov	r1, r4
 8017f40:	4638      	mov	r0, r7
 8017f42:	f7ff fcbf 	bl	80178c4 <_open_directory>
 8017f46:	2800      	cmp	r0, #0
 8017f48:	d1d2      	bne.n	8017ef0 <fl_fopen+0x20c>
 8017f4a:	4620      	mov	r0, r4
 8017f4c:	f7ff fdd6 	bl	8017afc <_free_file>
 8017f50:	e06d      	b.n	801802e <fl_fopen+0x34a>
 8017f52:	4620      	mov	r0, r4
 8017f54:	f7ff fdd2 	bl	8017afc <_free_file>
 8017f58:	e069      	b.n	801802e <fl_fopen+0x34a>
 8017f5a:	4620      	mov	r0, r4
 8017f5c:	f7ff fdce 	bl	8017afc <_free_file>
 8017f60:	e065      	b.n	801802e <fl_fopen+0x34a>
 8017f62:	f104 0794 	add.w	r7, r4, #148	; 0x94
 8017f66:	220b      	movs	r2, #11
 8017f68:	a907      	add	r1, sp, #28
 8017f6a:	4638      	mov	r0, r7
 8017f6c:	f7fd facb 	bl	8015506 <memcpy>
 8017f70:	9705      	str	r7, [sp, #20]
 8017f72:	463a      	mov	r2, r7
 8017f74:	6821      	ldr	r1, [r4, #0]
 8017f76:	4650      	mov	r0, sl
 8017f78:	f7fe fc01 	bl	801677e <fatfs_sfn_exists>
 8017f7c:	b330      	cbz	r0, 8017fcc <fl_fopen+0x2e8>
 8017f7e:	3601      	adds	r6, #1
 8017f80:	4649      	mov	r1, r9
 8017f82:	a807      	add	r0, sp, #28
 8017f84:	f000 fe3a 	bl	8018bfc <fatfs_lfn_create_sfn>
 8017f88:	2e00      	cmp	r6, #0
 8017f8a:	d0ea      	beq.n	8017f62 <fl_fopen+0x27e>
 8017f8c:	f104 0794 	add.w	r7, r4, #148	; 0x94
 8017f90:	4632      	mov	r2, r6
 8017f92:	a907      	add	r1, sp, #28
 8017f94:	4638      	mov	r0, r7
 8017f96:	f000 fe96 	bl	8018cc6 <fatfs_lfn_generate_tail>
 8017f9a:	9705      	str	r7, [sp, #20]
 8017f9c:	463a      	mov	r2, r7
 8017f9e:	6821      	ldr	r1, [r4, #0]
 8017fa0:	4650      	mov	r0, sl
 8017fa2:	f7fe fbec 	bl	801677e <fatfs_sfn_exists>
 8017fa6:	b188      	cbz	r0, 8017fcc <fl_fopen+0x2e8>
 8017fa8:	3601      	adds	r6, #1
 8017faa:	f242 730f 	movw	r3, #9999	; 0x270f
 8017fae:	429e      	cmp	r6, r3
 8017fb0:	d1e6      	bne.n	8017f80 <fl_fopen+0x29c>
 8017fb2:	6861      	ldr	r1, [r4, #4]
 8017fb4:	4804      	ldr	r0, [pc, #16]	; (8017fc8 <fl_fopen+0x2e4>)
 8017fb6:	f001 f880 	bl	80190ba <fatfs_free_cluster_chain>
 8017fba:	4620      	mov	r0, r4
 8017fbc:	f7ff fd9e 	bl	8017afc <_free_file>
 8017fc0:	e035      	b.n	801802e <fl_fopen+0x34a>
 8017fc2:	bf00      	nop
 8017fc4:	200000ac 	.word	0x200000ac
 8017fc8:	200000bc 	.word	0x200000bc
 8017fcc:	f242 730f 	movw	r3, #9999	; 0x270f
 8017fd0:	429e      	cmp	r6, r3
 8017fd2:	d0ee      	beq.n	8017fb2 <fl_fopen+0x2ce>
 8017fd4:	6821      	ldr	r1, [r4, #0]
 8017fd6:	2300      	movs	r3, #0
 8017fd8:	9302      	str	r3, [sp, #8]
 8017fda:	9301      	str	r3, [sp, #4]
 8017fdc:	6863      	ldr	r3, [r4, #4]
 8017fde:	9300      	str	r3, [sp, #0]
 8017fe0:	9b05      	ldr	r3, [sp, #20]
 8017fe2:	464a      	mov	r2, r9
 8017fe4:	481e      	ldr	r0, [pc, #120]	; (8018060 <fl_fopen+0x37c>)
 8017fe6:	f7fe fff2 	bl	8016fce <fatfs_add_file_entry>
 8017fea:	b1c8      	cbz	r0, 8018020 <fl_fopen+0x33c>
 8017fec:	2300      	movs	r3, #0
 8017fee:	60e3      	str	r3, [r4, #12]
 8017ff0:	60a3      	str	r3, [r4, #8]
 8017ff2:	f04f 32ff 	mov.w	r2, #4294967295	; 0xffffffff
 8017ff6:	f8c4 22a8 	str.w	r2, [r4, #680]	; 0x2a8
 8017ffa:	f8c4 32ac 	str.w	r3, [r4, #684]	; 0x2ac
 8017ffe:	6123      	str	r3, [r4, #16]
 8018000:	f8c4 20a0 	str.w	r2, [r4, #160]	; 0xa0
 8018004:	f8c4 20a4 	str.w	r2, [r4, #164]	; 0xa4
 8018008:	4e15      	ldr	r6, [pc, #84]	; (8018060 <fl_fopen+0x37c>)
 801800a:	4621      	mov	r1, r4
 801800c:	4630      	mov	r0, r6
 801800e:	f7fe f8fb 	bl	8016208 <fatfs_cache_init>
 8018012:	4630      	mov	r0, r6
 8018014:	f000 ff3f 	bl	8018e96 <fatfs_fat_purge>
 8018018:	f1bb 0f00 	cmp.w	fp, #0
 801801c:	d012      	beq.n	8018044 <fl_fopen+0x360>
 801801e:	e010      	b.n	8018042 <fl_fopen+0x35e>
 8018020:	6861      	ldr	r1, [r4, #4]
 8018022:	480f      	ldr	r0, [pc, #60]	; (8018060 <fl_fopen+0x37c>)
 8018024:	f001 f849 	bl	80190ba <fatfs_free_cluster_chain>
 8018028:	4620      	mov	r0, r4
 801802a:	f7ff fd67 	bl	8017afc <_free_file>
 801802e:	2400      	movs	r4, #0
 8018030:	f1bb 0f00 	cmp.w	fp, #0
 8018034:	f43f af79 	beq.w	8017f2a <fl_fopen+0x246>
 8018038:	e003      	b.n	8018042 <fl_fopen+0x35e>
 801803a:	4640      	mov	r0, r8
 801803c:	f7ff fd7e 	bl	8017b3c <_open_file>
 8018040:	4604      	mov	r4, r0
 8018042:	b10c      	cbz	r4, 8018048 <fl_fopen+0x364>
 8018044:	f884 52b0 	strb.w	r5, [r4, #688]	; 0x2b0
 8018048:	4b06      	ldr	r3, [pc, #24]	; (8018064 <fl_fopen+0x380>)
 801804a:	6cdb      	ldr	r3, [r3, #76]	; 0x4c
 801804c:	b103      	cbz	r3, 8018050 <fl_fopen+0x36c>
 801804e:	4798      	blx	r3
 8018050:	4620      	mov	r0, r4
 8018052:	b013      	add	sp, #76	; 0x4c
 8018054:	e8bd 8ff0 	ldmia.w	sp!, {r4, r5, r6, r7, r8, r9, sl, fp, pc}
 8018058:	2400      	movs	r4, #0
 801805a:	e7f9      	b.n	8018050 <fl_fopen+0x36c>
 801805c:	4644      	mov	r4, r8
 801805e:	e7f7      	b.n	8018050 <fl_fopen+0x36c>
 8018060:	200000bc 	.word	0x200000bc
 8018064:	200000ac 	.word	0x200000ac

08018068 <fl_fflush>:
 8018068:	b510      	push	{r4, lr}
 801806a:	4604      	mov	r4, r0
 801806c:	4b11      	ldr	r3, [pc, #68]	; (80180b4 <fl_fflush+0x4c>)
 801806e:	f8d3 3ca8 	ldr.w	r3, [r3, #3240]	; 0xca8
 8018072:	b16b      	cbz	r3, 8018090 <fl_fflush+0x28>
 8018074:	b154      	cbz	r4, 801808c <fl_fflush+0x24>
 8018076:	4b0f      	ldr	r3, [pc, #60]	; (80180b4 <fl_fflush+0x4c>)
 8018078:	6c9b      	ldr	r3, [r3, #72]	; 0x48
 801807a:	b103      	cbz	r3, 801807e <fl_fflush+0x16>
 801807c:	4798      	blx	r3
 801807e:	f8d4 32ac 	ldr.w	r3, [r4, #684]	; 0x2ac
 8018082:	b943      	cbnz	r3, 8018096 <fl_fflush+0x2e>
 8018084:	4b0b      	ldr	r3, [pc, #44]	; (80180b4 <fl_fflush+0x4c>)
 8018086:	6cdb      	ldr	r3, [r3, #76]	; 0x4c
 8018088:	b103      	cbz	r3, 801808c <fl_fflush+0x24>
 801808a:	4798      	blx	r3
 801808c:	2000      	movs	r0, #0
 801808e:	bd10      	pop	{r4, pc}
 8018090:	f7ff fdcc 	bl	8017c2c <fl_init>
 8018094:	e7ee      	b.n	8018074 <fl_fflush+0xc>
 8018096:	2301      	movs	r3, #1
 8018098:	f104 02a8 	add.w	r2, r4, #168	; 0xa8
 801809c:	f8d4 12a8 	ldr.w	r1, [r4, #680]	; 0x2a8
 80180a0:	4620      	mov	r0, r4
 80180a2:	f7ff fc4b 	bl	801793c <_write_sectors>
 80180a6:	2800      	cmp	r0, #0
 80180a8:	d0ec      	beq.n	8018084 <fl_fflush+0x1c>
 80180aa:	2300      	movs	r3, #0
 80180ac:	f8c4 32ac 	str.w	r3, [r4, #684]	; 0x2ac
 80180b0:	e7e8      	b.n	8018084 <fl_fflush+0x1c>
 80180b2:	bf00      	nop
 80180b4:	200000ac 	.word	0x200000ac

080180b8 <fl_fclose>:
 80180b8:	b510      	push	{r4, lr}
 80180ba:	4604      	mov	r4, r0
 80180bc:	4b17      	ldr	r3, [pc, #92]	; (801811c <fl_fclose+0x64>)
 80180be:	f8d3 3ca8 	ldr.w	r3, [r3, #3240]	; 0xca8
 80180c2:	b303      	cbz	r3, 8018106 <fl_fclose+0x4e>
 80180c4:	b1f4      	cbz	r4, 8018104 <fl_fclose+0x4c>
 80180c6:	4b15      	ldr	r3, [pc, #84]	; (801811c <fl_fclose+0x64>)
 80180c8:	6c9b      	ldr	r3, [r3, #72]	; 0x48
 80180ca:	b103      	cbz	r3, 80180ce <fl_fclose+0x16>
 80180cc:	4798      	blx	r3
 80180ce:	4620      	mov	r0, r4
 80180d0:	f7ff ffca 	bl	8018068 <fl_fflush>
 80180d4:	6923      	ldr	r3, [r4, #16]
 80180d6:	b9cb      	cbnz	r3, 801810c <fl_fclose+0x54>
 80180d8:	2300      	movs	r3, #0
 80180da:	60a3      	str	r3, [r4, #8]
 80180dc:	60e3      	str	r3, [r4, #12]
 80180de:	6063      	str	r3, [r4, #4]
 80180e0:	f04f 32ff 	mov.w	r2, #4294967295	; 0xffffffff
 80180e4:	f8c4 22a8 	str.w	r2, [r4, #680]	; 0x2a8
 80180e8:	f8c4 32ac 	str.w	r3, [r4, #684]	; 0x2ac
 80180ec:	6123      	str	r3, [r4, #16]
 80180ee:	4620      	mov	r0, r4
 80180f0:	f7ff fd04 	bl	8017afc <_free_file>
 80180f4:	4c09      	ldr	r4, [pc, #36]	; (801811c <fl_fclose+0x64>)
 80180f6:	f104 0010 	add.w	r0, r4, #16
 80180fa:	f000 fecc 	bl	8018e96 <fatfs_fat_purge>
 80180fe:	6ce3      	ldr	r3, [r4, #76]	; 0x4c
 8018100:	b103      	cbz	r3, 8018104 <fl_fclose+0x4c>
 8018102:	4798      	blx	r3
 8018104:	bd10      	pop	{r4, pc}
 8018106:	f7ff fd91 	bl	8017c2c <fl_init>
 801810a:	e7db      	b.n	80180c4 <fl_fclose+0xc>
 801810c:	4622      	mov	r2, r4
 801810e:	f852 1b94 	ldr.w	r1, [r2], #148
 8018112:	68e3      	ldr	r3, [r4, #12]
 8018114:	4802      	ldr	r0, [pc, #8]	; (8018120 <fl_fclose+0x68>)
 8018116:	f7fe fb6a 	bl	80167ee <fatfs_update_file_length>
 801811a:	e7dd      	b.n	80180d8 <fl_fclose+0x20>
 801811c:	200000ac 	.word	0x200000ac
 8018120:	200000bc 	.word	0x200000bc

08018124 <fl_fread>:
 8018124:	e92d 4ff8 	stmdb	sp!, {r3, r4, r5, r6, r7, r8, r9, sl, fp, lr}
 8018128:	4683      	mov	fp, r0
 801812a:	461c      	mov	r4, r3
 801812c:	fb02 f501 	mul.w	r5, r2, r1
 8018130:	4b3f      	ldr	r3, [pc, #252]	; (8018230 <fl_fread+0x10c>)
 8018132:	f8d3 3ca8 	ldr.w	r3, [r3, #3240]	; 0xca8
 8018136:	b1fb      	cbz	r3, 8018178 <fl_fread+0x54>
 8018138:	f1bb 0f00 	cmp.w	fp, #0
 801813c:	d067      	beq.n	801820e <fl_fread+0xea>
 801813e:	2c00      	cmp	r4, #0
 8018140:	d068      	beq.n	8018214 <fl_fread+0xf0>
 8018142:	f894 32b0 	ldrb.w	r3, [r4, #688]	; 0x2b0
 8018146:	f013 0f01 	tst.w	r3, #1
 801814a:	d066      	beq.n	801821a <fl_fread+0xf6>
 801814c:	2d00      	cmp	r5, #0
 801814e:	d06b      	beq.n	8018228 <fl_fread+0x104>
 8018150:	68a3      	ldr	r3, [r4, #8]
 8018152:	68e2      	ldr	r2, [r4, #12]
 8018154:	4293      	cmp	r3, r2
 8018156:	d263      	bcs.n	8018220 <fl_fread+0xfc>
 8018158:	18e9      	adds	r1, r5, r3
 801815a:	428a      	cmp	r2, r1
 801815c:	bf34      	ite	cc
 801815e:	eba2 0903 	subcc.w	r9, r2, r3
 8018162:	46a9      	movcs	r9, r5
 8018164:	0a5f      	lsrs	r7, r3, #9
 8018166:	f3c3 0808 	ubfx	r8, r3, #0, #9
 801816a:	f1b9 0f00 	cmp.w	r9, #0
 801816e:	dd5a      	ble.n	8018226 <fl_fread+0x102>
 8018170:	2500      	movs	r5, #0
 8018172:	f104 0aa8 	add.w	sl, r4, #168	; 0xa8
 8018176:	e02e      	b.n	80181d6 <fl_fread+0xb2>
 8018178:	f7ff fd58 	bl	8017c2c <fl_init>
 801817c:	e7dc      	b.n	8018138 <fl_fread+0x14>
 801817e:	f8d4 32a8 	ldr.w	r3, [r4, #680]	; 0x2a8
 8018182:	42bb      	cmp	r3, r7
 8018184:	d010      	beq.n	80181a8 <fl_fread+0x84>
 8018186:	f8d4 32ac 	ldr.w	r3, [r4, #684]	; 0x2ac
 801818a:	2b00      	cmp	r3, #0
 801818c:	d13b      	bne.n	8018206 <fl_fread+0xe2>
 801818e:	2301      	movs	r3, #1
 8018190:	4652      	mov	r2, sl
 8018192:	4639      	mov	r1, r7
 8018194:	4620      	mov	r0, r4
 8018196:	f7ff fc4b 	bl	8017a30 <_read_sectors>
 801819a:	2800      	cmp	r0, #0
 801819c:	d044      	beq.n	8018228 <fl_fread+0x104>
 801819e:	f8c4 72a8 	str.w	r7, [r4, #680]	; 0x2a8
 80181a2:	2300      	movs	r3, #0
 80181a4:	f8c4 32ac 	str.w	r3, [r4, #684]	; 0x2ac
 80181a8:	f5c8 7300 	rsb	r3, r8, #512	; 0x200
 80181ac:	eba9 0605 	sub.w	r6, r9, r5
 80181b0:	429e      	cmp	r6, r3
 80181b2:	bfa8      	it	ge
 80181b4:	461e      	movge	r6, r3
 80181b6:	4632      	mov	r2, r6
 80181b8:	eb0a 0108 	add.w	r1, sl, r8
 80181bc:	eb0b 0005 	add.w	r0, fp, r5
 80181c0:	f7fd f9a1 	bl	8015506 <memcpy>
 80181c4:	3701      	adds	r7, #1
 80181c6:	4435      	add	r5, r6
 80181c8:	68a3      	ldr	r3, [r4, #8]
 80181ca:	441e      	add	r6, r3
 80181cc:	60a6      	str	r6, [r4, #8]
 80181ce:	f04f 0800 	mov.w	r8, #0
 80181d2:	45a9      	cmp	r9, r5
 80181d4:	dd28      	ble.n	8018228 <fl_fread+0x104>
 80181d6:	f1b8 0f00 	cmp.w	r8, #0
 80181da:	d1d0      	bne.n	801817e <fl_fread+0x5a>
 80181dc:	eba9 0205 	sub.w	r2, r9, r5
 80181e0:	f5b2 7f00 	cmp.w	r2, #512	; 0x200
 80181e4:	dbcb      	blt.n	801817e <fl_fread+0x5a>
 80181e6:	4613      	mov	r3, r2
 80181e8:	2a00      	cmp	r2, #0
 80181ea:	bfb8      	it	lt
 80181ec:	f202 13ff 	addwlt	r3, r2, #511	; 0x1ff
 80181f0:	125b      	asrs	r3, r3, #9
 80181f2:	eb0b 0205 	add.w	r2, fp, r5
 80181f6:	4639      	mov	r1, r7
 80181f8:	4620      	mov	r0, r4
 80181fa:	f7ff fc19 	bl	8017a30 <_read_sectors>
 80181fe:	b198      	cbz	r0, 8018228 <fl_fread+0x104>
 8018200:	0246      	lsls	r6, r0, #9
 8018202:	4407      	add	r7, r0
 8018204:	e7df      	b.n	80181c6 <fl_fread+0xa2>
 8018206:	4620      	mov	r0, r4
 8018208:	f7ff ff2e 	bl	8018068 <fl_fflush>
 801820c:	e7bf      	b.n	801818e <fl_fread+0x6a>
 801820e:	f04f 35ff 	mov.w	r5, #4294967295	; 0xffffffff
 8018212:	e009      	b.n	8018228 <fl_fread+0x104>
 8018214:	f04f 35ff 	mov.w	r5, #4294967295	; 0xffffffff
 8018218:	e006      	b.n	8018228 <fl_fread+0x104>
 801821a:	f04f 35ff 	mov.w	r5, #4294967295	; 0xffffffff
 801821e:	e003      	b.n	8018228 <fl_fread+0x104>
 8018220:	f04f 35ff 	mov.w	r5, #4294967295	; 0xffffffff
 8018224:	e000      	b.n	8018228 <fl_fread+0x104>
 8018226:	2500      	movs	r5, #0
 8018228:	4628      	mov	r0, r5
 801822a:	e8bd 8ff8 	ldmia.w	sp!, {r3, r4, r5, r6, r7, r8, r9, sl, fp, pc}
 801822e:	bf00      	nop
 8018230:	200000ac 	.word	0x200000ac

08018234 <fl_fgetc>:
 8018234:	b500      	push	{lr}
 8018236:	b083      	sub	sp, #12
 8018238:	4603      	mov	r3, r0
 801823a:	2200      	movs	r2, #0
 801823c:	f88d 2007 	strb.w	r2, [sp, #7]
 8018240:	2201      	movs	r2, #1
 8018242:	4611      	mov	r1, r2
 8018244:	f10d 0007 	add.w	r0, sp, #7
 8018248:	f7ff ff6c 	bl	8018124 <fl_fread>
 801824c:	2801      	cmp	r0, #1
 801824e:	bf08      	it	eq
 8018250:	f89d 0007 	ldrbeq.w	r0, [sp, #7]
 8018254:	b003      	add	sp, #12
 8018256:	f85d fb04 	ldr.w	pc, [sp], #4

0801825a <fl_fgets>:
 801825a:	2900      	cmp	r1, #0
 801825c:	dd1d      	ble.n	801829a <fl_fgets+0x40>
 801825e:	e92d 41f0 	stmdb	sp!, {r4, r5, r6, r7, r8, lr}
 8018262:	4607      	mov	r7, r0
 8018264:	4616      	mov	r6, r2
 8018266:	f100 38ff 	add.w	r8, r0, #4294967295	; 0xffffffff
 801826a:	1e4d      	subs	r5, r1, #1
 801826c:	2400      	movs	r4, #0
 801826e:	42ac      	cmp	r4, r5
 8018270:	d00c      	beq.n	801828c <fl_fgets+0x32>
 8018272:	4630      	mov	r0, r6
 8018274:	f7ff ffde 	bl	8018234 <fl_fgetc>
 8018278:	2800      	cmp	r0, #0
 801827a:	db06      	blt.n	801828a <fl_fgets+0x30>
 801827c:	3401      	adds	r4, #1
 801827e:	f808 0f01 	strb.w	r0, [r8, #1]!
 8018282:	280a      	cmp	r0, #10
 8018284:	d1f3      	bne.n	801826e <fl_fgets+0x14>
 8018286:	4625      	mov	r5, r4
 8018288:	e000      	b.n	801828c <fl_fgets+0x32>
 801828a:	4625      	mov	r5, r4
 801828c:	2d00      	cmp	r5, #0
 801828e:	dd06      	ble.n	801829e <fl_fgets+0x44>
 8018290:	2300      	movs	r3, #0
 8018292:	557b      	strb	r3, [r7, r5]
 8018294:	4638      	mov	r0, r7
 8018296:	e8bd 81f0 	ldmia.w	sp!, {r4, r5, r6, r7, r8, pc}
 801829a:	2000      	movs	r0, #0
 801829c:	4770      	bx	lr
 801829e:	2000      	movs	r0, #0
 80182a0:	e7f9      	b.n	8018296 <fl_fgets+0x3c>

080182a2 <fl_fseek>:
 80182a2:	b570      	push	{r4, r5, r6, lr}
 80182a4:	4605      	mov	r5, r0
 80182a6:	460e      	mov	r6, r1
 80182a8:	4614      	mov	r4, r2
 80182aa:	4b2c      	ldr	r3, [pc, #176]	; (801835c <fl_fseek+0xba>)
 80182ac:	f8d3 3ca8 	ldr.w	r3, [r3, #3240]	; 0xca8
 80182b0:	b1d3      	cbz	r3, 80182e8 <fl_fseek+0x46>
 80182b2:	2d00      	cmp	r5, #0
 80182b4:	d04b      	beq.n	801834e <fl_fseek+0xac>
 80182b6:	2c02      	cmp	r4, #2
 80182b8:	d019      	beq.n	80182ee <fl_fseek+0x4c>
 80182ba:	4b28      	ldr	r3, [pc, #160]	; (801835c <fl_fseek+0xba>)
 80182bc:	6c9b      	ldr	r3, [r3, #72]	; 0x48
 80182be:	b103      	cbz	r3, 80182c2 <fl_fseek+0x20>
 80182c0:	4798      	blx	r3
 80182c2:	f04f 33ff 	mov.w	r3, #4294967295	; 0xffffffff
 80182c6:	f8c5 32a8 	str.w	r3, [r5, #680]	; 0x2a8
 80182ca:	2300      	movs	r3, #0
 80182cc:	f8c5 32ac 	str.w	r3, [r5, #684]	; 0x2ac
 80182d0:	b9ec      	cbnz	r4, 801830e <fl_fseek+0x6c>
 80182d2:	60ae      	str	r6, [r5, #8]
 80182d4:	68eb      	ldr	r3, [r5, #12]
 80182d6:	429e      	cmp	r6, r3
 80182d8:	d900      	bls.n	80182dc <fl_fseek+0x3a>
 80182da:	60ab      	str	r3, [r5, #8]
 80182dc:	4b1f      	ldr	r3, [pc, #124]	; (801835c <fl_fseek+0xba>)
 80182de:	6cdb      	ldr	r3, [r3, #76]	; 0x4c
 80182e0:	b103      	cbz	r3, 80182e4 <fl_fseek+0x42>
 80182e2:	4798      	blx	r3
 80182e4:	4620      	mov	r0, r4
 80182e6:	bd70      	pop	{r4, r5, r6, pc}
 80182e8:	f7ff fca0 	bl	8017c2c <fl_init>
 80182ec:	e7e1      	b.n	80182b2 <fl_fseek+0x10>
 80182ee:	bb8e      	cbnz	r6, 8018354 <fl_fseek+0xb2>
 80182f0:	4b1a      	ldr	r3, [pc, #104]	; (801835c <fl_fseek+0xba>)
 80182f2:	6c9b      	ldr	r3, [r3, #72]	; 0x48
 80182f4:	2b00      	cmp	r3, #0
 80182f6:	d1e3      	bne.n	80182c0 <fl_fseek+0x1e>
 80182f8:	f04f 33ff 	mov.w	r3, #4294967295	; 0xffffffff
 80182fc:	f8c5 32a8 	str.w	r3, [r5, #680]	; 0x2a8
 8018300:	2300      	movs	r3, #0
 8018302:	f8c5 32ac 	str.w	r3, [r5, #684]	; 0x2ac
 8018306:	68eb      	ldr	r3, [r5, #12]
 8018308:	60ab      	str	r3, [r5, #8]
 801830a:	2400      	movs	r4, #0
 801830c:	e7e6      	b.n	80182dc <fl_fseek+0x3a>
 801830e:	2c01      	cmp	r4, #1
 8018310:	d005      	beq.n	801831e <fl_fseek+0x7c>
 8018312:	2c02      	cmp	r4, #2
 8018314:	bf18      	it	ne
 8018316:	f04f 34ff 	movne.w	r4, #4294967295	; 0xffffffff
 801831a:	d1df      	bne.n	80182dc <fl_fseek+0x3a>
 801831c:	e7f3      	b.n	8018306 <fl_fseek+0x64>
 801831e:	2e00      	cmp	r6, #0
 8018320:	db08      	blt.n	8018334 <fl_fseek+0x92>
 8018322:	68a9      	ldr	r1, [r5, #8]
 8018324:	440e      	add	r6, r1
 8018326:	60ae      	str	r6, [r5, #8]
 8018328:	68eb      	ldr	r3, [r5, #12]
 801832a:	429e      	cmp	r6, r3
 801832c:	d90d      	bls.n	801834a <fl_fseek+0xa8>
 801832e:	60ab      	str	r3, [r5, #8]
 8018330:	2400      	movs	r4, #0
 8018332:	e7d3      	b.n	80182dc <fl_fseek+0x3a>
 8018334:	68ab      	ldr	r3, [r5, #8]
 8018336:	4272      	negs	r2, r6
 8018338:	4293      	cmp	r3, r2
 801833a:	d202      	bcs.n	8018342 <fl_fseek+0xa0>
 801833c:	2400      	movs	r4, #0
 801833e:	60ac      	str	r4, [r5, #8]
 8018340:	e7cc      	b.n	80182dc <fl_fseek+0x3a>
 8018342:	441e      	add	r6, r3
 8018344:	60ae      	str	r6, [r5, #8]
 8018346:	2400      	movs	r4, #0
 8018348:	e7c8      	b.n	80182dc <fl_fseek+0x3a>
 801834a:	2400      	movs	r4, #0
 801834c:	e7c6      	b.n	80182dc <fl_fseek+0x3a>
 801834e:	f04f 34ff 	mov.w	r4, #4294967295	; 0xffffffff
 8018352:	e7c7      	b.n	80182e4 <fl_fseek+0x42>
 8018354:	f04f 34ff 	mov.w	r4, #4294967295	; 0xffffffff
 8018358:	e7c4      	b.n	80182e4 <fl_fseek+0x42>
 801835a:	bf00      	nop
 801835c:	200000ac 	.word	0x200000ac

08018360 <fl_fgetpos>:
 8018360:	b170      	cbz	r0, 8018380 <fl_fgetpos+0x20>
 8018362:	b538      	push	{r3, r4, r5, lr}
 8018364:	460c      	mov	r4, r1
 8018366:	4605      	mov	r5, r0
 8018368:	4b08      	ldr	r3, [pc, #32]	; (801838c <fl_fgetpos+0x2c>)
 801836a:	6c9b      	ldr	r3, [r3, #72]	; 0x48
 801836c:	b103      	cbz	r3, 8018370 <fl_fgetpos+0x10>
 801836e:	4798      	blx	r3
 8018370:	68ab      	ldr	r3, [r5, #8]
 8018372:	6023      	str	r3, [r4, #0]
 8018374:	4b05      	ldr	r3, [pc, #20]	; (801838c <fl_fgetpos+0x2c>)
 8018376:	6cdb      	ldr	r3, [r3, #76]	; 0x4c
 8018378:	b12b      	cbz	r3, 8018386 <fl_fgetpos+0x26>
 801837a:	4798      	blx	r3
 801837c:	2000      	movs	r0, #0
 801837e:	bd38      	pop	{r3, r4, r5, pc}
 8018380:	f04f 30ff 	mov.w	r0, #4294967295	; 0xffffffff
 8018384:	4770      	bx	lr
 8018386:	2000      	movs	r0, #0
 8018388:	e7f9      	b.n	801837e <fl_fgetpos+0x1e>
 801838a:	bf00      	nop
 801838c:	200000ac 	.word	0x200000ac

08018390 <fl_ftell>:
 8018390:	b500      	push	{lr}
 8018392:	b083      	sub	sp, #12
 8018394:	2300      	movs	r3, #0
 8018396:	9301      	str	r3, [sp, #4]
 8018398:	a901      	add	r1, sp, #4
 801839a:	f7ff ffe1 	bl	8018360 <fl_fgetpos>
 801839e:	9801      	ldr	r0, [sp, #4]
 80183a0:	b003      	add	sp, #12
 80183a2:	f85d fb04 	ldr.w	pc, [sp], #4

080183a6 <fl_feof>:
 80183a6:	b510      	push	{r4, lr}
 80183a8:	b188      	cbz	r0, 80183ce <fl_feof+0x28>
 80183aa:	4604      	mov	r4, r0
 80183ac:	4b09      	ldr	r3, [pc, #36]	; (80183d4 <fl_feof+0x2e>)
 80183ae:	6c9b      	ldr	r3, [r3, #72]	; 0x48
 80183b0:	b103      	cbz	r3, 80183b4 <fl_feof+0xe>
 80183b2:	4798      	blx	r3
 80183b4:	68a2      	ldr	r2, [r4, #8]
 80183b6:	68e3      	ldr	r3, [r4, #12]
 80183b8:	429a      	cmp	r2, r3
 80183ba:	bf0c      	ite	eq
 80183bc:	f06f 0401 	mvneq.w	r4, #1
 80183c0:	2400      	movne	r4, #0
 80183c2:	4b04      	ldr	r3, [pc, #16]	; (80183d4 <fl_feof+0x2e>)
 80183c4:	6cdb      	ldr	r3, [r3, #76]	; 0x4c
 80183c6:	b103      	cbz	r3, 80183ca <fl_feof+0x24>
 80183c8:	4798      	blx	r3
 80183ca:	4620      	mov	r0, r4
 80183cc:	bd10      	pop	{r4, pc}
 80183ce:	f04f 34ff 	mov.w	r4, #4294967295	; 0xffffffff
 80183d2:	e7fa      	b.n	80183ca <fl_feof+0x24>
 80183d4:	200000ac 	.word	0x200000ac

080183d8 <fl_fwrite>:
 80183d8:	e92d 4ff0 	stmdb	sp!, {r4, r5, r6, r7, r8, r9, sl, fp, lr}
 80183dc:	b083      	sub	sp, #12
 80183de:	4682      	mov	sl, r0
 80183e0:	461c      	mov	r4, r3
 80183e2:	fb02 f301 	mul.w	r3, r2, r1
 80183e6:	9301      	str	r3, [sp, #4]
 80183e8:	4699      	mov	r9, r3
 80183ea:	4b5c      	ldr	r3, [pc, #368]	; (801855c <fl_fwrite+0x184>)
 80183ec:	f8d3 3ca8 	ldr.w	r3, [r3, #3240]	; 0xca8
 80183f0:	b1c3      	cbz	r3, 8018424 <fl_fwrite+0x4c>
 80183f2:	2c00      	cmp	r4, #0
 80183f4:	f000 80aa 	beq.w	801854c <fl_fwrite+0x174>
 80183f8:	4b58      	ldr	r3, [pc, #352]	; (801855c <fl_fwrite+0x184>)
 80183fa:	6c9b      	ldr	r3, [r3, #72]	; 0x48
 80183fc:	b103      	cbz	r3, 8018400 <fl_fwrite+0x28>
 80183fe:	4798      	blx	r3
 8018400:	f894 32b0 	ldrb.w	r3, [r4, #688]	; 0x2b0
 8018404:	f013 0f02 	tst.w	r3, #2
 8018408:	d00f      	beq.n	801842a <fl_fwrite+0x52>
 801840a:	f013 0f04 	tst.w	r3, #4
 801840e:	d016      	beq.n	801843e <fl_fwrite+0x66>
 8018410:	68e7      	ldr	r7, [r4, #12]
 8018412:	60a7      	str	r7, [r4, #8]
 8018414:	ea4f 2857 	mov.w	r8, r7, lsr #9
 8018418:	f3c7 0708 	ubfx	r7, r7, #0, #9
 801841c:	f1b9 0f00 	cmp.w	r9, #0
 8018420:	d115      	bne.n	801844e <fl_fwrite+0x76>
 8018422:	e078      	b.n	8018516 <fl_fwrite+0x13e>
 8018424:	f7ff fc02 	bl	8017c2c <fl_init>
 8018428:	e7e3      	b.n	80183f2 <fl_fwrite+0x1a>
 801842a:	4b4c      	ldr	r3, [pc, #304]	; (801855c <fl_fwrite+0x184>)
 801842c:	6cdb      	ldr	r3, [r3, #76]	; 0x4c
 801842e:	2b00      	cmp	r3, #0
 8018430:	f000 8090 	beq.w	8018554 <fl_fwrite+0x17c>
 8018434:	4798      	blx	r3
 8018436:	f04f 33ff 	mov.w	r3, #4294967295	; 0xffffffff
 801843a:	9301      	str	r3, [sp, #4]
 801843c:	e06f      	b.n	801851e <fl_fwrite+0x146>
 801843e:	68a7      	ldr	r7, [r4, #8]
 8018440:	ea4f 2857 	mov.w	r8, r7, lsr #9
 8018444:	f3c7 0708 	ubfx	r7, r7, #0, #9
 8018448:	f1b9 0f00 	cmp.w	r9, #0
 801844c:	d05c      	beq.n	8018508 <fl_fwrite+0x130>
 801844e:	2500      	movs	r5, #0
 8018450:	f104 0ba8 	add.w	fp, r4, #168	; 0xa8
 8018454:	463b      	mov	r3, r7
 8018456:	4647      	mov	r7, r8
 8018458:	4698      	mov	r8, r3
 801845a:	e02d      	b.n	80184b8 <fl_fwrite+0xe0>
 801845c:	4620      	mov	r0, r4
 801845e:	f7ff fe03 	bl	8018068 <fl_fflush>
 8018462:	e03a      	b.n	80184da <fl_fwrite+0x102>
 8018464:	f5c8 7600 	rsb	r6, r8, #512	; 0x200
 8018468:	eba9 0305 	sub.w	r3, r9, r5
 801846c:	429e      	cmp	r6, r3
 801846e:	bf28      	it	cs
 8018470:	461e      	movcs	r6, r3
 8018472:	f8d4 32a8 	ldr.w	r3, [r4, #680]	; 0x2a8
 8018476:	42bb      	cmp	r3, r7
 8018478:	d00b      	beq.n	8018492 <fl_fwrite+0xba>
 801847a:	f8d4 32ac 	ldr.w	r3, [r4, #684]	; 0x2ac
 801847e:	2b00      	cmp	r3, #0
 8018480:	d151      	bne.n	8018526 <fl_fwrite+0x14e>
 8018482:	f5b6 7f00 	cmp.w	r6, #512	; 0x200
 8018486:	d152      	bne.n	801852e <fl_fwrite+0x156>
 8018488:	f8c4 72a8 	str.w	r7, [r4, #680]	; 0x2a8
 801848c:	2300      	movs	r3, #0
 801848e:	f8c4 32ac 	str.w	r3, [r4, #684]	; 0x2ac
 8018492:	4632      	mov	r2, r6
 8018494:	eb0a 0105 	add.w	r1, sl, r5
 8018498:	eb0b 0008 	add.w	r0, fp, r8
 801849c:	f7fd f833 	bl	8015506 <memcpy>
 80184a0:	2301      	movs	r3, #1
 80184a2:	f8c4 32ac 	str.w	r3, [r4, #684]	; 0x2ac
 80184a6:	4435      	add	r5, r6
 80184a8:	68a3      	ldr	r3, [r4, #8]
 80184aa:	441e      	add	r6, r3
 80184ac:	60a6      	str	r6, [r4, #8]
 80184ae:	3701      	adds	r7, #1
 80184b0:	f04f 0800 	mov.w	r8, #0
 80184b4:	454d      	cmp	r5, r9
 80184b6:	d227      	bcs.n	8018508 <fl_fwrite+0x130>
 80184b8:	f1b8 0f00 	cmp.w	r8, #0
 80184bc:	d1d2      	bne.n	8018464 <fl_fwrite+0x8c>
 80184be:	eba9 0605 	sub.w	r6, r9, r5
 80184c2:	f5b6 7f00 	cmp.w	r6, #512	; 0x200
 80184c6:	d3cd      	bcc.n	8018464 <fl_fwrite+0x8c>
 80184c8:	f8d4 32a8 	ldr.w	r3, [r4, #680]	; 0x2a8
 80184cc:	f1b3 3fff 	cmp.w	r3, #4294967295	; 0xffffffff
 80184d0:	d00a      	beq.n	80184e8 <fl_fwrite+0x110>
 80184d2:	f8d4 32ac 	ldr.w	r3, [r4, #684]	; 0x2ac
 80184d6:	2b00      	cmp	r3, #0
 80184d8:	d1c0      	bne.n	801845c <fl_fwrite+0x84>
 80184da:	f04f 33ff 	mov.w	r3, #4294967295	; 0xffffffff
 80184de:	f8c4 32a8 	str.w	r3, [r4, #680]	; 0x2a8
 80184e2:	2300      	movs	r3, #0
 80184e4:	f8c4 32ac 	str.w	r3, [r4, #684]	; 0x2ac
 80184e8:	0a73      	lsrs	r3, r6, #9
 80184ea:	eb0a 0205 	add.w	r2, sl, r5
 80184ee:	4639      	mov	r1, r7
 80184f0:	4620      	mov	r0, r4
 80184f2:	f7ff fa23 	bl	801793c <_write_sectors>
 80184f6:	eb05 2540 	add.w	r5, r5, r0, lsl #9
 80184fa:	68a3      	ldr	r3, [r4, #8]
 80184fc:	eb03 2340 	add.w	r3, r3, r0, lsl #9
 8018500:	60a3      	str	r3, [r4, #8]
 8018502:	4407      	add	r7, r0
 8018504:	2800      	cmp	r0, #0
 8018506:	d1d3      	bne.n	80184b0 <fl_fwrite+0xd8>
 8018508:	68a3      	ldr	r3, [r4, #8]
 801850a:	68e2      	ldr	r2, [r4, #12]
 801850c:	4293      	cmp	r3, r2
 801850e:	d902      	bls.n	8018516 <fl_fwrite+0x13e>
 8018510:	60e3      	str	r3, [r4, #12]
 8018512:	2301      	movs	r3, #1
 8018514:	6123      	str	r3, [r4, #16]
 8018516:	4b11      	ldr	r3, [pc, #68]	; (801855c <fl_fwrite+0x184>)
 8018518:	6cdb      	ldr	r3, [r3, #76]	; 0x4c
 801851a:	b103      	cbz	r3, 801851e <fl_fwrite+0x146>
 801851c:	4798      	blx	r3
 801851e:	9801      	ldr	r0, [sp, #4]
 8018520:	b003      	add	sp, #12
 8018522:	e8bd 8ff0 	ldmia.w	sp!, {r4, r5, r6, r7, r8, r9, sl, fp, pc}
 8018526:	4620      	mov	r0, r4
 8018528:	f7ff fd9e 	bl	8018068 <fl_fflush>
 801852c:	e7a9      	b.n	8018482 <fl_fwrite+0xaa>
 801852e:	2301      	movs	r3, #1
 8018530:	465a      	mov	r2, fp
 8018532:	4639      	mov	r1, r7
 8018534:	4620      	mov	r0, r4
 8018536:	f7ff fa7b 	bl	8017a30 <_read_sectors>
 801853a:	2800      	cmp	r0, #0
 801853c:	d1a4      	bne.n	8018488 <fl_fwrite+0xb0>
 801853e:	f44f 7200 	mov.w	r2, #512	; 0x200
 8018542:	2100      	movs	r1, #0
 8018544:	4658      	mov	r0, fp
 8018546:	f7fc ffed 	bl	8015524 <memset>
 801854a:	e79d      	b.n	8018488 <fl_fwrite+0xb0>
 801854c:	f04f 33ff 	mov.w	r3, #4294967295	; 0xffffffff
 8018550:	9301      	str	r3, [sp, #4]
 8018552:	e7e4      	b.n	801851e <fl_fwrite+0x146>
 8018554:	f04f 33ff 	mov.w	r3, #4294967295	; 0xffffffff
 8018558:	9301      	str	r3, [sp, #4]
 801855a:	e7e0      	b.n	801851e <fl_fwrite+0x146>
 801855c:	200000ac 	.word	0x200000ac

08018560 <fl_fputc>:
 8018560:	b510      	push	{r4, lr}
 8018562:	b082      	sub	sp, #8
 8018564:	4604      	mov	r4, r0
 8018566:	460b      	mov	r3, r1
 8018568:	f88d 0007 	strb.w	r0, [sp, #7]
 801856c:	2201      	movs	r2, #1
 801856e:	4611      	mov	r1, r2
 8018570:	f10d 0007 	add.w	r0, sp, #7
 8018574:	f7ff ff30 	bl	80183d8 <fl_fwrite>
 8018578:	2801      	cmp	r0, #1
 801857a:	bf08      	it	eq
 801857c:	4620      	moveq	r0, r4
 801857e:	b002      	add	sp, #8
 8018580:	bd10      	pop	{r4, pc}

08018582 <fl_fputs>:
 8018582:	b538      	push	{r3, r4, r5, lr}
 8018584:	4604      	mov	r4, r0
 8018586:	460d      	mov	r5, r1
 8018588:	f7fd f851 	bl	801562e <strlen>
 801858c:	4602      	mov	r2, r0
 801858e:	462b      	mov	r3, r5
 8018590:	2101      	movs	r1, #1
 8018592:	4620      	mov	r0, r4
 8018594:	f7ff ff20 	bl	80183d8 <fl_fwrite>
 8018598:	bd38      	pop	{r3, r4, r5, pc}

0801859a <fl_remove>:
 801859a:	b510      	push	{r4, lr}
 801859c:	4604      	mov	r4, r0
 801859e:	4b14      	ldr	r3, [pc, #80]	; (80185f0 <fl_remove+0x56>)
 80185a0:	6c9b      	ldr	r3, [r3, #72]	; 0x48
 80185a2:	b103      	cbz	r3, 80185a6 <fl_remove+0xc>
 80185a4:	4798      	blx	r3
 80185a6:	4913      	ldr	r1, [pc, #76]	; (80185f4 <fl_remove+0x5a>)
 80185a8:	4620      	mov	r0, r4
 80185aa:	f7ff fb9b 	bl	8017ce4 <fl_fopen>
 80185ae:	4604      	mov	r4, r0
 80185b0:	b1a8      	cbz	r0, 80185de <fl_remove+0x44>
 80185b2:	6841      	ldr	r1, [r0, #4]
 80185b4:	4810      	ldr	r0, [pc, #64]	; (80185f8 <fl_remove+0x5e>)
 80185b6:	f000 fd80 	bl	80190ba <fatfs_free_cluster_chain>
 80185ba:	b198      	cbz	r0, 80185e4 <fl_remove+0x4a>
 80185bc:	4622      	mov	r2, r4
 80185be:	f852 1b94 	ldr.w	r1, [r2], #148
 80185c2:	480d      	ldr	r0, [pc, #52]	; (80185f8 <fl_remove+0x5e>)
 80185c4:	f7fe f96c 	bl	80168a0 <fatfs_mark_file_deleted>
 80185c8:	b178      	cbz	r0, 80185ea <fl_remove+0x50>
 80185ca:	4620      	mov	r0, r4
 80185cc:	f7ff fd74 	bl	80180b8 <fl_fclose>
 80185d0:	2400      	movs	r4, #0
 80185d2:	4b07      	ldr	r3, [pc, #28]	; (80185f0 <fl_remove+0x56>)
 80185d4:	6cdb      	ldr	r3, [r3, #76]	; 0x4c
 80185d6:	b103      	cbz	r3, 80185da <fl_remove+0x40>
 80185d8:	4798      	blx	r3
 80185da:	4620      	mov	r0, r4
 80185dc:	bd10      	pop	{r4, pc}
 80185de:	f04f 34ff 	mov.w	r4, #4294967295	; 0xffffffff
 80185e2:	e7f6      	b.n	80185d2 <fl_remove+0x38>
 80185e4:	f04f 34ff 	mov.w	r4, #4294967295	; 0xffffffff
 80185e8:	e7f3      	b.n	80185d2 <fl_remove+0x38>
 80185ea:	f04f 34ff 	mov.w	r4, #4294967295	; 0xffffffff
 80185ee:	e7f0      	b.n	80185d2 <fl_remove+0x38>
 80185f0:	200000ac 	.word	0x200000ac
 80185f4:	080194ec 	.word	0x080194ec
 80185f8:	200000bc 	.word	0x200000bc

080185fc <fl_createdirectory>:
 80185fc:	e92d 4ff0 	stmdb	sp!, {r4, r5, r6, r7, r8, r9, sl, fp, lr}
 8018600:	b091      	sub	sp, #68	; 0x44
 8018602:	4605      	mov	r5, r0
 8018604:	4b7b      	ldr	r3, [pc, #492]	; (80187f4 <fl_createdirectory+0x1f8>)
 8018606:	f8d3 3ca8 	ldr.w	r3, [r3, #3240]	; 0xca8
 801860a:	2b00      	cmp	r3, #0
 801860c:	d063      	beq.n	80186d6 <fl_createdirectory+0xda>
 801860e:	4b79      	ldr	r3, [pc, #484]	; (80187f4 <fl_createdirectory+0x1f8>)
 8018610:	6c9b      	ldr	r3, [r3, #72]	; 0x48
 8018612:	b103      	cbz	r3, 8018616 <fl_createdirectory+0x1a>
 8018614:	4798      	blx	r3
 8018616:	f7ff f90d 	bl	8017834 <_allocate_file>
 801861a:	4604      	mov	r4, r0
 801861c:	2800      	cmp	r0, #0
 801861e:	f000 80e0 	beq.w	80187e2 <fl_createdirectory+0x1e6>
 8018622:	f100 0614 	add.w	r6, r0, #20
 8018626:	2240      	movs	r2, #64	; 0x40
 8018628:	2100      	movs	r1, #0
 801862a:	4630      	mov	r0, r6
 801862c:	f7fc ff7a 	bl	8015524 <memset>
 8018630:	f104 0754 	add.w	r7, r4, #84	; 0x54
 8018634:	2240      	movs	r2, #64	; 0x40
 8018636:	2100      	movs	r1, #0
 8018638:	4638      	mov	r0, r7
 801863a:	f7fc ff73 	bl	8015524 <memset>
 801863e:	2240      	movs	r2, #64	; 0x40
 8018640:	9200      	str	r2, [sp, #0]
 8018642:	463b      	mov	r3, r7
 8018644:	4631      	mov	r1, r6
 8018646:	4628      	mov	r0, r5
 8018648:	f7fe fafc 	bl	8016c44 <fatfs_split_path>
 801864c:	f1b0 3fff 	cmp.w	r0, #4294967295	; 0xffffffff
 8018650:	d044      	beq.n	80186dc <fl_createdirectory+0xe0>
 8018652:	4620      	mov	r0, r4
 8018654:	f7ff f90e 	bl	8017874 <_check_file_open>
 8018658:	4680      	mov	r8, r0
 801865a:	2800      	cmp	r0, #0
 801865c:	d143      	bne.n	80186e6 <fl_createdirectory+0xea>
 801865e:	7d23      	ldrb	r3, [r4, #20]
 8018660:	2b00      	cmp	r3, #0
 8018662:	d145      	bne.n	80186f0 <fl_createdirectory+0xf4>
 8018664:	4864      	ldr	r0, [pc, #400]	; (80187f8 <fl_createdirectory+0x1fc>)
 8018666:	f7fd fff5 	bl	8016654 <fatfs_get_root_cluster>
 801866a:	6020      	str	r0, [r4, #0]
 801866c:	ab08      	add	r3, sp, #32
 801866e:	463a      	mov	r2, r7
 8018670:	6821      	ldr	r1, [r4, #0]
 8018672:	4861      	ldr	r0, [pc, #388]	; (80187f8 <fl_createdirectory+0x1fc>)
 8018674:	f7fd fff0 	bl	8016658 <fatfs_get_file_entry>
 8018678:	2801      	cmp	r0, #1
 801867a:	d044      	beq.n	8018706 <fl_createdirectory+0x10a>
 801867c:	4622      	mov	r2, r4
 801867e:	2300      	movs	r3, #0
 8018680:	f842 3f04 	str.w	r3, [r2, #4]!
 8018684:	2301      	movs	r3, #1
 8018686:	4619      	mov	r1, r3
 8018688:	485b      	ldr	r0, [pc, #364]	; (80187f8 <fl_createdirectory+0x1fc>)
 801868a:	f7fe fc60 	bl	8016f4e <fatfs_allocate_free_space>
 801868e:	4606      	mov	r6, r0
 8018690:	2800      	cmp	r0, #0
 8018692:	d03d      	beq.n	8018710 <fl_createdirectory+0x114>
 8018694:	f104 09a8 	add.w	r9, r4, #168	; 0xa8
 8018698:	f44f 7200 	mov.w	r2, #512	; 0x200
 801869c:	2100      	movs	r1, #0
 801869e:	4648      	mov	r0, r9
 80186a0:	f7fc ff40 	bl	8015524 <memset>
 80186a4:	4b53      	ldr	r3, [pc, #332]	; (80187f4 <fl_createdirectory+0x1f8>)
 80186a6:	7c1b      	ldrb	r3, [r3, #16]
 80186a8:	b18b      	cbz	r3, 80186ce <fl_createdirectory+0xd2>
 80186aa:	4645      	mov	r5, r8
 80186ac:	f8df a144 	ldr.w	sl, [pc, #324]	; 80187f4 <fl_createdirectory+0x1f8>
 80186b0:	f10a 0b10 	add.w	fp, sl, #16
 80186b4:	464b      	mov	r3, r9
 80186b6:	462a      	mov	r2, r5
 80186b8:	6861      	ldr	r1, [r4, #4]
 80186ba:	4658      	mov	r0, fp
 80186bc:	f7fd ff63 	bl	8016586 <fatfs_write_sector>
 80186c0:	4606      	mov	r6, r0
 80186c2:	b348      	cbz	r0, 8018718 <fl_createdirectory+0x11c>
 80186c4:	3501      	adds	r5, #1
 80186c6:	f89a 3010 	ldrb.w	r3, [sl, #16]
 80186ca:	429d      	cmp	r5, r3
 80186cc:	dbf2      	blt.n	80186b4 <fl_createdirectory+0xb8>
 80186ce:	4645      	mov	r5, r8
 80186d0:	f8df 9124 	ldr.w	r9, [pc, #292]	; 80187f8 <fl_createdirectory+0x1fc>
 80186d4:	e033      	b.n	801873e <fl_createdirectory+0x142>
 80186d6:	f7ff faa9 	bl	8017c2c <fl_init>
 80186da:	e798      	b.n	801860e <fl_createdirectory+0x12>
 80186dc:	4620      	mov	r0, r4
 80186de:	f7ff fa0d 	bl	8017afc <_free_file>
 80186e2:	2600      	movs	r6, #0
 80186e4:	e07e      	b.n	80187e4 <fl_createdirectory+0x1e8>
 80186e6:	4620      	mov	r0, r4
 80186e8:	f7ff fa08 	bl	8017afc <_free_file>
 80186ec:	2600      	movs	r6, #0
 80186ee:	e079      	b.n	80187e4 <fl_createdirectory+0x1e8>
 80186f0:	4621      	mov	r1, r4
 80186f2:	4630      	mov	r0, r6
 80186f4:	f7ff f8e6 	bl	80178c4 <_open_directory>
 80186f8:	4606      	mov	r6, r0
 80186fa:	2800      	cmp	r0, #0
 80186fc:	d1b6      	bne.n	801866c <fl_createdirectory+0x70>
 80186fe:	4620      	mov	r0, r4
 8018700:	f7ff f9fc 	bl	8017afc <_free_file>
 8018704:	e06e      	b.n	80187e4 <fl_createdirectory+0x1e8>
 8018706:	4620      	mov	r0, r4
 8018708:	f7ff f9f8 	bl	8017afc <_free_file>
 801870c:	4646      	mov	r6, r8
 801870e:	e069      	b.n	80187e4 <fl_createdirectory+0x1e8>
 8018710:	4620      	mov	r0, r4
 8018712:	f7ff f9f3 	bl	8017afc <_free_file>
 8018716:	e065      	b.n	80187e4 <fl_createdirectory+0x1e8>
 8018718:	4620      	mov	r0, r4
 801871a:	f7ff f9ef 	bl	8017afc <_free_file>
 801871e:	e061      	b.n	80187e4 <fl_createdirectory+0x1e8>
 8018720:	f104 0694 	add.w	r6, r4, #148	; 0x94
 8018724:	220b      	movs	r2, #11
 8018726:	a905      	add	r1, sp, #20
 8018728:	4630      	mov	r0, r6
 801872a:	f7fc feec 	bl	8015506 <memcpy>
 801872e:	46b2      	mov	sl, r6
 8018730:	4632      	mov	r2, r6
 8018732:	6821      	ldr	r1, [r4, #0]
 8018734:	4648      	mov	r0, r9
 8018736:	f7fe f822 	bl	801677e <fatfs_sfn_exists>
 801873a:	b310      	cbz	r0, 8018782 <fl_createdirectory+0x186>
 801873c:	3501      	adds	r5, #1
 801873e:	4639      	mov	r1, r7
 8018740:	a805      	add	r0, sp, #20
 8018742:	f000 fa5b 	bl	8018bfc <fatfs_lfn_create_sfn>
 8018746:	2d00      	cmp	r5, #0
 8018748:	d0ea      	beq.n	8018720 <fl_createdirectory+0x124>
 801874a:	f104 0694 	add.w	r6, r4, #148	; 0x94
 801874e:	462a      	mov	r2, r5
 8018750:	a905      	add	r1, sp, #20
 8018752:	4630      	mov	r0, r6
 8018754:	f000 fab7 	bl	8018cc6 <fatfs_lfn_generate_tail>
 8018758:	46b2      	mov	sl, r6
 801875a:	4632      	mov	r2, r6
 801875c:	6821      	ldr	r1, [r4, #0]
 801875e:	4648      	mov	r0, r9
 8018760:	f7fe f80d 	bl	801677e <fatfs_sfn_exists>
 8018764:	b168      	cbz	r0, 8018782 <fl_createdirectory+0x186>
 8018766:	3501      	adds	r5, #1
 8018768:	f242 730f 	movw	r3, #9999	; 0x270f
 801876c:	429d      	cmp	r5, r3
 801876e:	d1e6      	bne.n	801873e <fl_createdirectory+0x142>
 8018770:	6861      	ldr	r1, [r4, #4]
 8018772:	4821      	ldr	r0, [pc, #132]	; (80187f8 <fl_createdirectory+0x1fc>)
 8018774:	f000 fca1 	bl	80190ba <fatfs_free_cluster_chain>
 8018778:	4620      	mov	r0, r4
 801877a:	f7ff f9bf 	bl	8017afc <_free_file>
 801877e:	4646      	mov	r6, r8
 8018780:	e030      	b.n	80187e4 <fl_createdirectory+0x1e8>
 8018782:	f242 730f 	movw	r3, #9999	; 0x270f
 8018786:	429d      	cmp	r5, r3
 8018788:	d0f2      	beq.n	8018770 <fl_createdirectory+0x174>
 801878a:	6821      	ldr	r1, [r4, #0]
 801878c:	2301      	movs	r3, #1
 801878e:	9302      	str	r3, [sp, #8]
 8018790:	2300      	movs	r3, #0
 8018792:	9301      	str	r3, [sp, #4]
 8018794:	6863      	ldr	r3, [r4, #4]
 8018796:	9300      	str	r3, [sp, #0]
 8018798:	4653      	mov	r3, sl
 801879a:	463a      	mov	r2, r7
 801879c:	4816      	ldr	r0, [pc, #88]	; (80187f8 <fl_createdirectory+0x1fc>)
 801879e:	f7fe fc16 	bl	8016fce <fatfs_add_file_entry>
 80187a2:	4606      	mov	r6, r0
 80187a4:	b1a8      	cbz	r0, 80187d2 <fl_createdirectory+0x1d6>
 80187a6:	2300      	movs	r3, #0
 80187a8:	60e3      	str	r3, [r4, #12]
 80187aa:	60a3      	str	r3, [r4, #8]
 80187ac:	f04f 32ff 	mov.w	r2, #4294967295	; 0xffffffff
 80187b0:	f8c4 22a8 	str.w	r2, [r4, #680]	; 0x2a8
 80187b4:	f8c4 32ac 	str.w	r3, [r4, #684]	; 0x2ac
 80187b8:	6123      	str	r3, [r4, #16]
 80187ba:	f8c4 20a0 	str.w	r2, [r4, #160]	; 0xa0
 80187be:	f8c4 20a4 	str.w	r2, [r4, #164]	; 0xa4
 80187c2:	480d      	ldr	r0, [pc, #52]	; (80187f8 <fl_createdirectory+0x1fc>)
 80187c4:	f000 fb67 	bl	8018e96 <fatfs_fat_purge>
 80187c8:	4620      	mov	r0, r4
 80187ca:	f7ff f997 	bl	8017afc <_free_file>
 80187ce:	2601      	movs	r6, #1
 80187d0:	e008      	b.n	80187e4 <fl_createdirectory+0x1e8>
 80187d2:	6861      	ldr	r1, [r4, #4]
 80187d4:	4808      	ldr	r0, [pc, #32]	; (80187f8 <fl_createdirectory+0x1fc>)
 80187d6:	f000 fc70 	bl	80190ba <fatfs_free_cluster_chain>
 80187da:	4620      	mov	r0, r4
 80187dc:	f7ff f98e 	bl	8017afc <_free_file>
 80187e0:	e000      	b.n	80187e4 <fl_createdirectory+0x1e8>
 80187e2:	2600      	movs	r6, #0
 80187e4:	4b03      	ldr	r3, [pc, #12]	; (80187f4 <fl_createdirectory+0x1f8>)
 80187e6:	6cdb      	ldr	r3, [r3, #76]	; 0x4c
 80187e8:	b103      	cbz	r3, 80187ec <fl_createdirectory+0x1f0>
 80187ea:	4798      	blx	r3
 80187ec:	4630      	mov	r0, r6
 80187ee:	b011      	add	sp, #68	; 0x44
 80187f0:	e8bd 8ff0 	ldmia.w	sp!, {r4, r5, r6, r7, r8, r9, sl, fp, pc}
 80187f4:	200000ac 	.word	0x200000ac
 80187f8:	200000bc 	.word	0x200000bc

080187fc <fl_opendir>:
 80187fc:	b530      	push	{r4, r5, lr}
 80187fe:	b083      	sub	sp, #12
 8018800:	4605      	mov	r5, r0
 8018802:	460c      	mov	r4, r1
 8018804:	f04f 33ff 	mov.w	r3, #4294967295	; 0xffffffff
 8018808:	9301      	str	r3, [sp, #4]
 801880a:	4b16      	ldr	r3, [pc, #88]	; (8018864 <fl_opendir+0x68>)
 801880c:	f8d3 3ca8 	ldr.w	r3, [r3, #3240]	; 0xca8
 8018810:	b17b      	cbz	r3, 8018832 <fl_opendir+0x36>
 8018812:	4b14      	ldr	r3, [pc, #80]	; (8018864 <fl_opendir+0x68>)
 8018814:	6c9b      	ldr	r3, [r3, #72]	; 0x48
 8018816:	b103      	cbz	r3, 801881a <fl_opendir+0x1e>
 8018818:	4798      	blx	r3
 801881a:	4628      	mov	r0, r5
 801881c:	f7fe f9a3 	bl	8016b66 <fatfs_total_path_levels>
 8018820:	f1b0 3fff 	cmp.w	r0, #4294967295	; 0xffffffff
 8018824:	d008      	beq.n	8018838 <fl_opendir+0x3c>
 8018826:	a901      	add	r1, sp, #4
 8018828:	4628      	mov	r0, r5
 801882a:	f7ff f84b 	bl	80178c4 <_open_directory>
 801882e:	b160      	cbz	r0, 801884a <fl_opendir+0x4e>
 8018830:	e006      	b.n	8018840 <fl_opendir+0x44>
 8018832:	f7ff f9fb 	bl	8017c2c <fl_init>
 8018836:	e7ec      	b.n	8018812 <fl_opendir+0x16>
 8018838:	480b      	ldr	r0, [pc, #44]	; (8018868 <fl_opendir+0x6c>)
 801883a:	f7fd ff0b 	bl	8016654 <fatfs_get_root_cluster>
 801883e:	9001      	str	r0, [sp, #4]
 8018840:	9a01      	ldr	r2, [sp, #4]
 8018842:	4621      	mov	r1, r4
 8018844:	4808      	ldr	r0, [pc, #32]	; (8018868 <fl_opendir+0x6c>)
 8018846:	f7fe f87b 	bl	8016940 <fatfs_list_directory_start>
 801884a:	4b06      	ldr	r3, [pc, #24]	; (8018864 <fl_opendir+0x68>)
 801884c:	6cdb      	ldr	r3, [r3, #76]	; 0x4c
 801884e:	b103      	cbz	r3, 8018852 <fl_opendir+0x56>
 8018850:	4798      	blx	r3
 8018852:	9b01      	ldr	r3, [sp, #4]
 8018854:	f1b3 3fff 	cmp.w	r3, #4294967295	; 0xffffffff
 8018858:	bf14      	ite	ne
 801885a:	4620      	movne	r0, r4
 801885c:	2000      	moveq	r0, #0
 801885e:	b003      	add	sp, #12
 8018860:	bd30      	pop	{r4, r5, pc}
 8018862:	bf00      	nop
 8018864:	200000ac 	.word	0x200000ac
 8018868:	200000bc 	.word	0x200000bc

0801886c <fl_readdir>:
 801886c:	b570      	push	{r4, r5, r6, lr}
 801886e:	4604      	mov	r4, r0
 8018870:	460d      	mov	r5, r1
 8018872:	4b0d      	ldr	r3, [pc, #52]	; (80188a8 <fl_readdir+0x3c>)
 8018874:	f8d3 3ca8 	ldr.w	r3, [r3, #3240]	; 0xca8
 8018878:	b19b      	cbz	r3, 80188a2 <fl_readdir+0x36>
 801887a:	4b0b      	ldr	r3, [pc, #44]	; (80188a8 <fl_readdir+0x3c>)
 801887c:	6c9b      	ldr	r3, [r3, #72]	; 0x48
 801887e:	b103      	cbz	r3, 8018882 <fl_readdir+0x16>
 8018880:	4798      	blx	r3
 8018882:	4e09      	ldr	r6, [pc, #36]	; (80188a8 <fl_readdir+0x3c>)
 8018884:	462a      	mov	r2, r5
 8018886:	4621      	mov	r1, r4
 8018888:	f106 0010 	add.w	r0, r6, #16
 801888c:	f7fe f85d 	bl	801694a <fatfs_list_directory_next>
 8018890:	4604      	mov	r4, r0
 8018892:	6cf3      	ldr	r3, [r6, #76]	; 0x4c
 8018894:	b103      	cbz	r3, 8018898 <fl_readdir+0x2c>
 8018896:	4798      	blx	r3
 8018898:	fab4 f084 	clz	r0, r4
 801889c:	0940      	lsrs	r0, r0, #5
 801889e:	4240      	negs	r0, r0
 80188a0:	bd70      	pop	{r4, r5, r6, pc}
 80188a2:	f7ff f9c3 	bl	8017c2c <fl_init>
 80188a6:	e7e8      	b.n	801887a <fl_readdir+0xe>
 80188a8:	200000ac 	.word	0x200000ac

080188ac <fl_listdirectory>:
 80188ac:	b530      	push	{r4, r5, lr}
 80188ae:	b097      	sub	sp, #92	; 0x5c
 80188b0:	4604      	mov	r4, r0
 80188b2:	4b18      	ldr	r3, [pc, #96]	; (8018914 <fl_listdirectory+0x68>)
 80188b4:	f8d3 3ca8 	ldr.w	r3, [r3, #3240]	; 0xca8
 80188b8:	b17b      	cbz	r3, 80188da <fl_listdirectory+0x2e>
 80188ba:	4b16      	ldr	r3, [pc, #88]	; (8018914 <fl_listdirectory+0x68>)
 80188bc:	6c9b      	ldr	r3, [r3, #72]	; 0x48
 80188be:	b103      	cbz	r3, 80188c2 <fl_listdirectory+0x16>
 80188c0:	4798      	blx	r3
 80188c2:	4621      	mov	r1, r4
 80188c4:	4814      	ldr	r0, [pc, #80]	; (8018918 <fl_listdirectory+0x6c>)
 80188c6:	f7f8 fb29 	bl	8010f1c <kprintf>
 80188ca:	a913      	add	r1, sp, #76	; 0x4c
 80188cc:	4620      	mov	r0, r4
 80188ce:	f7ff ff95 	bl	80187fc <fl_opendir>
 80188d2:	b1c0      	cbz	r0, 8018906 <fl_listdirectory+0x5a>
 80188d4:	4d11      	ldr	r5, [pc, #68]	; (801891c <fl_listdirectory+0x70>)
 80188d6:	4c12      	ldr	r4, [pc, #72]	; (8018920 <fl_listdirectory+0x74>)
 80188d8:	e007      	b.n	80188ea <fl_listdirectory+0x3e>
 80188da:	f7ff f9a7 	bl	8017c2c <fl_init>
 80188de:	e7ec      	b.n	80188ba <fl_listdirectory+0xe>
 80188e0:	9a12      	ldr	r2, [sp, #72]	; 0x48
 80188e2:	4669      	mov	r1, sp
 80188e4:	4628      	mov	r0, r5
 80188e6:	f7f8 fb19 	bl	8010f1c <kprintf>
 80188ea:	4669      	mov	r1, sp
 80188ec:	a813      	add	r0, sp, #76	; 0x4c
 80188ee:	f7ff ffbd 	bl	801886c <fl_readdir>
 80188f2:	b940      	cbnz	r0, 8018906 <fl_listdirectory+0x5a>
 80188f4:	f89d 3040 	ldrb.w	r3, [sp, #64]	; 0x40
 80188f8:	2b00      	cmp	r3, #0
 80188fa:	d0f1      	beq.n	80188e0 <fl_listdirectory+0x34>
 80188fc:	4669      	mov	r1, sp
 80188fe:	4620      	mov	r0, r4
 8018900:	f7f8 fb0c 	bl	8010f1c <kprintf>
 8018904:	e7f1      	b.n	80188ea <fl_listdirectory+0x3e>
 8018906:	4b03      	ldr	r3, [pc, #12]	; (8018914 <fl_listdirectory+0x68>)
 8018908:	6cdb      	ldr	r3, [r3, #76]	; 0x4c
 801890a:	b103      	cbz	r3, 801890e <fl_listdirectory+0x62>
 801890c:	4798      	blx	r3
 801890e:	b017      	add	sp, #92	; 0x5c
 8018910:	bd30      	pop	{r4, r5, pc}
 8018912:	bf00      	nop
 8018914:	200000ac 	.word	0x200000ac
 8018918:	080192cc 	.word	0x080192cc
 801891c:	080192ec 	.word	0x080192ec
 8018920:	080192e0 	.word	0x080192e0

08018924 <fl_closedir>:
 8018924:	2000      	movs	r0, #0
 8018926:	4770      	bx	lr

08018928 <fl_is_dir>:
 8018928:	b500      	push	{lr}
 801892a:	b085      	sub	sp, #20
 801892c:	a901      	add	r1, sp, #4
 801892e:	f7ff ff65 	bl	80187fc <fl_opendir>
 8018932:	3800      	subs	r0, #0
 8018934:	bf18      	it	ne
 8018936:	2001      	movne	r0, #1
 8018938:	b005      	add	sp, #20
 801893a:	f85d fb04 	ldr.w	pc, [sp], #4

0801893e <fl_format>:
 801893e:	b508      	push	{r3, lr}
 8018940:	460a      	mov	r2, r1
 8018942:	4601      	mov	r1, r0
 8018944:	4801      	ldr	r0, [pc, #4]	; (801894c <fl_format+0xe>)
 8018946:	f7fe ff4f 	bl	80177e8 <fatfs_format>
 801894a:	bd08      	pop	{r3, pc}
 801894c:	200000bc 	.word	0x200000bc

08018950 <fatfs_lfn_cache_init>:
 8018950:	b5f8      	push	{r3, r4, r5, r6, r7, lr}
 8018952:	2300      	movs	r3, #0
 8018954:	f880 3105 	strb.w	r3, [r0, #261]	; 0x105
 8018958:	b161      	cbz	r1, 8018974 <fatfs_lfn_cache_init+0x24>
 801895a:	4604      	mov	r4, r0
 801895c:	f500 7582 	add.w	r5, r0, #260	; 0x104
 8018960:	270d      	movs	r7, #13
 8018962:	461e      	mov	r6, r3
 8018964:	463a      	mov	r2, r7
 8018966:	4631      	mov	r1, r6
 8018968:	4620      	mov	r0, r4
 801896a:	f7fc fddb 	bl	8015524 <memset>
 801896e:	340d      	adds	r4, #13
 8018970:	42ac      	cmp	r4, r5
 8018972:	d1f7      	bne.n	8018964 <fatfs_lfn_cache_init+0x14>
 8018974:	bdf8      	pop	{r3, r4, r5, r6, r7, pc}

08018976 <fatfs_lfn_cache_entry>:
 8018976:	780b      	ldrb	r3, [r1, #0]
 8018978:	f003 031f 	and.w	r3, r3, #31
 801897c:	1e5a      	subs	r2, r3, #1
 801897e:	b2d2      	uxtb	r2, r2
 8018980:	2a13      	cmp	r2, #19
 8018982:	d833      	bhi.n	80189ec <fatfs_lfn_cache_entry+0x76>
 8018984:	b410      	push	{r4}
 8018986:	f890 2105 	ldrb.w	r2, [r0, #261]	; 0x105
 801898a:	b90a      	cbnz	r2, 8018990 <fatfs_lfn_cache_entry+0x1a>
 801898c:	f880 3105 	strb.w	r3, [r0, #261]	; 0x105
 8018990:	3b01      	subs	r3, #1
 8018992:	784c      	ldrb	r4, [r1, #1]
 8018994:	eb03 0243 	add.w	r2, r3, r3, lsl #1
 8018998:	eb03 0282 	add.w	r2, r3, r2, lsl #2
 801899c:	1883      	adds	r3, r0, r2
 801899e:	5484      	strb	r4, [r0, r2]
 80189a0:	78cc      	ldrb	r4, [r1, #3]
 80189a2:	705c      	strb	r4, [r3, #1]
 80189a4:	794c      	ldrb	r4, [r1, #5]
 80189a6:	709c      	strb	r4, [r3, #2]
 80189a8:	79cc      	ldrb	r4, [r1, #7]
 80189aa:	70dc      	strb	r4, [r3, #3]
 80189ac:	7a4c      	ldrb	r4, [r1, #9]
 80189ae:	711c      	strb	r4, [r3, #4]
 80189b0:	7b8c      	ldrb	r4, [r1, #14]
 80189b2:	715c      	strb	r4, [r3, #5]
 80189b4:	7c0c      	ldrb	r4, [r1, #16]
 80189b6:	719c      	strb	r4, [r3, #6]
 80189b8:	7c8c      	ldrb	r4, [r1, #18]
 80189ba:	71dc      	strb	r4, [r3, #7]
 80189bc:	7d0c      	ldrb	r4, [r1, #20]
 80189be:	721c      	strb	r4, [r3, #8]
 80189c0:	7d8c      	ldrb	r4, [r1, #22]
 80189c2:	725c      	strb	r4, [r3, #9]
 80189c4:	7e0c      	ldrb	r4, [r1, #24]
 80189c6:	729c      	strb	r4, [r3, #10]
 80189c8:	7f0c      	ldrb	r4, [r1, #28]
 80189ca:	72dc      	strb	r4, [r3, #11]
 80189cc:	7f89      	ldrb	r1, [r1, #30]
 80189ce:	7319      	strb	r1, [r3, #12]
 80189d0:	300d      	adds	r0, #13
 80189d2:	1881      	adds	r1, r0, r2
 80189d4:	2020      	movs	r0, #32
 80189d6:	f813 2b01 	ldrb.w	r2, [r3], #1
 80189da:	2aff      	cmp	r2, #255	; 0xff
 80189dc:	bf08      	it	eq
 80189de:	f803 0c01 	strbeq.w	r0, [r3, #-1]
 80189e2:	428b      	cmp	r3, r1
 80189e4:	d1f7      	bne.n	80189d6 <fatfs_lfn_cache_entry+0x60>
 80189e6:	f85d 4b04 	ldr.w	r4, [sp], #4
 80189ea:	4770      	bx	lr
 80189ec:	4770      	bx	lr

080189ee <fatfs_lfn_cache_get>:
 80189ee:	f890 3105 	ldrb.w	r3, [r0, #261]	; 0x105
 80189f2:	2b14      	cmp	r3, #20
 80189f4:	d007      	beq.n	8018a06 <fatfs_lfn_cache_get+0x18>
 80189f6:	b153      	cbz	r3, 8018a0e <fatfs_lfn_cache_get+0x20>
 80189f8:	eb03 0243 	add.w	r2, r3, r3, lsl #1
 80189fc:	eb03 0382 	add.w	r3, r3, r2, lsl #2
 8018a00:	2200      	movs	r2, #0
 8018a02:	54c2      	strb	r2, [r0, r3]
 8018a04:	4770      	bx	lr
 8018a06:	2300      	movs	r3, #0
 8018a08:	f880 3104 	strb.w	r3, [r0, #260]	; 0x104
 8018a0c:	4770      	bx	lr
 8018a0e:	2300      	movs	r3, #0
 8018a10:	7003      	strb	r3, [r0, #0]
 8018a12:	4770      	bx	lr

08018a14 <fatfs_entry_lfn_text>:
 8018a14:	7ac0      	ldrb	r0, [r0, #11]
 8018a16:	f000 000f 	and.w	r0, r0, #15
 8018a1a:	280f      	cmp	r0, #15
 8018a1c:	bf14      	ite	ne
 8018a1e:	2000      	movne	r0, #0
 8018a20:	2001      	moveq	r0, #1
 8018a22:	4770      	bx	lr

08018a24 <fatfs_entry_lfn_invalid>:
 8018a24:	7803      	ldrb	r3, [r0, #0]
 8018a26:	b153      	cbz	r3, 8018a3e <fatfs_entry_lfn_invalid+0x1a>
 8018a28:	2be5      	cmp	r3, #229	; 0xe5
 8018a2a:	d00a      	beq.n	8018a42 <fatfs_entry_lfn_invalid+0x1e>
 8018a2c:	7ac3      	ldrb	r3, [r0, #11]
 8018a2e:	2b08      	cmp	r3, #8
 8018a30:	d009      	beq.n	8018a46 <fatfs_entry_lfn_invalid+0x22>
 8018a32:	f013 0f06 	tst.w	r3, #6
 8018a36:	bf14      	ite	ne
 8018a38:	2001      	movne	r0, #1
 8018a3a:	2000      	moveq	r0, #0
 8018a3c:	4770      	bx	lr
 8018a3e:	2001      	movs	r0, #1
 8018a40:	4770      	bx	lr
 8018a42:	2001      	movs	r0, #1
 8018a44:	4770      	bx	lr
 8018a46:	2001      	movs	r0, #1
 8018a48:	4770      	bx	lr

08018a4a <fatfs_entry_lfn_exists>:
 8018a4a:	7acb      	ldrb	r3, [r1, #11]
 8018a4c:	2b0f      	cmp	r3, #15
 8018a4e:	d00e      	beq.n	8018a6e <fatfs_entry_lfn_exists+0x24>
 8018a50:	780a      	ldrb	r2, [r1, #0]
 8018a52:	b172      	cbz	r2, 8018a72 <fatfs_entry_lfn_exists+0x28>
 8018a54:	2ae5      	cmp	r2, #229	; 0xe5
 8018a56:	d00e      	beq.n	8018a76 <fatfs_entry_lfn_exists+0x2c>
 8018a58:	2b08      	cmp	r3, #8
 8018a5a:	d00e      	beq.n	8018a7a <fatfs_entry_lfn_exists+0x30>
 8018a5c:	f013 0f06 	tst.w	r3, #6
 8018a60:	d10d      	bne.n	8018a7e <fatfs_entry_lfn_exists+0x34>
 8018a62:	f890 0105 	ldrb.w	r0, [r0, #261]	; 0x105
 8018a66:	3800      	subs	r0, #0
 8018a68:	bf18      	it	ne
 8018a6a:	2001      	movne	r0, #1
 8018a6c:	4770      	bx	lr
 8018a6e:	2000      	movs	r0, #0
 8018a70:	4770      	bx	lr
 8018a72:	2000      	movs	r0, #0
 8018a74:	4770      	bx	lr
 8018a76:	2000      	movs	r0, #0
 8018a78:	4770      	bx	lr
 8018a7a:	2000      	movs	r0, #0
 8018a7c:	4770      	bx	lr
 8018a7e:	2000      	movs	r0, #0
 8018a80:	4770      	bx	lr

08018a82 <fatfs_entry_sfn_only>:
 8018a82:	7ac3      	ldrb	r3, [r0, #11]
 8018a84:	2b0f      	cmp	r3, #15
 8018a86:	d00b      	beq.n	8018aa0 <fatfs_entry_sfn_only+0x1e>
 8018a88:	7802      	ldrb	r2, [r0, #0]
 8018a8a:	b15a      	cbz	r2, 8018aa4 <fatfs_entry_sfn_only+0x22>
 8018a8c:	2ae5      	cmp	r2, #229	; 0xe5
 8018a8e:	d00b      	beq.n	8018aa8 <fatfs_entry_sfn_only+0x26>
 8018a90:	2b08      	cmp	r3, #8
 8018a92:	d00b      	beq.n	8018aac <fatfs_entry_sfn_only+0x2a>
 8018a94:	f013 0f06 	tst.w	r3, #6
 8018a98:	bf0c      	ite	eq
 8018a9a:	2001      	moveq	r0, #1
 8018a9c:	2000      	movne	r0, #0
 8018a9e:	4770      	bx	lr
 8018aa0:	2000      	movs	r0, #0
 8018aa2:	4770      	bx	lr
 8018aa4:	2000      	movs	r0, #0
 8018aa6:	4770      	bx	lr
 8018aa8:	2000      	movs	r0, #0
 8018aaa:	4770      	bx	lr
 8018aac:	2000      	movs	r0, #0
 8018aae:	4770      	bx	lr

08018ab0 <fatfs_entry_is_dir>:
 8018ab0:	7ac0      	ldrb	r0, [r0, #11]
 8018ab2:	f3c0 1000 	ubfx	r0, r0, #4, #1
 8018ab6:	4770      	bx	lr

08018ab8 <fatfs_entry_is_file>:
 8018ab8:	7ac0      	ldrb	r0, [r0, #11]
 8018aba:	f3c0 1040 	ubfx	r0, r0, #5, #1
 8018abe:	4770      	bx	lr

08018ac0 <fatfs_lfn_entries_required>:
 8018ac0:	b508      	push	{r3, lr}
 8018ac2:	f7fc fdb4 	bl	801562e <strlen>
 8018ac6:	4603      	mov	r3, r0
 8018ac8:	b130      	cbz	r0, 8018ad8 <fatfs_lfn_entries_required+0x18>
 8018aca:	330c      	adds	r3, #12
 8018acc:	4803      	ldr	r0, [pc, #12]	; (8018adc <fatfs_lfn_entries_required+0x1c>)
 8018ace:	fb80 2003 	smull	r2, r0, r0, r3
 8018ad2:	17db      	asrs	r3, r3, #31
 8018ad4:	ebc3 03a0 	rsb	r3, r3, r0, asr #2
 8018ad8:	4618      	mov	r0, r3
 8018ada:	bd08      	pop	{r3, pc}
 8018adc:	4ec4ec4f 	.word	0x4ec4ec4f

08018ae0 <fatfs_filename_to_lfn>:
 8018ae0:	e92d 47f0 	stmdb	sp!, {r4, r5, r6, r7, r8, r9, sl, lr}
 8018ae4:	b08e      	sub	sp, #56	; 0x38
 8018ae6:	4607      	mov	r7, r0
 8018ae8:	460c      	mov	r4, r1
 8018aea:	4690      	mov	r8, r2
 8018aec:	4699      	mov	r9, r3
 8018aee:	ad01      	add	r5, sp, #4
 8018af0:	4e27      	ldr	r6, [pc, #156]	; (8018b90 <fatfs_filename_to_lfn+0xb0>)
 8018af2:	ce0f      	ldmia	r6!, {r0, r1, r2, r3}
 8018af4:	c50f      	stmia	r5!, {r0, r1, r2, r3}
 8018af6:	ce0f      	ldmia	r6!, {r0, r1, r2, r3}
 8018af8:	c50f      	stmia	r5!, {r0, r1, r2, r3}
 8018afa:	ce0f      	ldmia	r6!, {r0, r1, r2, r3}
 8018afc:	c50f      	stmia	r5!, {r0, r1, r2, r3}
 8018afe:	6833      	ldr	r3, [r6, #0]
 8018b00:	602b      	str	r3, [r5, #0]
 8018b02:	4638      	mov	r0, r7
 8018b04:	f7fc fd93 	bl	801562e <strlen>
 8018b08:	4605      	mov	r5, r0
 8018b0a:	4638      	mov	r0, r7
 8018b0c:	f7ff ffd8 	bl	8018ac0 <fatfs_lfn_entries_required>
 8018b10:	4682      	mov	sl, r0
 8018b12:	eb08 0648 	add.w	r6, r8, r8, lsl #1
 8018b16:	eb08 0686 	add.w	r6, r8, r6, lsl #2
 8018b1a:	2220      	movs	r2, #32
 8018b1c:	2100      	movs	r1, #0
 8018b1e:	4620      	mov	r0, r4
 8018b20:	f7fc fd00 	bl	8015524 <memset>
 8018b24:	f10a 3aff 	add.w	sl, sl, #4294967295	; 0xffffffff
 8018b28:	45c2      	cmp	sl, r8
 8018b2a:	f108 0801 	add.w	r8, r8, #1
 8018b2e:	bf08      	it	eq
 8018b30:	f048 0840 	orreq.w	r8, r8, #64	; 0x40
 8018b34:	fa5f f888 	uxtb.w	r8, r8
 8018b38:	f884 8000 	strb.w	r8, [r4]
 8018b3c:	230f      	movs	r3, #15
 8018b3e:	72e3      	strb	r3, [r4, #11]
 8018b40:	f884 900d 	strb.w	r9, [r4, #13]
 8018b44:	4633      	mov	r3, r6
 8018b46:	f106 000d 	add.w	r0, r6, #13
 8018b4a:	ebc6 7686 	rsb	r6, r6, r6, lsl #30
 8018b4e:	aa01      	add	r2, sp, #4
 8018b50:	eb02 0186 	add.w	r1, r2, r6, lsl #2
 8018b54:	f04f 0cff 	mov.w	ip, #255	; 0xff
 8018b58:	f04f 0e00 	mov.w	lr, #0
 8018b5c:	e00d      	b.n	8018b7a <fatfs_filename_to_lfn+0x9a>
 8018b5e:	429d      	cmp	r5, r3
 8018b60:	f851 2023 	ldr.w	r2, [r1, r3, lsl #2]
 8018b64:	bf0f      	iteee	eq
 8018b66:	f804 e002 	strbeq.w	lr, [r4, r2]
 8018b6a:	f804 c002 	strbne.w	ip, [r4, r2]
 8018b6e:	1912      	addne	r2, r2, r4
 8018b70:	f882 c001 	strbne.w	ip, [r2, #1]
 8018b74:	3301      	adds	r3, #1
 8018b76:	4283      	cmp	r3, r0
 8018b78:	d006      	beq.n	8018b88 <fatfs_filename_to_lfn+0xa8>
 8018b7a:	429d      	cmp	r5, r3
 8018b7c:	ddef      	ble.n	8018b5e <fatfs_filename_to_lfn+0x7e>
 8018b7e:	5cfe      	ldrb	r6, [r7, r3]
 8018b80:	f851 2023 	ldr.w	r2, [r1, r3, lsl #2]
 8018b84:	54a6      	strb	r6, [r4, r2]
 8018b86:	e7f5      	b.n	8018b74 <fatfs_filename_to_lfn+0x94>
 8018b88:	b00e      	add	sp, #56	; 0x38
 8018b8a:	e8bd 87f0 	ldmia.w	sp!, {r4, r5, r6, r7, r8, r9, sl, pc}
 8018b8e:	bf00      	nop
 8018b90:	08019aac 	.word	0x08019aac

08018b94 <fatfs_sfn_create_entry>:
 8018b94:	b470      	push	{r4, r5, r6}
 8018b96:	1e44      	subs	r4, r0, #1
 8018b98:	1e5d      	subs	r5, r3, #1
 8018b9a:	f100 060a 	add.w	r6, r0, #10
 8018b9e:	f814 0f01 	ldrb.w	r0, [r4, #1]!
 8018ba2:	f805 0f01 	strb.w	r0, [r5, #1]!
 8018ba6:	42b4      	cmp	r4, r6
 8018ba8:	d1f9      	bne.n	8018b9e <fatfs_sfn_create_entry+0xa>
 8018baa:	2000      	movs	r0, #0
 8018bac:	7358      	strb	r0, [r3, #13]
 8018bae:	7398      	strb	r0, [r3, #14]
 8018bb0:	73d8      	strb	r0, [r3, #15]
 8018bb2:	7458      	strb	r0, [r3, #17]
 8018bb4:	2420      	movs	r4, #32
 8018bb6:	741c      	strb	r4, [r3, #16]
 8018bb8:	74d8      	strb	r0, [r3, #19]
 8018bba:	749c      	strb	r4, [r3, #18]
 8018bbc:	7598      	strb	r0, [r3, #22]
 8018bbe:	75d8      	strb	r0, [r3, #23]
 8018bc0:	7658      	strb	r0, [r3, #25]
 8018bc2:	761c      	strb	r4, [r3, #24]
 8018bc4:	9803      	ldr	r0, [sp, #12]
 8018bc6:	2800      	cmp	r0, #0
 8018bc8:	bf0c      	ite	eq
 8018bca:	4620      	moveq	r0, r4
 8018bcc:	2010      	movne	r0, #16
 8018bce:	72d8      	strb	r0, [r3, #11]
 8018bd0:	2000      	movs	r0, #0
 8018bd2:	7318      	strb	r0, [r3, #12]
 8018bd4:	f3c2 4007 	ubfx	r0, r2, #16, #8
 8018bd8:	7518      	strb	r0, [r3, #20]
 8018bda:	0e10      	lsrs	r0, r2, #24
 8018bdc:	7558      	strb	r0, [r3, #21]
 8018bde:	769a      	strb	r2, [r3, #26]
 8018be0:	f3c2 2207 	ubfx	r2, r2, #8, #8
 8018be4:	76da      	strb	r2, [r3, #27]
 8018be6:	7719      	strb	r1, [r3, #28]
 8018be8:	f3c1 2207 	ubfx	r2, r1, #8, #8
 8018bec:	775a      	strb	r2, [r3, #29]
 8018bee:	f3c1 4207 	ubfx	r2, r1, #16, #8
 8018bf2:	779a      	strb	r2, [r3, #30]
 8018bf4:	0e09      	lsrs	r1, r1, #24
 8018bf6:	77d9      	strb	r1, [r3, #31]
 8018bf8:	bc70      	pop	{r4, r5, r6}
 8018bfa:	4770      	bx	lr

08018bfc <fatfs_lfn_create_sfn>:
 8018bfc:	b5f0      	push	{r4, r5, r6, r7, lr}
 8018bfe:	b083      	sub	sp, #12
 8018c00:	4605      	mov	r5, r0
 8018c02:	460c      	mov	r4, r1
 8018c04:	4608      	mov	r0, r1
 8018c06:	f7fc fd12 	bl	801562e <strlen>
 8018c0a:	7823      	ldrb	r3, [r4, #0]
 8018c0c:	2b2e      	cmp	r3, #46	; 0x2e
 8018c0e:	d058      	beq.n	8018cc2 <fatfs_lfn_create_sfn+0xc6>
 8018c10:	4607      	mov	r7, r0
 8018c12:	220b      	movs	r2, #11
 8018c14:	2120      	movs	r1, #32
 8018c16:	4628      	mov	r0, r5
 8018c18:	f7fc fc84 	bl	8015524 <memset>
 8018c1c:	2203      	movs	r2, #3
 8018c1e:	2120      	movs	r1, #32
 8018c20:	a801      	add	r0, sp, #4
 8018c22:	f7fc fc7f 	bl	8015524 <memset>
 8018c26:	2f00      	cmp	r7, #0
 8018c28:	dd38      	ble.n	8018c9c <fatfs_lfn_create_sfn+0xa0>
 8018c2a:	1e63      	subs	r3, r4, #1
 8018c2c:	eb03 0c07 	add.w	ip, r3, r7
 8018c30:	f04f 32ff 	mov.w	r2, #4294967295	; 0xffffffff
 8018c34:	f1c4 0001 	rsb	r0, r4, #1
 8018c38:	18c1      	adds	r1, r0, r3
 8018c3a:	f813 6f01 	ldrb.w	r6, [r3, #1]!
 8018c3e:	2e2e      	cmp	r6, #46	; 0x2e
 8018c40:	bf08      	it	eq
 8018c42:	460a      	moveq	r2, r1
 8018c44:	4563      	cmp	r3, ip
 8018c46:	d1f7      	bne.n	8018c38 <fatfs_lfn_create_sfn+0x3c>
 8018c48:	f1b2 3fff 	cmp.w	r2, #4294967295	; 0xffffffff
 8018c4c:	d011      	beq.n	8018c72 <fatfs_lfn_create_sfn+0x76>
 8018c4e:	1c53      	adds	r3, r2, #1
 8018c50:	1d10      	adds	r0, r2, #4
 8018c52:	a902      	add	r1, sp, #8
 8018c54:	1a89      	subs	r1, r1, r2
 8018c56:	3905      	subs	r1, #5
 8018c58:	429f      	cmp	r7, r3
 8018c5a:	bfc4      	itt	gt
 8018c5c:	5ce6      	ldrbgt	r6, [r4, r3]
 8018c5e:	54ce      	strbgt	r6, [r1, r3]
 8018c60:	3301      	adds	r3, #1
 8018c62:	4283      	cmp	r3, r0
 8018c64:	d1f8      	bne.n	8018c58 <fatfs_lfn_create_sfn+0x5c>
 8018c66:	2a00      	cmp	r2, #0
 8018c68:	dd18      	ble.n	8018c9c <fatfs_lfn_create_sfn+0xa0>
 8018c6a:	1e61      	subs	r1, r4, #1
 8018c6c:	440a      	add	r2, r1
 8018c6e:	2000      	movs	r0, #0
 8018c70:	e00d      	b.n	8018c8e <fatfs_lfn_create_sfn+0x92>
 8018c72:	463a      	mov	r2, r7
 8018c74:	e7f9      	b.n	8018c6a <fatfs_lfn_create_sfn+0x6e>
 8018c76:	f1a3 0461 	sub.w	r4, r3, #97	; 0x61
 8018c7a:	b2e4      	uxtb	r4, r4
 8018c7c:	2c19      	cmp	r4, #25
 8018c7e:	bf98      	it	ls
 8018c80:	3b20      	subls	r3, #32
 8018c82:	542b      	strb	r3, [r5, r0]
 8018c84:	3001      	adds	r0, #1
 8018c86:	2808      	cmp	r0, #8
 8018c88:	d008      	beq.n	8018c9c <fatfs_lfn_create_sfn+0xa0>
 8018c8a:	4291      	cmp	r1, r2
 8018c8c:	d006      	beq.n	8018c9c <fatfs_lfn_create_sfn+0xa0>
 8018c8e:	f811 3f01 	ldrb.w	r3, [r1, #1]!
 8018c92:	2b20      	cmp	r3, #32
 8018c94:	d0f7      	beq.n	8018c86 <fatfs_lfn_create_sfn+0x8a>
 8018c96:	2b2e      	cmp	r3, #46	; 0x2e
 8018c98:	d1ed      	bne.n	8018c76 <fatfs_lfn_create_sfn+0x7a>
 8018c9a:	e7f4      	b.n	8018c86 <fatfs_lfn_create_sfn+0x8a>
 8018c9c:	a801      	add	r0, sp, #4
 8018c9e:	f105 0308 	add.w	r3, r5, #8
 8018ca2:	350b      	adds	r5, #11
 8018ca4:	f810 2b01 	ldrb.w	r2, [r0], #1
 8018ca8:	f1a2 0161 	sub.w	r1, r2, #97	; 0x61
 8018cac:	b2c9      	uxtb	r1, r1
 8018cae:	2919      	cmp	r1, #25
 8018cb0:	bf98      	it	ls
 8018cb2:	3a20      	subls	r2, #32
 8018cb4:	701a      	strb	r2, [r3, #0]
 8018cb6:	3301      	adds	r3, #1
 8018cb8:	42ab      	cmp	r3, r5
 8018cba:	d1f3      	bne.n	8018ca4 <fatfs_lfn_create_sfn+0xa8>
 8018cbc:	2001      	movs	r0, #1
 8018cbe:	b003      	add	sp, #12
 8018cc0:	bdf0      	pop	{r4, r5, r6, r7, pc}
 8018cc2:	2000      	movs	r0, #0
 8018cc4:	e7fb      	b.n	8018cbe <fatfs_lfn_create_sfn+0xc2>

08018cc6 <fatfs_lfn_generate_tail>:
 8018cc6:	4b2e      	ldr	r3, [pc, #184]	; (8018d80 <fatfs_lfn_generate_tail+0xba>)
 8018cc8:	429a      	cmp	r2, r3
 8018cca:	d901      	bls.n	8018cd0 <fatfs_lfn_generate_tail+0xa>
 8018ccc:	2000      	movs	r0, #0
 8018cce:	4770      	bx	lr
 8018cd0:	b5f0      	push	{r4, r5, r6, r7, lr}
 8018cd2:	b08d      	sub	sp, #52	; 0x34
 8018cd4:	4605      	mov	r5, r0
 8018cd6:	460e      	mov	r6, r1
 8018cd8:	4614      	mov	r4, r2
 8018cda:	220c      	movs	r2, #12
 8018cdc:	2100      	movs	r1, #0
 8018cde:	a809      	add	r0, sp, #36	; 0x24
 8018ce0:	f7fc fc20 	bl	8015524 <memset>
 8018ce4:	237e      	movs	r3, #126	; 0x7e
 8018ce6:	f88d 3024 	strb.w	r3, [sp, #36]	; 0x24
 8018cea:	af04      	add	r7, sp, #16
 8018cec:	f8df c098 	ldr.w	ip, [pc, #152]	; 8018d88 <fatfs_lfn_generate_tail+0xc2>
 8018cf0:	e8bc 000f 	ldmia.w	ip!, {r0, r1, r2, r3}
 8018cf4:	c70f      	stmia	r7!, {r0, r1, r2, r3}
 8018cf6:	f8dc 3000 	ldr.w	r3, [ip]
 8018cfa:	703b      	strb	r3, [r7, #0]
 8018cfc:	a901      	add	r1, sp, #4
 8018cfe:	4f21      	ldr	r7, [pc, #132]	; (8018d84 <fatfs_lfn_generate_tail+0xbe>)
 8018d00:	4608      	mov	r0, r1
 8018d02:	fba7 2304 	umull	r2, r3, r7, r4
 8018d06:	08db      	lsrs	r3, r3, #3
 8018d08:	eb03 0283 	add.w	r2, r3, r3, lsl #2
 8018d0c:	eba4 0242 	sub.w	r2, r4, r2, lsl #1
 8018d10:	f10d 0c30 	add.w	ip, sp, #48	; 0x30
 8018d14:	4462      	add	r2, ip
 8018d16:	f812 2c20 	ldrb.w	r2, [r2, #-32]
 8018d1a:	f801 2b01 	strb.w	r2, [r1], #1
 8018d1e:	4622      	mov	r2, r4
 8018d20:	461c      	mov	r4, r3
 8018d22:	2a09      	cmp	r2, #9
 8018d24:	d8ec      	bhi.n	8018d00 <fatfs_lfn_generate_tail+0x3a>
 8018d26:	2300      	movs	r3, #0
 8018d28:	700b      	strb	r3, [r1, #0]
 8018d2a:	ab01      	add	r3, sp, #4
 8018d2c:	4298      	cmp	r0, r3
 8018d2e:	d324      	bcc.n	8018d7a <fatfs_lfn_generate_tail+0xb4>
 8018d30:	aa09      	add	r2, sp, #36	; 0x24
 8018d32:	4603      	mov	r3, r0
 8018d34:	f10d 0403 	add.w	r4, sp, #3
 8018d38:	f813 1901 	ldrb.w	r1, [r3], #-1
 8018d3c:	f802 1f01 	strb.w	r1, [r2, #1]!
 8018d40:	42a3      	cmp	r3, r4
 8018d42:	d1f9      	bne.n	8018d38 <fatfs_lfn_generate_tail+0x72>
 8018d44:	ab0c      	add	r3, sp, #48	; 0x30
 8018d46:	f1c3 032d 	rsb	r3, r3, #45	; 0x2d
 8018d4a:	4418      	add	r0, r3
 8018d4c:	f10d 0325 	add.w	r3, sp, #37	; 0x25
 8018d50:	4418      	add	r0, r3
 8018d52:	2300      	movs	r3, #0
 8018d54:	7003      	strb	r3, [r0, #0]
 8018d56:	220b      	movs	r2, #11
 8018d58:	4631      	mov	r1, r6
 8018d5a:	4628      	mov	r0, r5
 8018d5c:	f7fc fbd3 	bl	8015506 <memcpy>
 8018d60:	a809      	add	r0, sp, #36	; 0x24
 8018d62:	f7fc fc64 	bl	801562e <strlen>
 8018d66:	4602      	mov	r2, r0
 8018d68:	f1c0 0008 	rsb	r0, r0, #8
 8018d6c:	a909      	add	r1, sp, #36	; 0x24
 8018d6e:	4428      	add	r0, r5
 8018d70:	f7fc fbc9 	bl	8015506 <memcpy>
 8018d74:	2001      	movs	r0, #1
 8018d76:	b00d      	add	sp, #52	; 0x34
 8018d78:	bdf0      	pop	{r4, r5, r6, r7, pc}
 8018d7a:	f10d 0025 	add.w	r0, sp, #37	; 0x25
 8018d7e:	e7e8      	b.n	8018d52 <fatfs_lfn_generate_tail+0x8c>
 8018d80:	0001869f 	.word	0x0001869f
 8018d84:	cccccccd 	.word	0xcccccccd
 8018d88:	08019990 	.word	0x08019990

08018d8c <fatfs_fat_writeback>:
 8018d8c:	b1d9      	cbz	r1, 8018dc6 <fatfs_fat_writeback+0x3a>
 8018d8e:	b538      	push	{r3, r4, r5, lr}
 8018d90:	4603      	mov	r3, r0
 8018d92:	460c      	mov	r4, r1
 8018d94:	f8d1 2204 	ldr.w	r2, [r1, #516]	; 0x204
 8018d98:	b1ba      	cbz	r2, 8018dca <fatfs_fat_writeback+0x3e>
 8018d9a:	6b45      	ldr	r5, [r0, #52]	; 0x34
 8018d9c:	b175      	cbz	r5, 8018dbc <fatfs_fat_writeback+0x30>
 8018d9e:	f8d1 0200 	ldr.w	r0, [r1, #512]	; 0x200
 8018da2:	695a      	ldr	r2, [r3, #20]
 8018da4:	6a19      	ldr	r1, [r3, #32]
 8018da6:	f1c2 0301 	rsb	r3, r2, #1
 8018daa:	4403      	add	r3, r0
 8018dac:	428b      	cmp	r3, r1
 8018dae:	bf86      	itte	hi
 8018db0:	1852      	addhi	r2, r2, r1
 8018db2:	1a12      	subhi	r2, r2, r0
 8018db4:	2201      	movls	r2, #1
 8018db6:	4621      	mov	r1, r4
 8018db8:	47a8      	blx	r5
 8018dba:	b118      	cbz	r0, 8018dc4 <fatfs_fat_writeback+0x38>
 8018dbc:	2300      	movs	r3, #0
 8018dbe:	f8c4 3204 	str.w	r3, [r4, #516]	; 0x204
 8018dc2:	2001      	movs	r0, #1
 8018dc4:	bd38      	pop	{r3, r4, r5, pc}
 8018dc6:	2000      	movs	r0, #0
 8018dc8:	4770      	bx	lr
 8018dca:	2001      	movs	r0, #1
 8018dcc:	e7fa      	b.n	8018dc4 <fatfs_fat_writeback+0x38>

08018dce <fatfs_fat_read_sector>:
 8018dce:	b570      	push	{r4, r5, r6, lr}
 8018dd0:	4606      	mov	r6, r0
 8018dd2:	460d      	mov	r5, r1
 8018dd4:	f8d0 4250 	ldr.w	r4, [r0, #592]	; 0x250
 8018dd8:	b1e4      	cbz	r4, 8018e14 <fatfs_fat_read_sector+0x46>
 8018dda:	2200      	movs	r2, #0
 8018ddc:	4610      	mov	r0, r2
 8018dde:	e004      	b.n	8018dea <fatfs_fat_read_sector+0x1c>
 8018de0:	f8d4 320c 	ldr.w	r3, [r4, #524]	; 0x20c
 8018de4:	b17b      	cbz	r3, 8018e06 <fatfs_fat_read_sector+0x38>
 8018de6:	4622      	mov	r2, r4
 8018de8:	461c      	mov	r4, r3
 8018dea:	f8d4 3200 	ldr.w	r3, [r4, #512]	; 0x200
 8018dee:	42ab      	cmp	r3, r5
 8018df0:	d8f6      	bhi.n	8018de0 <fatfs_fat_read_sector+0x12>
 8018df2:	1c59      	adds	r1, r3, #1
 8018df4:	42a9      	cmp	r1, r5
 8018df6:	d9f3      	bls.n	8018de0 <fatfs_fat_read_sector+0x12>
 8018df8:	1aeb      	subs	r3, r5, r3
 8018dfa:	eb04 2343 	add.w	r3, r4, r3, lsl #9
 8018dfe:	f8c4 3208 	str.w	r3, [r4, #520]	; 0x208
 8018e02:	4620      	mov	r0, r4
 8018e04:	bd70      	pop	{r4, r5, r6, pc}
 8018e06:	b1ca      	cbz	r2, 8018e3c <fatfs_fat_read_sector+0x6e>
 8018e08:	f8c2 020c 	str.w	r0, [r2, #524]	; 0x20c
 8018e0c:	f8d4 320c 	ldr.w	r3, [r4, #524]	; 0x20c
 8018e10:	2b00      	cmp	r3, #0
 8018e12:	d1e8      	bne.n	8018de6 <fatfs_fat_read_sector+0x18>
 8018e14:	f8d6 3250 	ldr.w	r3, [r6, #592]	; 0x250
 8018e18:	f8c4 320c 	str.w	r3, [r4, #524]	; 0x20c
 8018e1c:	f8c6 4250 	str.w	r4, [r6, #592]	; 0x250
 8018e20:	f8d4 3204 	ldr.w	r3, [r4, #516]	; 0x204
 8018e24:	b96b      	cbnz	r3, 8018e42 <fatfs_fat_read_sector+0x74>
 8018e26:	f8c4 5200 	str.w	r5, [r4, #512]	; 0x200
 8018e2a:	6b33      	ldr	r3, [r6, #48]	; 0x30
 8018e2c:	2201      	movs	r2, #1
 8018e2e:	4621      	mov	r1, r4
 8018e30:	4628      	mov	r0, r5
 8018e32:	4798      	blx	r3
 8018e34:	b168      	cbz	r0, 8018e52 <fatfs_fat_read_sector+0x84>
 8018e36:	f8c4 4208 	str.w	r4, [r4, #520]	; 0x208
 8018e3a:	e7e2      	b.n	8018e02 <fatfs_fat_read_sector+0x34>
 8018e3c:	f8c6 0250 	str.w	r0, [r6, #592]	; 0x250
 8018e40:	e7e4      	b.n	8018e0c <fatfs_fat_read_sector+0x3e>
 8018e42:	4621      	mov	r1, r4
 8018e44:	4630      	mov	r0, r6
 8018e46:	f7ff ffa1 	bl	8018d8c <fatfs_fat_writeback>
 8018e4a:	2800      	cmp	r0, #0
 8018e4c:	d1eb      	bne.n	8018e26 <fatfs_fat_read_sector+0x58>
 8018e4e:	2400      	movs	r4, #0
 8018e50:	e7d7      	b.n	8018e02 <fatfs_fat_read_sector+0x34>
 8018e52:	f04f 33ff 	mov.w	r3, #4294967295	; 0xffffffff
 8018e56:	f8c4 3200 	str.w	r3, [r4, #512]	; 0x200
 8018e5a:	2400      	movs	r4, #0
 8018e5c:	e7d1      	b.n	8018e02 <fatfs_fat_read_sector+0x34>

08018e5e <fatfs_fat_init>:
 8018e5e:	b570      	push	{r4, r5, r6, lr}
 8018e60:	4604      	mov	r4, r0
 8018e62:	2500      	movs	r5, #0
 8018e64:	f8c0 5250 	str.w	r5, [r0, #592]	; 0x250
 8018e68:	f04f 33ff 	mov.w	r3, #4294967295	; 0xffffffff
 8018e6c:	f8c0 3454 	str.w	r3, [r0, #1108]	; 0x454
 8018e70:	f8c0 5458 	str.w	r5, [r0, #1112]	; 0x458
 8018e74:	f500 7615 	add.w	r6, r0, #596	; 0x254
 8018e78:	f44f 7200 	mov.w	r2, #512	; 0x200
 8018e7c:	4629      	mov	r1, r5
 8018e7e:	4630      	mov	r0, r6
 8018e80:	f7fc fb50 	bl	8015524 <memset>
 8018e84:	f8c4 545c 	str.w	r5, [r4, #1116]	; 0x45c
 8018e88:	f8d4 3250 	ldr.w	r3, [r4, #592]	; 0x250
 8018e8c:	f8c4 3460 	str.w	r3, [r4, #1120]	; 0x460
 8018e90:	f8c4 6250 	str.w	r6, [r4, #592]	; 0x250
 8018e94:	bd70      	pop	{r4, r5, r6, pc}

08018e96 <fatfs_fat_purge>:
 8018e96:	b538      	push	{r3, r4, r5, lr}
 8018e98:	4605      	mov	r5, r0
 8018e9a:	f8d0 4250 	ldr.w	r4, [r0, #592]	; 0x250
 8018e9e:	b924      	cbnz	r4, 8018eaa <fatfs_fat_purge+0x14>
 8018ea0:	2301      	movs	r3, #1
 8018ea2:	e00f      	b.n	8018ec4 <fatfs_fat_purge+0x2e>
 8018ea4:	f8d4 420c 	ldr.w	r4, [r4, #524]	; 0x20c
 8018ea8:	b15c      	cbz	r4, 8018ec2 <fatfs_fat_purge+0x2c>
 8018eaa:	f8d4 3204 	ldr.w	r3, [r4, #516]	; 0x204
 8018eae:	2b00      	cmp	r3, #0
 8018eb0:	d0f8      	beq.n	8018ea4 <fatfs_fat_purge+0xe>
 8018eb2:	4621      	mov	r1, r4
 8018eb4:	4628      	mov	r0, r5
 8018eb6:	f7ff ff69 	bl	8018d8c <fatfs_fat_writeback>
 8018eba:	4603      	mov	r3, r0
 8018ebc:	2800      	cmp	r0, #0
 8018ebe:	d1f1      	bne.n	8018ea4 <fatfs_fat_purge+0xe>
 8018ec0:	e000      	b.n	8018ec4 <fatfs_fat_purge+0x2e>
 8018ec2:	2301      	movs	r3, #1
 8018ec4:	4618      	mov	r0, r3
 8018ec6:	bd38      	pop	{r3, r4, r5, pc}

08018ec8 <fatfs_find_next_cluster>:
 8018ec8:	b570      	push	{r4, r5, r6, lr}
 8018eca:	4605      	mov	r5, r0
 8018ecc:	1e0c      	subs	r4, r1, #0
 8018ece:	bf08      	it	eq
 8018ed0:	2402      	moveq	r4, #2
 8018ed2:	f890 302d 	ldrb.w	r3, [r0, #45]	; 0x2d
 8018ed6:	b9e3      	cbnz	r3, 8018f12 <fatfs_find_next_cluster+0x4a>
 8018ed8:	0a26      	lsrs	r6, r4, #8
 8018eda:	6969      	ldr	r1, [r5, #20]
 8018edc:	4431      	add	r1, r6
 8018ede:	4628      	mov	r0, r5
 8018ee0:	f7ff ff75 	bl	8018dce <fatfs_fat_read_sector>
 8018ee4:	b390      	cbz	r0, 8018f4c <fatfs_find_next_cluster+0x84>
 8018ee6:	f895 202d 	ldrb.w	r2, [r5, #45]	; 0x2d
 8018eea:	b9a2      	cbnz	r2, 8018f16 <fatfs_find_next_cluster+0x4e>
 8018eec:	f8d0 3208 	ldr.w	r3, [r0, #520]	; 0x208
 8018ef0:	eba4 2406 	sub.w	r4, r4, r6, lsl #8
 8018ef4:	0064      	lsls	r4, r4, #1
 8018ef6:	b2a4      	uxth	r4, r4
 8018ef8:	191a      	adds	r2, r3, r4
 8018efa:	7852      	ldrb	r2, [r2, #1]
 8018efc:	5d18      	ldrb	r0, [r3, r4]
 8018efe:	eb00 2002 	add.w	r0, r0, r2, lsl #8
 8018f02:	f5a0 437f 	sub.w	r3, r0, #65280	; 0xff00
 8018f06:	3bf8      	subs	r3, #248	; 0xf8
 8018f08:	2b07      	cmp	r3, #7
 8018f0a:	bf98      	it	ls
 8018f0c:	f04f 30ff 	movls.w	r0, #4294967295	; 0xffffffff
 8018f10:	bd70      	pop	{r4, r5, r6, pc}
 8018f12:	09e6      	lsrs	r6, r4, #7
 8018f14:	e7e1      	b.n	8018eda <fatfs_find_next_cluster+0x12>
 8018f16:	f8d0 1208 	ldr.w	r1, [r0, #520]	; 0x208
 8018f1a:	eba4 14c6 	sub.w	r4, r4, r6, lsl #7
 8018f1e:	00a4      	lsls	r4, r4, #2
 8018f20:	b2a4      	uxth	r4, r4
 8018f22:	190a      	adds	r2, r1, r4
 8018f24:	78d0      	ldrb	r0, [r2, #3]
 8018f26:	7893      	ldrb	r3, [r2, #2]
 8018f28:	041b      	lsls	r3, r3, #16
 8018f2a:	eb03 6300 	add.w	r3, r3, r0, lsl #24
 8018f2e:	5d09      	ldrb	r1, [r1, r4]
 8018f30:	440b      	add	r3, r1
 8018f32:	7852      	ldrb	r2, [r2, #1]
 8018f34:	eb03 2302 	add.w	r3, r3, r2, lsl #8
 8018f38:	f023 4070 	bic.w	r0, r3, #4026531840	; 0xf0000000
 8018f3c:	f043 4370 	orr.w	r3, r3, #4026531840	; 0xf0000000
 8018f40:	f113 0f08 	cmn.w	r3, #8
 8018f44:	bf28      	it	cs
 8018f46:	f04f 30ff 	movcs.w	r0, #4294967295	; 0xffffffff
 8018f4a:	e7e1      	b.n	8018f10 <fatfs_find_next_cluster+0x48>
 8018f4c:	f04f 30ff 	mov.w	r0, #4294967295	; 0xffffffff
 8018f50:	e7de      	b.n	8018f10 <fatfs_find_next_cluster+0x48>

08018f52 <fatfs_set_fs_info_next_free_cluster>:
 8018f52:	f890 302d 	ldrb.w	r3, [r0, #45]	; 0x2d
 8018f56:	b903      	cbnz	r3, 8018f5a <fatfs_set_fs_info_next_free_cluster+0x8>
 8018f58:	4770      	bx	lr
 8018f5a:	b570      	push	{r4, r5, r6, lr}
 8018f5c:	4604      	mov	r4, r0
 8018f5e:	460d      	mov	r5, r1
 8018f60:	8b01      	ldrh	r1, [r0, #24]
 8018f62:	69c3      	ldr	r3, [r0, #28]
 8018f64:	4419      	add	r1, r3
 8018f66:	f7ff ff32 	bl	8018dce <fatfs_fat_read_sector>
 8018f6a:	4606      	mov	r6, r0
 8018f6c:	b320      	cbz	r0, 8018fb8 <fatfs_set_fs_info_next_free_cluster+0x66>
 8018f6e:	f8d0 3208 	ldr.w	r3, [r0, #520]	; 0x208
 8018f72:	f883 51ec 	strb.w	r5, [r3, #492]	; 0x1ec
 8018f76:	f8d0 3208 	ldr.w	r3, [r0, #520]	; 0x208
 8018f7a:	0a2a      	lsrs	r2, r5, #8
 8018f7c:	f883 21ed 	strb.w	r2, [r3, #493]	; 0x1ed
 8018f80:	f8d0 3208 	ldr.w	r3, [r0, #520]	; 0x208
 8018f84:	0c2a      	lsrs	r2, r5, #16
 8018f86:	f883 21ee 	strb.w	r2, [r3, #494]	; 0x1ee
 8018f8a:	f8d0 3208 	ldr.w	r3, [r0, #520]	; 0x208
 8018f8e:	0e2a      	lsrs	r2, r5, #24
 8018f90:	f883 21ef 	strb.w	r2, [r3, #495]	; 0x1ef
 8018f94:	2301      	movs	r3, #1
 8018f96:	f8c0 3204 	str.w	r3, [r0, #516]	; 0x204
 8018f9a:	6265      	str	r5, [r4, #36]	; 0x24
 8018f9c:	6b63      	ldr	r3, [r4, #52]	; 0x34
 8018f9e:	b123      	cbz	r3, 8018faa <fatfs_set_fs_info_next_free_cluster+0x58>
 8018fa0:	2201      	movs	r2, #1
 8018fa2:	4601      	mov	r1, r0
 8018fa4:	f8d0 0200 	ldr.w	r0, [r0, #512]	; 0x200
 8018fa8:	4798      	blx	r3
 8018faa:	f04f 33ff 	mov.w	r3, #4294967295	; 0xffffffff
 8018fae:	f8c6 3200 	str.w	r3, [r6, #512]	; 0x200
 8018fb2:	2300      	movs	r3, #0
 8018fb4:	f8c6 3204 	str.w	r3, [r6, #516]	; 0x204
 8018fb8:	bd70      	pop	{r4, r5, r6, pc}

08018fba <fatfs_find_blank_cluster>:
 8018fba:	b5f8      	push	{r3, r4, r5, r6, r7, lr}
 8018fbc:	4605      	mov	r5, r0
 8018fbe:	460e      	mov	r6, r1
 8018fc0:	4617      	mov	r7, r2
 8018fc2:	f895 302d 	ldrb.w	r3, [r5, #45]	; 0x2d
 8018fc6:	b9d3      	cbnz	r3, 8018ffe <fatfs_find_blank_cluster+0x44>
 8018fc8:	0a34      	lsrs	r4, r6, #8
 8018fca:	6a2b      	ldr	r3, [r5, #32]
 8018fcc:	42a3      	cmp	r3, r4
 8018fce:	d92c      	bls.n	801902a <fatfs_find_blank_cluster+0x70>
 8018fd0:	6969      	ldr	r1, [r5, #20]
 8018fd2:	4421      	add	r1, r4
 8018fd4:	4628      	mov	r0, r5
 8018fd6:	f7ff fefa 	bl	8018dce <fatfs_fat_read_sector>
 8018fda:	b340      	cbz	r0, 801902e <fatfs_find_blank_cluster+0x74>
 8018fdc:	f895 202d 	ldrb.w	r2, [r5, #45]	; 0x2d
 8018fe0:	b97a      	cbnz	r2, 8019002 <fatfs_find_blank_cluster+0x48>
 8018fe2:	f8d0 2208 	ldr.w	r2, [r0, #520]	; 0x208
 8018fe6:	eba6 2404 	sub.w	r4, r6, r4, lsl #8
 8018fea:	0064      	lsls	r4, r4, #1
 8018fec:	b2a4      	uxth	r4, r4
 8018fee:	1913      	adds	r3, r2, r4
 8018ff0:	7859      	ldrb	r1, [r3, #1]
 8018ff2:	5d13      	ldrb	r3, [r2, r4]
 8018ff4:	eb03 2301 	add.w	r3, r3, r1, lsl #8
 8018ff8:	b1db      	cbz	r3, 8019032 <fatfs_find_blank_cluster+0x78>
 8018ffa:	3601      	adds	r6, #1
 8018ffc:	e7e1      	b.n	8018fc2 <fatfs_find_blank_cluster+0x8>
 8018ffe:	09f4      	lsrs	r4, r6, #7
 8019000:	e7e3      	b.n	8018fca <fatfs_find_blank_cluster+0x10>
 8019002:	f8d0 1208 	ldr.w	r1, [r0, #520]	; 0x208
 8019006:	eba6 14c4 	sub.w	r4, r6, r4, lsl #7
 801900a:	00a4      	lsls	r4, r4, #2
 801900c:	b2a4      	uxth	r4, r4
 801900e:	190a      	adds	r2, r1, r4
 8019010:	78d0      	ldrb	r0, [r2, #3]
 8019012:	7893      	ldrb	r3, [r2, #2]
 8019014:	041b      	lsls	r3, r3, #16
 8019016:	eb03 6300 	add.w	r3, r3, r0, lsl #24
 801901a:	5d09      	ldrb	r1, [r1, r4]
 801901c:	440b      	add	r3, r1
 801901e:	7852      	ldrb	r2, [r2, #1]
 8019020:	eb03 2302 	add.w	r3, r3, r2, lsl #8
 8019024:	f023 4370 	bic.w	r3, r3, #4026531840	; 0xf0000000
 8019028:	e7e6      	b.n	8018ff8 <fatfs_find_blank_cluster+0x3e>
 801902a:	2000      	movs	r0, #0
 801902c:	bdf8      	pop	{r3, r4, r5, r6, r7, pc}
 801902e:	2000      	movs	r0, #0
 8019030:	e7fc      	b.n	801902c <fatfs_find_blank_cluster+0x72>
 8019032:	603e      	str	r6, [r7, #0]
 8019034:	2001      	movs	r0, #1
 8019036:	e7f9      	b.n	801902c <fatfs_find_blank_cluster+0x72>

08019038 <fatfs_fat_set_cluster>:
 8019038:	b5f8      	push	{r3, r4, r5, r6, r7, lr}
 801903a:	4606      	mov	r6, r0
 801903c:	460c      	mov	r4, r1
 801903e:	4615      	mov	r5, r2
 8019040:	f890 302d 	ldrb.w	r3, [r0, #45]	; 0x2d
 8019044:	b9db      	cbnz	r3, 801907e <fatfs_fat_set_cluster+0x46>
 8019046:	0a0f      	lsrs	r7, r1, #8
 8019048:	6971      	ldr	r1, [r6, #20]
 801904a:	4439      	add	r1, r7
 801904c:	4630      	mov	r0, r6
 801904e:	f7ff febe 	bl	8018dce <fatfs_fat_read_sector>
 8019052:	4603      	mov	r3, r0
 8019054:	b378      	cbz	r0, 80190b6 <fatfs_fat_set_cluster+0x7e>
 8019056:	f896 202d 	ldrb.w	r2, [r6, #45]	; 0x2d
 801905a:	b992      	cbnz	r2, 8019082 <fatfs_fat_set_cluster+0x4a>
 801905c:	eba4 2407 	sub.w	r4, r4, r7, lsl #8
 8019060:	0064      	lsls	r4, r4, #1
 8019062:	b2a4      	uxth	r4, r4
 8019064:	f8d0 2208 	ldr.w	r2, [r0, #520]	; 0x208
 8019068:	5515      	strb	r5, [r2, r4]
 801906a:	f8d0 7208 	ldr.w	r7, [r0, #520]	; 0x208
 801906e:	443c      	add	r4, r7
 8019070:	f3c5 2507 	ubfx	r5, r5, #8, #8
 8019074:	7065      	strb	r5, [r4, #1]
 8019076:	2001      	movs	r0, #1
 8019078:	f8c3 0204 	str.w	r0, [r3, #516]	; 0x204
 801907c:	bdf8      	pop	{r3, r4, r5, r6, r7, pc}
 801907e:	09cf      	lsrs	r7, r1, #7
 8019080:	e7e2      	b.n	8019048 <fatfs_fat_set_cluster+0x10>
 8019082:	eba4 14c7 	sub.w	r4, r4, r7, lsl #7
 8019086:	00a4      	lsls	r4, r4, #2
 8019088:	b2a4      	uxth	r4, r4
 801908a:	f8d0 2208 	ldr.w	r2, [r0, #520]	; 0x208
 801908e:	5515      	strb	r5, [r2, r4]
 8019090:	f8d0 2208 	ldr.w	r2, [r0, #520]	; 0x208
 8019094:	4422      	add	r2, r4
 8019096:	0a29      	lsrs	r1, r5, #8
 8019098:	7051      	strb	r1, [r2, #1]
 801909a:	f8d0 2208 	ldr.w	r2, [r0, #520]	; 0x208
 801909e:	4422      	add	r2, r4
 80190a0:	0c29      	lsrs	r1, r5, #16
 80190a2:	7091      	strb	r1, [r2, #2]
 80190a4:	f8d0 2208 	ldr.w	r2, [r0, #520]	; 0x208
 80190a8:	4414      	add	r4, r2
 80190aa:	0e2d      	lsrs	r5, r5, #24
 80190ac:	70e5      	strb	r5, [r4, #3]
 80190ae:	2001      	movs	r0, #1
 80190b0:	f8c3 0204 	str.w	r0, [r3, #516]	; 0x204
 80190b4:	e7e2      	b.n	801907c <fatfs_fat_set_cluster+0x44>
 80190b6:	2000      	movs	r0, #0
 80190b8:	e7e0      	b.n	801907c <fatfs_fat_set_cluster+0x44>

080190ba <fatfs_free_cluster_chain>:
 80190ba:	b5f8      	push	{r3, r4, r5, r6, r7, lr}
 80190bc:	1e4b      	subs	r3, r1, #1
 80190be:	f113 0f03 	cmn.w	r3, #3
 80190c2:	d811      	bhi.n	80190e8 <fatfs_free_cluster_chain+0x2e>
 80190c4:	4605      	mov	r5, r0
 80190c6:	460c      	mov	r4, r1
 80190c8:	2700      	movs	r7, #0
 80190ca:	4626      	mov	r6, r4
 80190cc:	4621      	mov	r1, r4
 80190ce:	4628      	mov	r0, r5
 80190d0:	f7ff fefa 	bl	8018ec8 <fatfs_find_next_cluster>
 80190d4:	4604      	mov	r4, r0
 80190d6:	463a      	mov	r2, r7
 80190d8:	4631      	mov	r1, r6
 80190da:	4628      	mov	r0, r5
 80190dc:	f7ff ffac 	bl	8019038 <fatfs_fat_set_cluster>
 80190e0:	1e63      	subs	r3, r4, #1
 80190e2:	f113 0f03 	cmn.w	r3, #3
 80190e6:	d9f0      	bls.n	80190ca <fatfs_free_cluster_chain+0x10>
 80190e8:	2001      	movs	r0, #1
 80190ea:	bdf8      	pop	{r3, r4, r5, r6, r7, pc}

080190ec <fatfs_fat_add_cluster_to_chain>:
 80190ec:	b570      	push	{r4, r5, r6, lr}
 80190ee:	4604      	mov	r4, r0
 80190f0:	4616      	mov	r6, r2
 80190f2:	f1b1 3fff 	cmp.w	r1, #4294967295	; 0xffffffff
 80190f6:	d015      	beq.n	8019124 <fatfs_fat_add_cluster_to_chain+0x38>
 80190f8:	460d      	mov	r5, r1
 80190fa:	4620      	mov	r0, r4
 80190fc:	f7ff fee4 	bl	8018ec8 <fatfs_find_next_cluster>
 8019100:	4601      	mov	r1, r0
 8019102:	b188      	cbz	r0, 8019128 <fatfs_fat_add_cluster_to_chain+0x3c>
 8019104:	f1b0 3fff 	cmp.w	r0, #4294967295	; 0xffffffff
 8019108:	d1f6      	bne.n	80190f8 <fatfs_fat_add_cluster_to_chain+0xc>
 801910a:	4632      	mov	r2, r6
 801910c:	4629      	mov	r1, r5
 801910e:	4620      	mov	r0, r4
 8019110:	f7ff ff92 	bl	8019038 <fatfs_fat_set_cluster>
 8019114:	f04f 32ff 	mov.w	r2, #4294967295	; 0xffffffff
 8019118:	4631      	mov	r1, r6
 801911a:	4620      	mov	r0, r4
 801911c:	f7ff ff8c 	bl	8019038 <fatfs_fat_set_cluster>
 8019120:	2001      	movs	r0, #1
 8019122:	bd70      	pop	{r4, r5, r6, pc}
 8019124:	2000      	movs	r0, #0
 8019126:	e7fc      	b.n	8019122 <fatfs_fat_add_cluster_to_chain+0x36>
 8019128:	2000      	movs	r0, #0
 801912a:	e7fa      	b.n	8019122 <fatfs_fat_add_cluster_to_chain+0x36>

0801912c <fatfs_count_free_clusters>:
 801912c:	e92d 41f0 	stmdb	sp!, {r4, r5, r6, r7, r8, lr}
 8019130:	6a04      	ldr	r4, [r0, #32]
 8019132:	2c00      	cmp	r4, #0
 8019134:	d03b      	beq.n	80191ae <fatfs_count_free_clusters+0x82>
 8019136:	4605      	mov	r5, r0
 8019138:	2400      	movs	r4, #0
 801913a:	4626      	mov	r6, r4
 801913c:	e02c      	b.n	8019198 <fatfs_count_free_clusters+0x6c>
 801913e:	3202      	adds	r2, #2
 8019140:	f5b2 7f00 	cmp.w	r2, #512	; 0x200
 8019144:	d224      	bcs.n	8019190 <fatfs_count_free_clusters+0x64>
 8019146:	b968      	cbnz	r0, 8019164 <fatfs_count_free_clusters+0x38>
 8019148:	f8d7 3208 	ldr.w	r3, [r7, #520]	; 0x208
 801914c:	b291      	uxth	r1, r2
 801914e:	eb03 0c01 	add.w	ip, r3, r1
 8019152:	f89c c001 	ldrb.w	ip, [ip, #1]
 8019156:	5c5b      	ldrb	r3, [r3, r1]
 8019158:	eb03 230c 	add.w	r3, r3, ip, lsl #8
 801915c:	2b00      	cmp	r3, #0
 801915e:	d1ee      	bne.n	801913e <fatfs_count_free_clusters+0x12>
 8019160:	3401      	adds	r4, #1
 8019162:	e7ec      	b.n	801913e <fatfs_count_free_clusters+0x12>
 8019164:	f8d7 e208 	ldr.w	lr, [r7, #520]	; 0x208
 8019168:	fa1f fc82 	uxth.w	ip, r2
 801916c:	eb0e 010c 	add.w	r1, lr, ip
 8019170:	f891 8003 	ldrb.w	r8, [r1, #3]
 8019174:	788b      	ldrb	r3, [r1, #2]
 8019176:	041b      	lsls	r3, r3, #16
 8019178:	eb03 6308 	add.w	r3, r3, r8, lsl #24
 801917c:	f81e c00c 	ldrb.w	ip, [lr, ip]
 8019180:	4463      	add	r3, ip
 8019182:	7849      	ldrb	r1, [r1, #1]
 8019184:	eb03 2301 	add.w	r3, r3, r1, lsl #8
 8019188:	b903      	cbnz	r3, 801918c <fatfs_count_free_clusters+0x60>
 801918a:	3401      	adds	r4, #1
 801918c:	3204      	adds	r2, #4
 801918e:	e7d7      	b.n	8019140 <fatfs_count_free_clusters+0x14>
 8019190:	3601      	adds	r6, #1
 8019192:	6a2b      	ldr	r3, [r5, #32]
 8019194:	42b3      	cmp	r3, r6
 8019196:	d90a      	bls.n	80191ae <fatfs_count_free_clusters+0x82>
 8019198:	6969      	ldr	r1, [r5, #20]
 801919a:	4431      	add	r1, r6
 801919c:	4628      	mov	r0, r5
 801919e:	f7ff fe16 	bl	8018dce <fatfs_fat_read_sector>
 80191a2:	4607      	mov	r7, r0
 80191a4:	b118      	cbz	r0, 80191ae <fatfs_count_free_clusters+0x82>
 80191a6:	f895 002d 	ldrb.w	r0, [r5, #45]	; 0x2d
 80191aa:	2200      	movs	r2, #0
 80191ac:	e7cb      	b.n	8019146 <fatfs_count_free_clusters+0x1a>
 80191ae:	4620      	mov	r0, r4
 80191b0:	e8bd 81f0 	ldmia.w	sp!, {r4, r5, r6, r7, r8, pc}
 80191b4:	700d0a0a 	.word	0x700d0a0a
 80191b8:	63696e61 	.word	0x63696e61
 80191bc:	7325203a 	.word	0x7325203a
 80191c0:	00000a0a 	.word	0x00000a0a
 80191c4:	6f727265 	.word	0x6f727265
 80191c8:	61632072 	.word	0x61632072
 80191cc:	25206c6c 	.word	0x25206c6c
 80191d0:	00000064 	.word	0x00000064
 80191d4:	6c616d0a 	.word	0x6c616d0a
 80191d8:	20636f6c 	.word	0x20636f6c
 80191dc:	65646f6d 	.word	0x65646f6d
 80191e0:	000a3120 	.word	0x000a3120
 80191e4:	64303125 	.word	0x64303125
 80191e8:	74796220 	.word	0x74796220
 80191ec:	6f207365 	.word	0x6f207365
 80191f0:	69582066 	.word	0x69582066
 80191f4:	6320756e 	.word	0x6320756e
 80191f8:	2e65646f 	.word	0x2e65646f
 80191fc:	0000000a 	.word	0x0000000a
 8019200:	20202020 	.word	0x20202020
 8019204:	20202020 	.word	0x20202020
 8019208:	5b202020 	.word	0x5b202020
 801920c:	30257830 	.word	0x30257830
 8019210:	74205838 	.word	0x74205838
 8019214:	7830206f 	.word	0x7830206f
 8019218:	58383025 	.word	0x58383025
 801921c:	00000a5d 	.word	0x00000a5d
 8019220:	64303125 	.word	0x64303125
 8019224:	74796220 	.word	0x74796220
 8019228:	6f207365 	.word	0x6f207365
 801922c:	61642066 	.word	0x61642066
 8019230:	0a2e6174 	.word	0x0a2e6174
 8019234:	00000000 	.word	0x00000000
 8019238:	20202020 	.word	0x20202020
 801923c:	20202020 	.word	0x20202020
 8019240:	5b202020 	.word	0x5b202020
 8019244:	30257830 	.word	0x30257830
 8019248:	74205838 	.word	0x74205838
 801924c:	7830206f 	.word	0x7830206f
 8019250:	58383025 	.word	0x58383025
 8019254:	000a0a5d 	.word	0x000a0a5d
 8019258:	6e756f6d 	.word	0x6e756f6d
 801925c:	72652074 	.word	0x72652074
 8019260:	21726f72 	.word	0x21726f72
 8019264:	73657220 	.word	0x73657220
 8019268:	0a64253d 	.word	0x0a64253d
 801926c:	00000000 	.word	0x00000000
 8019270:	6e756f6d 	.word	0x6e756f6d
 8019274:	75732074 	.word	0x75732074
 8019278:	73656363 	.word	0x73656363
 801927c:	6c756673 	.word	0x6c756673
 8019280:	000a796c 	.word	0x000a796c
 8019284:	0000002f 	.word	0x0000002f
 8019288:	6f727265 	.word	0x6f727265
 801928c:	69642072 	.word	0x69642072
 8019290:	00000a72 	.word	0x00000a72
 8019294:	20666c65 	.word	0x20666c65
 8019298:	203e3e2d 	.word	0x203e3e2d
 801929c:	6f727265 	.word	0x6f727265
 80192a0:	616d2072 	.word	0x616d2072
 80192a4:	636f6c6c 	.word	0x636f6c6c
 80192a8:	0000000a 	.word	0x0000000a
 80192ac:	746f672e 	.word	0x746f672e
 80192b0:	00000000 	.word	0x00000000
 80192b4:	00002b77 	.word	0x00002b77
 80192b8:	6f727245 	.word	0x6f727245
 80192bc:	6f202172 	.word	0x6f202172
 80192c0:	696e6570 	.word	0x696e6570
 80192c4:	6620676e 	.word	0x6620676e
 80192c8:	00656c69 	.word	0x00656c69
 80192cc:	69440a0d 	.word	0x69440a0d
 80192d0:	74636572 	.word	0x74636572
 80192d4:	2079726f 	.word	0x2079726f
 80192d8:	0a0d7325 	.word	0x0a0d7325
 80192dc:	00000000 	.word	0x00000000
 80192e0:	3c207325 	.word	0x3c207325
 80192e4:	3e524944 	.word	0x3e524944
 80192e8:	00000a0d 	.word	0x00000a0d
 80192ec:	5b207325 	.word	0x5b207325
 80192f0:	62206425 	.word	0x62206425
 80192f4:	73657479 	.word	0x73657479
 80192f8:	000a0d5d 	.word	0x000a0d5d
 80192fc:	4f525245 	.word	0x4f525245
 8019300:	43203a52 	.word	0x43203a52
 8019304:	6f6e6e61 	.word	0x6f6e6e61
 8019308:	6e692074 	.word	0x6e692074
 801930c:	53207469 	.word	0x53207469
 8019310:	61632044 	.word	0x61632044
 8019314:	000a6472 	.word	0x000a6472
 8019318:	4f525245 	.word	0x4f525245
 801931c:	46203a52 	.word	0x46203a52
 8019320:	656c6961 	.word	0x656c6961
 8019324:	6f742064 	.word	0x6f742064
 8019328:	696e6920 	.word	0x696e6920
 801932c:	69662074 	.word	0x69662074
 8019330:	7320656c 	.word	0x7320656c
 8019334:	65747379 	.word	0x65747379
 8019338:	00000a6d 	.word	0x00000a6d
 801933c:	64616f6c 	.word	0x64616f6c
 8019340:	20676e69 	.word	0x20676e69
 8019344:	6c656873 	.word	0x6c656873
 8019348:	2e2e2e6c 	.word	0x2e2e2e6c
 801934c:	0000000a 	.word	0x0000000a
 8019350:	6c656873 	.word	0x6c656873
 8019354:	0000316c 	.word	0x0000316c
 8019358:	6e72656b 	.word	0x6e72656b
 801935c:	61206c65 	.word	0x61206c65
 8019360:	30252074 	.word	0x30252074
 8019364:	000a7838 	.word	0x000a7838
 8019368:	6c6c756e 	.word	0x6c6c756e
 801936c:	00000000 	.word	0x00000000
 8019370:	73252020 	.word	0x73252020
 8019374:	0000000a 	.word	0x0000000a
 8019378:	30252020 	.word	0x30252020
 801937c:	00207834 	.word	0x00207834
 8019380:	32302520 	.word	0x32302520
 8019384:	00000078 	.word	0x00000078
 8019388:	00202020 	.word	0x00202020
 801938c:	28207825 	.word	0x28207825
 8019390:	3a297325 	.word	0x3a297325
 8019394:	0000000a 	.word	0x0000000a
 8019398:	0a3a7825 	.word	0x0a3a7825
 801939c:	00000000 	.word	0x00000000

080193a0 <SPECIAL_KEY_SEQUENCES>:
 80193a0:	5b1b1001 00000041 5b1b1002 00000042     ...[A......[B...
 80193b0:	5b1b1003 00000043 5b1b1004 00000044     ...[C......[D...
 80193c0:	007f1005 00000000 00081005 00000000     ................
 80193d0:	6c6c696b 20206465 2d2d6425 000a7325     killed  %d--%s..
 80193e0:	61657263 65206574 726f7272 6c616d20     create error mal
 80193f0:	20636f6c 000a7325 65657266 00000020     loc %s..free ...
 8019400:	72727563 00000020 64616572 00000079     curr ...ready...
 8019410:	76636572 00000020 65656c73 00000070     recv ...sleep...
 8019420:	70737573 00000020 74696177 00000020     susp ...wait ...
 8019430:	73253e2d 0000000a 6f2e612f 00007475     ->%s..../a.out..
 8019440:	78323025 0000000a 656d6974 6425203a     %02x....time: %d
 8019450:	0000000a 656d6974 25203a32 00000a64     ....time2: %d...
 8019460:	657a6973 6425203a 0000000a 203a7325     size: %d....%s: 
 8019470:	6e6e6163 6b20746f 206c6c69 20656874     cannot kill the 
 8019480:	6c6c756e 6f727020 73736563 0000000a     null process....
 8019490:	20746f6e 6e756f66 61742064 25206b73     not found task %
 80194a0:	00000a64 74617453 00000065 656d614e     d...State...Name
 80194b0:	00000000 00646950 20733325 36312d25     ....Pid.%3s %-16
 80194c0:	35252073 31252073 25207330 20733031     s %5s %10s %10s 
 80194d0:	73303125 0000000a 63617453 6953206b     %10s....Stack Si
 80194e0:	0000657a 63617453 7450206b 00000072     ze..Stack Ptr...
 80194f0:	63617453 6142206b 00006573 20643325     Stack Base..%3d 
 8019500:	36312d25 35252073 78302073 58383025     %-16s %5s 0x%08X
 8019510:	25783020 20583830 0a643825 00000000      0x%08X %8d.....
 8019520:	65657246 00000000 64657355 00000000     Free....Used....
 8019530:	6c616d6b 20636f6c 7473696c 726f6320     kmalloc list cor
 8019540:	74707572 61206465 78252074 00000a21     rupted at %x!...
 8019550:	20782509 00000000 20642509 65747962     .%x .....%d byte
 8019560:	00000073 6f727265 6c652072 00000a66     s...error elf...
 8019570:	6f727265 6f6c2072 65206461 000a666c     error load elf..
 8019580:	20687378 00002024 746e7953 65207861     xsh $ ..Syntax e
 8019590:	726f7272 0000000a 6d6d6f63 20646e61     rror....command 
 80195a0:	6e207325 6620746f 646e756f 0000000a     %s not found....

080195b0 <cmdtab>:
 80195b0:	00666c65 00000000 00000000 00000000     elf.............
 80195c0:	08011bcd 006e6962 00000000 00000000     ....bin.........
 80195d0:	00000000 08011821 64616f6c 00000000     ....!...load....
	...
 80195e8:	08011a99 6f626572 0000746f 00000000     ....reboot......
 80195f8:	00000000 0801169d 6f686365 00000000     ........echo....
	...
 8019610:	08011699 74697865 00000000 00000000     ....exit........
 8019620:	00000000 08011931 706c6568 00000000     ....1...help....
	...
 8019638:	080116c5 6c6c696b 00000000 00000000     ....kill........
 8019648:	00000000 0801193f 64616572 00000079     ....?...ready...
	...
 8019660:	080116b5 736d656d 00746174 00000000     ....memstat.....
 8019670:	00000000 08011a21 00007370 00000000     ....!...ps......
	...
 8019688:	08011981 74736574 00000000 00000000     ....test........
 8019698:	00000000 08011765 706d7564 00000000     ....e...dump....
	...
 80196b0:	08011895 080193f8 08019400 08019408     ................
 80196c0:	08019410 08019418 08019420 08019428     ........ ...(...
 80196d0:	2c2b2a22 3d3c3b3a 5d5b3f3e 00007f7c     "*+,:;<=>?[]|...
 80196e0:	2c2b2a22 3c3b3a2e 5b3f3e3d 007f7c5d     "*+,.:;<=>?[]|..

080196f0 <ExCvt>:
 80196f0:	41455543 43414141 49454545 41414949     CUEAAAACEEEIIIAA
 8019700:	4f929245 55554f4f 4f554f59 9f9e4f9c     E..OOOUUYOUO.O..
 8019710:	554f4941 a7a6a5a5 abaaa9a8 afaeadac     AIOU............
 8019720:	b3b2b1b0 414141b4 bbbab9b8 bfbebdbc     .....AAA........
 8019730:	c3c2c1c0 4141c5c4 cbcac9c8 cfcecdcc     ......AA........
 8019740:	4545d1d1 49494945 dbdad949 df49dddc     ..EEEIIII.....I.
 8019750:	4f4fe14f e8e64f4f 555555e8 efee5959     O.OOOO...UUUYY..
 8019760:	f3f2f1f0 f7f6f5f4 fbfaf9f8 fffefdfc     ................
 8019770:	6f727265 69642072 000a6b73 725f6473     error disk..sd_r
 8019780:	73646165 6f746365 42203a72 72206461     eadsector: Bad r
 8019790:	6f707365 2065736e 000a7825 725f6473     esponse %x..sd_r
 80197a0:	73646165 6f746365 54203a72 6f656d69     eadsector: Timeo
 80197b0:	77207475 69746961 6620676e 6420726f     ut waiting for d
 80197c0:	20617461 64616572 00000a79 775f6473     ata ready...sd_w
 80197d0:	65746972 74636573 203a726f 20646142     ritesector: Bad 
 80197e0:	70736572 65736e6f 0a782520 00000000     response %x.....
 80197f0:	775f6473 65746972 74636573 203a726f     sd_writesector: 
 8019800:	61746144 6a657220 65746365 78252064     Data rejected %x
 8019810:	0000000a 775f6473 65746972 74636573     ....sd_writesect
 8019820:	203a726f 656d6954 2074756f 74696177     or: Timeout wait
 8019830:	20676e69 20726f66 61746164 69727720     ing for data wri
 8019840:	63206574 6c706d6f 0a657465 00000000     te complete.....
 8019850:	775f6473 65746972 74636573 203a726f     sd_writesector: 
 8019860:	656d6954 2074756f 74696177 20676e69     Timeout waiting 
 8019870:	20726f66 75746572 74206e72 6469206f     for return to id
 8019880:	000a656c 646e6148 0072656c 65726854     le..Handler.Thre
 8019890:	00006461 66207325 656c6961 25282064     ad..%s failed (%
 80198a0:	0a297838 00000000 203a3072 20783825     8x).....r0: %8x 
 80198b0:	3a323172 78382520 0000000a 203a3172     r12: %8x....r1: 
 80198c0:	20783825 3a726c20 78382520 0000000a     %8x  lr: %8x....
 80198d0:	203a3272 20783825 3a637020 78382520     r2: %8x  pc: %8x
 80198e0:	0000000a 203a3372 20783825 3a727370     ....r3: %8x psr:
 80198f0:	78382520 0000000a                        %8x....

080198f8 <_ctype_>:
 80198f8:	20202000 20202020 08082020 20080808     .         ..... 
 8019908:	20202020 20202020 20202020 20202020                     
 8019918:	10100820 10101010 10101010 10101010      ...............
 8019928:	04040410 04040404 10040404 10101010     ................
 8019938:	41411010 41414141 01010101 01010101     ..AAAAAA........
 8019948:	01010101 01010101 01010101 10101010     ................
 8019958:	42421010 42424242 02020202 02020202     ..BBBBBB........
 8019968:	02020202 02020202 02020202 10101010     ................
 8019978:	00000020 33323130 37363534 62613938      ...0123456789ab
 8019988:	66656463 00000000 33323130 37363534     cdef....01234567
 8019998:	42413938 46454443 00000000 6c756e28     89ABCDEF....(nul
 80199a8:	0000296c 6c616d6b 3a636f6c 74756f20     l)..kmalloc: out
 80199b8:	20666f20 6f6d656d 0a217972 00000000      of memory!.....
 80199c8:	61766e69 2064696c 6572666b 78252865     invalid kfree(%x
 80199d8:	00000a29 33544146 00000032 31544146     )...FAT32...FAT1
 80199e8:	00000036 20544146 61746564 3a736c69     6...FAT details:
 80199f8:	00000a0d 70795420 253d2065 00000073     .... Type =%s...
 8019a08:	6f6f5220 69442074 69462072 20747372      Root Dir First 
 8019a18:	73756c43 20726574 7825203d 00000a0d     Cluster = %x....
 8019a28:	54414620 67654220 4c206e69 3d204142      FAT Begin LBA =
 8019a38:	25783020 000a0d78 756c4320 72657473      0x%x... Cluster
 8019a48:	67654220 4c206e69 3d204142 25783020      Begin LBA = 0x%
 8019a58:	000a0d78 63655320 73726f74 72655020     x... Sectors Per
 8019a68:	756c4320 72657473 25203d20 000a0d64      Cluster = %d...
 8019a78:	5f544146 203a5346 6f727245 6f632072     FAT_FS: Error co
 8019a88:	20646c75 20746f6e 64616f6c 54414620     uld not load FAT
 8019a98:	74656420 736c6961 64252820 0a0d2129      details (%d)!..
 8019aa8:	00000000 00000001 00000003 00000005     ................
 8019ab8:	00000007 00000009 0000000e 00000010     ................
 8019ac8:	00000012 00000014 00000016 00000018     ................
 8019ad8:	0000001c 0000001e                       ........
